---
triple:          'arm64-apple-darwin'
binary-path:     '/Users/kuochangjung/C++/UMCREADDMM/rooster'
relocations:
  - { offsetInCU: 0x52, offset: 0x52, size: 0x8, addend: 0x0, symName: __ZL7dataMap, symObjAddr: 0x2D8910, symBinAddr: 0x100078000, symSize: 0x0 }
  - { offsetInCU: 0xEFF0, offset: 0xEFF0, size: 0x8, addend: 0x0, symName: __ZNSt3__1L19piecewise_constructE, symObjAddr: 0x50AB8, symBinAddr: 0x100070C78, symSize: 0x0 }
  - { offsetInCU: 0x19FA7, offset: 0x19FA7, size: 0x8, addend: 0x0, symName: __ZNSt3__17advanceB7v160006IPNS_12basic_stringIcNS_11char_traitsIcEENS_9allocatorIcEEEEllvEEvRT_T0_, symObjAddr: 0x9660, symBinAddr: 0x10000B7E8, symSize: 0x50 }
  - { offsetInCU: 0x1D70C, offset: 0x1D70C, size: 0x8, addend: 0x0, symName: __ZNSt3__17advanceB7v160006IPNS_4pairINS_12basic_stringIcNS_11char_traitsIcEENS_9allocatorIcEEEEiEEllvEEvRT_T0_, symObjAddr: 0xD15C, symBinAddr: 0x10000F2E4, symSize: 0x50 }
  - { offsetInCU: 0x1D98C, offset: 0x1D98C, size: 0x8, addend: 0x0, symName: __ZNSt3__17advanceB7v160006INS_16reverse_iteratorIPNS_4pairINS_12basic_stringIcNS_11char_traitsIcEENS_9allocatorIcEEEEiEEEEllvEEvRT_T0_, symObjAddr: 0xD5B0, symBinAddr: 0x10000F738, symSize: 0x50 }
  - { offsetInCU: 0x1D9F7, offset: 0x1D9F7, size: 0x8, addend: 0x0, symName: '__ZNSt3__111__introsortINS_17_ClassicAlgPolicyERZ25handle_sort_remove_uniqueRNS_6vectorINS_4pairINS_12basic_stringIcNS_11char_traitsIcEENS_9allocatorIcEEEEiEENS7_ISA_EEEEE3$_0PSA_EEvT1_SH_T0_NS_15iterator_traitsISH_E15difference_typeE', symObjAddr: 0xDD2C, symBinAddr: 0x10000FEB4, symSize: 0x6B8 }
  - { offsetInCU: 0x1DB52, offset: 0x1DB52, size: 0x8, addend: 0x0, symName: '__ZNSt3__118__insertion_sort_3B7v160006INS_17_ClassicAlgPolicyERZ25handle_sort_remove_uniqueRNS_6vectorINS_4pairINS_12basic_stringIcNS_11char_traitsIcEENS_9allocatorIcEEEEiEENS7_ISA_EEEEE3$_0PSA_EEvT1_SH_T0_', symObjAddr: 0xE54C, symBinAddr: 0x1000106D4, symSize: 0x17C }
  - { offsetInCU: 0x1DC15, offset: 0x1DC15, size: 0x8, addend: 0x0, symName: '__ZNSt3__111__sift_downB7v160006INS_17_ClassicAlgPolicyERZ25handle_sort_remove_uniqueRNS_6vectorINS_4pairINS_12basic_stringIcNS_11char_traitsIcEENS_9allocatorIcEEEEiEENS7_ISA_EEEEE3$_0PSA_EEvT1_OT0_NS_15iterator_traitsISH_E15difference_typeESH_', symObjAddr: 0xF478, symBinAddr: 0x100011600, symSize: 0x244 }
  - { offsetInCU: 0x1DCC2, offset: 0x1DCC2, size: 0x8, addend: 0x0, symName: '__ZNSt3__117__floyd_sift_downB7v160006INS_17_ClassicAlgPolicyERZ25handle_sort_remove_uniqueRNS_6vectorINS_4pairINS_12basic_stringIcNS_11char_traitsIcEENS_9allocatorIcEEEEiEENS7_ISA_EEEEE3$_0PSA_EET1_SH_OT0_NS_15iterator_traitsISH_E15difference_typeE', symObjAddr: 0xF884, symBinAddr: 0x100011A0C, symSize: 0x100 }
  - { offsetInCU: 0x1DD5A, offset: 0x1DD5A, size: 0x8, addend: 0x0, symName: '__ZNSt3__127__insertion_sort_incompleteIRZ25handle_sort_remove_uniqueRNS_6vectorINS_4pairINS_12basic_stringIcNS_11char_traitsIcEENS_9allocatorIcEEEEiEENS6_IS9_EEEEE3$_0PS9_EEbT0_SG_T_', symObjAddr: 0xE8F4, symBinAddr: 0x100010A7C, symSize: 0x36C }
  - { offsetInCU: 0x207D7, offset: 0x207D7, size: 0x8, addend: 0x0, symName: __ZNSt3__17advanceB7v160006IP6DefectllvEEvRT_T0_, symObjAddr: 0x13B60, symBinAddr: 0x100015CE8, symSize: 0x50 }
  - { offsetInCU: 0x20A57, offset: 0x20A57, size: 0x8, addend: 0x0, symName: __ZNSt3__17advanceB7v160006INS_16reverse_iteratorIP6DefectEEllvEEvRT_T0_, symObjAddr: 0x13F4C, symBinAddr: 0x1000160D4, symSize: 0x50 }
  - { offsetInCU: 0x223D8, offset: 0x223D8, size: 0x8, addend: 0x0, symName: __ZNSt3__17advanceB7v160006IP11DataEntryEQllvEEvRT_T0_, symObjAddr: 0x15A24, symBinAddr: 0x100017BAC, symSize: 0x50 }
  - { offsetInCU: 0x22658, offset: 0x22658, size: 0x8, addend: 0x0, symName: __ZNSt3__17advanceB7v160006INS_16reverse_iteratorIP11DataEntryEQEEllvEEvRT_T0_, symObjAddr: 0x15E10, symBinAddr: 0x100017F98, symSize: 0x50 }
  - { offsetInCU: 0x23FD9, offset: 0x23FD9, size: 0x8, addend: 0x0, symName: __ZNSt3__17advanceB7v160006IP5EqlotllvEEvRT_T0_, symObjAddr: 0x174DC, symBinAddr: 0x100019664, symSize: 0x50 }
  - { offsetInCU: 0x24259, offset: 0x24259, size: 0x8, addend: 0x0, symName: __ZNSt3__17advanceB7v160006INS_16reverse_iteratorIP5EqlotEEllvEEvRT_T0_, symObjAddr: 0x178C8, symBinAddr: 0x100019A50, symSize: 0x50 }
  - { offsetInCU: 0x25BDA, offset: 0x25BDA, size: 0x8, addend: 0x0, symName: __ZNSt3__17advanceB7v160006IP8InlineTRllvEEvRT_T0_, symObjAddr: 0x18E2C, symBinAddr: 0x10001AFB4, symSize: 0x50 }
  - { offsetInCU: 0x25E5A, offset: 0x25E5A, size: 0x8, addend: 0x0, symName: __ZNSt3__17advanceB7v160006INS_16reverse_iteratorIP8InlineTREEllvEEvRT_T0_, symObjAddr: 0x19218, symBinAddr: 0x10001B3A0, symSize: 0x50 }
  - { offsetInCU: 0x277DB, offset: 0x277DB, size: 0x8, addend: 0x0, symName: __ZNSt3__17advanceB7v160006IP3WATllvEEvRT_T0_, symObjAddr: 0x1A76C, symBinAddr: 0x10001C8F4, symSize: 0x50 }
  - { offsetInCU: 0x27A5B, offset: 0x27A5B, size: 0x8, addend: 0x0, symName: __ZNSt3__17advanceB7v160006INS_16reverse_iteratorIP3WATEEllvEEvRT_T0_, symObjAddr: 0x1AB58, symBinAddr: 0x10001CCE0, symSize: 0x50 }
  - { offsetInCU: 0x2D23B, offset: 0x2D23B, size: 0x8, addend: 0x0, symName: __ZNSt3__124__put_character_sequenceB7v160006IcNS_11char_traitsIcEEEERNS_13basic_ostreamIT_T0_EES7_PKS4_m, symObjAddr: 0x24CEC, symBinAddr: 0x100026E74, symSize: 0x1EC }
  - { offsetInCU: 0x31234, offset: 0x31234, size: 0x8, addend: 0x0, symName: __ZNSt3__17advanceB7v160006IPillvEEvRT_T0_, symObjAddr: 0x2CFF8, symBinAddr: 0x10002F180, symSize: 0x50 }
  - { offsetInCU: 0x31805, offset: 0x31805, size: 0x8, addend: 0x0, symName: __ZNSt3__17advanceB7v160006INS_16reverse_iteratorIPNS_12basic_stringIcNS_11char_traitsIcEENS_9allocatorIcEEEEEEllvEEvRT_T0_, symObjAddr: 0x2E930, symBinAddr: 0x100030AB8, symSize: 0x50 }
  - { offsetInCU: 0x33A38, offset: 0x33A38, size: 0x8, addend: 0x0, symName: __ZNSt3__17advanceB7v160006IPNS_12basic_stringIcNS_11char_traitsIcEENS_9allocatorIcEEEEmmvEEvRT_T0_, symObjAddr: 0x310FC, symBinAddr: 0x100033284, symSize: 0x50 }
  - { offsetInCU: 0x35F9D, offset: 0x35F9D, size: 0x8, addend: 0x0, symName: __ZNSt3__17advanceB7v160006IPNS_6vectorIdNS_9allocatorIdEEEEmmvEEvRT_T0_, symObjAddr: 0x35630, symBinAddr: 0x1000377B8, symSize: 0x50 }
  - { offsetInCU: 0x362B8, offset: 0x362B8, size: 0x8, addend: 0x0, symName: __ZNSt3__17advanceB7v160006IPdllvEEvRT_T0_, symObjAddr: 0x36868, symBinAddr: 0x1000389F0, symSize: 0x50 }
  - { offsetInCU: 0x36513, offset: 0x36513, size: 0x8, addend: 0x0, symName: __ZNSt3__17advanceB7v160006IPNS_6vectorIdNS_9allocatorIdEEEEllvEEvRT_T0_, symObjAddr: 0x36B94, symBinAddr: 0x100038D1C, symSize: 0x50 }
  - { offsetInCU: 0x3657E, offset: 0x3657E, size: 0x8, addend: 0x0, symName: __ZNSt3__17advanceB7v160006IPdmmvEEvRT_T0_, symObjAddr: 0x371B4, symBinAddr: 0x10003933C, symSize: 0x50 }
  - { offsetInCU: 0x38EE2, offset: 0x38EE2, size: 0x8, addend: 0x0, symName: __ZNSt3__17advanceB7v160006IPNS_5tupleIJ6Defect11DataEntryEQ5EqlotEEEllvEEvRT_T0_, symObjAddr: 0x3E14C, symBinAddr: 0x1000402D4, symSize: 0x50 }
  - { offsetInCU: 0x39162, offset: 0x39162, size: 0x8, addend: 0x0, symName: __ZNSt3__17advanceB7v160006INS_16reverse_iteratorIPNS_5tupleIJ6Defect11DataEntryEQ5EqlotEEEEEllvEEvRT_T0_, symObjAddr: 0x3E538, symBinAddr: 0x1000406C0, symSize: 0x50 }
  - { offsetInCU: 0x3B9F9, offset: 0x3B9F9, size: 0x8, addend: 0x0, symName: __ZNSt3__17advanceB7v160006IPNS_5tupleIJ8InlineTR11DataEntryEQ5EqlotEEEllvEEvRT_T0_, symObjAddr: 0x4384C, symBinAddr: 0x1000459D4, symSize: 0x50 }
  - { offsetInCU: 0x3BC79, offset: 0x3BC79, size: 0x8, addend: 0x0, symName: __ZNSt3__17advanceB7v160006INS_16reverse_iteratorIPNS_5tupleIJ8InlineTR11DataEntryEQ5EqlotEEEEEllvEEvRT_T0_, symObjAddr: 0x43C38, symBinAddr: 0x100045DC0, symSize: 0x50 }
  - { offsetInCU: 0x3E4EB, offset: 0x3E4EB, size: 0x8, addend: 0x0, symName: __ZNSt3__17advanceB7v160006IPNS_5tupleIJ3WAT8InlineTR11DataEntryEQ5EqlotEEEllvEEvRT_T0_, symObjAddr: 0x49134, symBinAddr: 0x10004B2BC, symSize: 0x50 }
  - { offsetInCU: 0x3E76B, offset: 0x3E76B, size: 0x8, addend: 0x0, symName: __ZNSt3__17advanceB7v160006INS_16reverse_iteratorIPNS_5tupleIJ3WAT8InlineTR11DataEntryEQ5EqlotEEEEEllvEEvRT_T0_, symObjAddr: 0x49520, symBinAddr: 0x10004B6A8, symSize: 0x50 }
  - { offsetInCU: 0x3FB11, offset: 0x3FB11, size: 0x8, addend: 0x0, symName: __ZNSt3__1neB7v160006ERKNS_19__hash_map_iteratorINS_15__hash_iteratorIPNS_11__hash_nodeINS_17__hash_value_typeINS_12basic_stringIcNS_11char_traitsIcEENS_9allocatorIcEEEEbEEPvEEEEEESH_, symObjAddr: 0x630, symBinAddr: 0x1000027B8, symSize: 0x30 }
  - { offsetInCU: 0x3FB4E, offset: 0x3FB4E, size: 0x8, addend: 0x0, symName: __ZNSt3__1lsB7v160006INS_11char_traitsIcEEEERNS_13basic_ostreamIcT_EES6_PKc, symObjAddr: 0x6C4, symBinAddr: 0x10000284C, symSize: 0x48 }
  - { offsetInCU: 0x3FB94, offset: 0x3FB94, size: 0x8, addend: 0x0, symName: __ZNSt3__1lsB7v160006IcNS_11char_traitsIcEENS_9allocatorIcEEEERNS_13basic_ostreamIT_T0_EES9_RKNS_12basic_stringIS6_S7_T1_EE, symObjAddr: 0x70C, symBinAddr: 0x100002894, symSize: 0x4C }
  - { offsetInCU: 0x3FBEC, offset: 0x3FBEC, size: 0x8, addend: 0x0, symName: __ZNSt3__14endlB7v160006IcNS_11char_traitsIcEEEERNS_13basic_ostreamIT_T0_EES7_, symObjAddr: 0x784, symBinAddr: 0x10000290C, symSize: 0x58 }
  - { offsetInCU: 0x40625, offset: 0x40625, size: 0x8, addend: 0x0, symName: __ZNSt3__1neB7v160006ERKNS_19__hash_map_iteratorINS_15__hash_iteratorIPNS_11__hash_nodeINS_17__hash_value_typeINS_12basic_stringIcNS_11char_traitsIcEENS_9allocatorIcEEEEiEEPvEEEEEESH_, symObjAddr: 0x9CC, symBinAddr: 0x100002B54, symSize: 0x30 }
  - { offsetInCU: 0x40662, offset: 0x40662, size: 0x8, addend: 0x0, symName: __ZNSt3__1neB7v160006IPNS_12basic_stringIcNS_11char_traitsIcEENS_9allocatorIcEEEEEEbRKNS_11__wrap_iterIT_EESC_, symObjAddr: 0x1358, symBinAddr: 0x1000034E0, symSize: 0x34 }
  - { offsetInCU: 0x406A5, offset: 0x406A5, size: 0x8, addend: 0x0, symName: __ZNSt3__1eqB7v160006INS_9allocatorIcEEEEbRKNS_12basic_stringIcNS_11char_traitsIcEET_EES9_, symObjAddr: 0x13A4, symBinAddr: 0x10000352C, symSize: 0x148 }
  - { offsetInCU: 0x40718, offset: 0x40718, size: 0x8, addend: 0x0, symName: '__ZNSt3__14sortB7v160006INS_11__wrap_iterIPNS_4pairINS_12basic_stringIcNS_11char_traitsIcEENS_9allocatorIcEEEEiEEEEZ25handle_sort_remove_uniqueRNS_6vectorIS9_NS6_IS9_EEEEE3$_0EEvT_SH_T0_', symObjAddr: 0x1758, symBinAddr: 0x1000038E0, symSize: 0x40 }
  - { offsetInCU: 0x40772, offset: 0x40772, size: 0x8, addend: 0x0, symName: __ZNSt3__16uniqueB7v160006INS_11__wrap_iterIPNS_4pairINS_12basic_stringIcNS_11char_traitsIcEENS_9allocatorIcEEEEiEEEEEET_SC_SC_, symObjAddr: 0x17F8, symBinAddr: 0x100003980, symSize: 0x44 }
  - { offsetInCU: 0x407D1, offset: 0x407D1, size: 0x8, addend: 0x0, symName: __ZNSt3__1neB7v160006IPKNS_12basic_stringIcNS_11char_traitsIcEENS_9allocatorIcEEEEEEbRKNS_11__wrap_iterIT_EESD_, symObjAddr: 0x1ABC, symBinAddr: 0x100003C44, symSize: 0x34 }
  - { offsetInCU: 0x40814, offset: 0x40814, size: 0x8, addend: 0x0, symName: __ZNSt3__1lsB7v160006INS_11char_traitsIcEEEERNS_13basic_ostreamIcT_EES6_c, symObjAddr: 0x1B54, symBinAddr: 0x100003CDC, symSize: 0x34 }
  - { offsetInCU: 0x4085A, offset: 0x4085A, size: 0x8, addend: 0x0, symName: __ZNSt3__1neB7v160006IPNS_5tupleIJ8InlineTR11DataEntryEQ5EqlotEEEEEbRKNS_11__wrap_iterIT_EESB_, symObjAddr: 0x1F48, symBinAddr: 0x1000040D0, symSize: 0x34 }
  - { offsetInCU: 0x4089D, offset: 0x4089D, size: 0x8, addend: 0x0, symName: __ZNSt3__13getB7v160006ILm0EJ8InlineTR11DataEntryEQ5EqlotEEERKNS_13tuple_elementIXT_ENS_5tupleIJDpT0_EEEE4typeERKS8_, symObjAddr: 0x1F94, symBinAddr: 0x10000411C, symSize: 0x24 }
  - { offsetInCU: 0x408EA, offset: 0x408EA, size: 0x8, addend: 0x0, symName: __ZNSt3__13getB7v160006ILm1EJ8InlineTR11DataEntryEQ5EqlotEEERKNS_13tuple_elementIXT_ENS_5tupleIJDpT0_EEEE4typeERKS8_, symObjAddr: 0x1FB8, symBinAddr: 0x100004140, symSize: 0x28 }
  - { offsetInCU: 0x40937, offset: 0x40937, size: 0x8, addend: 0x0, symName: __ZNSt3__13getB7v160006ILm2EJ8InlineTR11DataEntryEQ5EqlotEEERKNS_13tuple_elementIXT_ENS_5tupleIJDpT0_EEEE4typeERKS8_, symObjAddr: 0x1FE0, symBinAddr: 0x100004168, symSize: 0x28 }
  - { offsetInCU: 0x4236A, offset: 0x4236A, size: 0x8, addend: 0x0, symName: __ZNSt3__1neB7v160006IPNS_5tupleIJ3WAT11DataEntryEQ8InlineTR5EqlotEEEEEbRKNS_11__wrap_iterIT_EESC_, symObjAddr: 0x2480, symBinAddr: 0x100004608, symSize: 0x34 }
  - { offsetInCU: 0x423AD, offset: 0x423AD, size: 0x8, addend: 0x0, symName: __ZNSt3__13getB7v160006ILm0EJ3WAT11DataEntryEQ8InlineTR5EqlotEEERKNS_13tuple_elementIXT_ENS_5tupleIJDpT0_EEEE4typeERKS9_, symObjAddr: 0x24CC, symBinAddr: 0x100004654, symSize: 0x24 }
  - { offsetInCU: 0x423FF, offset: 0x423FF, size: 0x8, addend: 0x0, symName: __ZNSt3__13getB7v160006ILm1EJ3WAT11DataEntryEQ8InlineTR5EqlotEEERKNS_13tuple_elementIXT_ENS_5tupleIJDpT0_EEEE4typeERKS9_, symObjAddr: 0x24F0, symBinAddr: 0x100004678, symSize: 0x28 }
  - { offsetInCU: 0x42451, offset: 0x42451, size: 0x8, addend: 0x0, symName: __ZNSt3__13getB7v160006ILm2EJ3WAT11DataEntryEQ8InlineTR5EqlotEEERKNS_13tuple_elementIXT_ENS_5tupleIJDpT0_EEEE4typeERKS9_, symObjAddr: 0x2518, symBinAddr: 0x1000046A0, symSize: 0x28 }
  - { offsetInCU: 0x424A3, offset: 0x424A3, size: 0x8, addend: 0x0, symName: __ZNSt3__13getB7v160006ILm3EJ3WAT11DataEntryEQ8InlineTR5EqlotEEERKNS_13tuple_elementIXT_ENS_5tupleIJDpT0_EEEE4typeERKS9_, symObjAddr: 0x2540, symBinAddr: 0x1000046C8, symSize: 0x28 }
  - { offsetInCU: 0x424F5, offset: 0x424F5, size: 0x8, addend: 0x0, symName: __ZNSt3__1neB7v160006IPNS_5tupleIJ6Defect11DataEntryEQ5EqlotEEEEEbRKNS_11__wrap_iterIT_EESB_, symObjAddr: 0x28E8, symBinAddr: 0x100004A70, symSize: 0x34 }
  - { offsetInCU: 0x42538, offset: 0x42538, size: 0x8, addend: 0x0, symName: __ZNSt3__13getB7v160006ILm0EJ6Defect11DataEntryEQ5EqlotEEERKNS_13tuple_elementIXT_ENS_5tupleIJDpT0_EEEE4typeERKS8_, symObjAddr: 0x2934, symBinAddr: 0x100004ABC, symSize: 0x24 }
  - { offsetInCU: 0x42585, offset: 0x42585, size: 0x8, addend: 0x0, symName: __ZNSt3__13getB7v160006ILm1EJ6Defect11DataEntryEQ5EqlotEEERKNS_13tuple_elementIXT_ENS_5tupleIJDpT0_EEEE4typeERKS8_, symObjAddr: 0x2958, symBinAddr: 0x100004AE0, symSize: 0x28 }
  - { offsetInCU: 0x425D2, offset: 0x425D2, size: 0x8, addend: 0x0, symName: __ZNSt3__13getB7v160006ILm2EJ6Defect11DataEntryEQ5EqlotEEERKNS_13tuple_elementIXT_ENS_5tupleIJDpT0_EEEE4typeERKS8_, symObjAddr: 0x2980, symBinAddr: 0x100004B08, symSize: 0x28 }
  - { offsetInCU: 0x4261F, offset: 0x4261F, size: 0x8, addend: 0x0, symName: __ZNSt3__1neB7v160006IPNS_5tupleIJ3WAT8InlineTR11DataEntryEQ5EqlotEEEEEbRKNS_11__wrap_iterIT_EESC_, symObjAddr: 0x3048, symBinAddr: 0x1000051D0, symSize: 0x34 }
  - { offsetInCU: 0x42662, offset: 0x42662, size: 0x8, addend: 0x0, symName: __ZNSt3__13getB7v160006ILm0EJ3WAT8InlineTR11DataEntryEQ5EqlotEEERKNS_13tuple_elementIXT_ENS_5tupleIJDpT0_EEEE4typeERKS9_, symObjAddr: 0x3094, symBinAddr: 0x10000521C, symSize: 0x24 }
  - { offsetInCU: 0x426B4, offset: 0x426B4, size: 0x8, addend: 0x0, symName: __ZNSt3__13getB7v160006ILm1EJ3WAT8InlineTR11DataEntryEQ5EqlotEEERKNS_13tuple_elementIXT_ENS_5tupleIJDpT0_EEEE4typeERKS9_, symObjAddr: 0x30B8, symBinAddr: 0x100005240, symSize: 0x28 }
  - { offsetInCU: 0x42706, offset: 0x42706, size: 0x8, addend: 0x0, symName: __ZNSt3__13getB7v160006ILm2EJ3WAT8InlineTR11DataEntryEQ5EqlotEEERKNS_13tuple_elementIXT_ENS_5tupleIJDpT0_EEEE4typeERKS9_, symObjAddr: 0x30E0, symBinAddr: 0x100005268, symSize: 0x28 }
  - { offsetInCU: 0x42758, offset: 0x42758, size: 0x8, addend: 0x0, symName: __ZNSt3__13getB7v160006ILm3EJ3WAT8InlineTR11DataEntryEQ5EqlotEEERKNS_13tuple_elementIXT_ENS_5tupleIJDpT0_EEEE4typeERKS9_, symObjAddr: 0x3108, symBinAddr: 0x100005290, symSize: 0x28 }
  - { offsetInCU: 0x45E05, offset: 0x45E05, size: 0x8, addend: 0x0, symName: __ZNSt3__1eqB7v160006IcNS_11char_traitsIcEENS_9allocatorIcEEEEbRKNS_12basic_stringIT_T0_T1_EEPKS6_, symObjAddr: 0x7B30, symBinAddr: 0x100009CB8, symSize: 0x5C }
  - { offsetInCU: 0x45E5D, offset: 0x45E5D, size: 0x8, addend: 0x0, symName: __ZNSt3__13getB7v160006ILm0EJ3WAT8InlineTR11DataEntryEQ5EqlotEEERNS_13tuple_elementIXT_ENS_5tupleIJDpT0_EEEE4typeERS9_, symObjAddr: 0x7B8C, symBinAddr: 0x100009D14, symSize: 0x24 }
  - { offsetInCU: 0x45EBA, offset: 0x45EBA, size: 0x8, addend: 0x0, symName: __ZNSt3__119__debug_db_insert_cB7v160006INS_12basic_stringIcNS_11char_traitsIcEENS_9allocatorIcEEEEEEvPT_, symObjAddr: 0x82BC, symBinAddr: 0x10000A444, symSize: 0x10 }
  - { offsetInCU: 0x45EEB, offset: 0x45EEB, size: 0x8, addend: 0x0, symName: __ZNSt3__118__constexpr_strlenB7v160006EPKc, symObjAddr: 0x8388, symBinAddr: 0x10000A510, symSize: 0x24 }
  - { offsetInCU: 0x45F17, offset: 0x45F17, size: 0x8, addend: 0x0, symName: __ZNSt3__122__make_exception_guardB7v160006INS_6vectorINS_12basic_stringIcNS_11char_traitsIcEENS_9allocatorIcEEEENS5_IS7_EEE16__destroy_vectorEEENS_28__exception_guard_exceptionsIT_EESC_, symObjAddr: 0x8518, symBinAddr: 0x10000A6A0, symSize: 0x40 }
  - { offsetInCU: 0x45F4C, offset: 0x45F4C, size: 0x8, addend: 0x0, symName: __ZNSt3__119__debug_db_insert_cB7v160006INS_6vectorINS_12basic_stringIcNS_11char_traitsIcEENS_9allocatorIcEEEENS5_IS7_EEEEEEvPT_, symObjAddr: 0x858C, symBinAddr: 0x10000A714, symSize: 0x10 }
  - { offsetInCU: 0x45F7D, offset: 0x45F7D, size: 0x8, addend: 0x0, symName: __ZNSt3__119__allocate_at_leastB7v160006INS_9allocatorINS_12basic_stringIcNS_11char_traitsIcEENS1_IcEEEEEEEENS_19__allocation_resultINS_16allocator_traitsIT_E7pointerEEERSA_m, symObjAddr: 0x8938, symBinAddr: 0x10000AAC0, symSize: 0x40 }
  - { offsetInCU: 0x45FC0, offset: 0x45FC0, size: 0x8, addend: 0x0, symName: __ZNSt3__13minB7v160006ImEERKT_S3_S3_, symObjAddr: 0x8A90, symBinAddr: 0x10000AC18, symSize: 0x2C }
  - { offsetInCU: 0x461EF, offset: 0x461EF, size: 0x8, addend: 0x0, symName: __ZNSt3__13minB7v160006ImNS_6__lessImmEEEERKT_S5_S5_T0_, symObjAddr: 0x8B20, symBinAddr: 0x10000ACA8, symSize: 0x54 }
  - { offsetInCU: 0x46285, offset: 0x46285, size: 0x8, addend: 0x0, symName: __ZNSt3__120__throw_length_errorB7v160006EPKc, symObjAddr: 0x8C04, symBinAddr: 0x10000AD8C, symSize: 0x64 }
  - { offsetInCU: 0x462AC, offset: 0x462AC, size: 0x8, addend: 0x0, symName: __ZNSt3__117__libcpp_allocateB7v160006Emm, symObjAddr: 0x8D78, symBinAddr: 0x10000AF00, symSize: 0x60 }
  - { offsetInCU: 0x46307, offset: 0x46307, size: 0x8, addend: 0x0, symName: __ZNSt3__124__is_overaligned_for_newB7v160006Em, symObjAddr: 0x8DD8, symBinAddr: 0x10000AF60, symSize: 0x20 }
  - { offsetInCU: 0x46334, offset: 0x46334, size: 0x8, addend: 0x0, symName: __ZNSt3__121__libcpp_operator_newB7v160006IJmSt11align_val_tEEEPvDpT_, symObjAddr: 0x8DF8, symBinAddr: 0x10000AF80, symSize: 0x2C }
  - { offsetInCU: 0x46381, offset: 0x46381, size: 0x8, addend: 0x0, symName: __ZNSt3__121__libcpp_operator_newB7v160006IJmEEEPvDpT_, symObjAddr: 0x8E24, symBinAddr: 0x10000AFAC, symSize: 0x24 }
  - { offsetInCU: 0x463BB, offset: 0x463BB, size: 0x8, addend: 0x0, symName: __ZNSt3__112__to_addressB7v160006INS_12basic_stringIcNS_11char_traitsIcEENS_9allocatorIcEEEEEEPT_S8_, symObjAddr: 0x8F40, symBinAddr: 0x10000B0C8, symSize: 0x14 }
  - { offsetInCU: 0x463EF, offset: 0x463EF, size: 0x8, addend: 0x0, symName: __ZNSt3__130__uninitialized_allocator_copyB7v160006INS_9allocatorINS_12basic_stringIcNS_11char_traitsIcEENS1_IcEEEEEEPKS6_S9_PS6_EET2_RT_T0_T1_SB_, symObjAddr: 0x8FF0, symBinAddr: 0x10000B178, symSize: 0xF4 }
  - { offsetInCU: 0x4648D, offset: 0x4648D, size: 0x8, addend: 0x0, symName: __ZNSt3__122__make_exception_guardB7v160006INS_29_AllocatorDestroyRangeReverseINS_9allocatorINS_12basic_stringIcNS_11char_traitsIcEENS2_IcEEEEEEPS7_EEEENS_28__exception_guard_exceptionsIT_EESC_, symObjAddr: 0x915C, symBinAddr: 0x10000B2E4, symSize: 0x4C }
  - { offsetInCU: 0x464EA, offset: 0x464EA, size: 0x8, addend: 0x0, symName: __ZNSt3__112construct_atB7v160006INS_12basic_stringIcNS_11char_traitsIcEENS_9allocatorIcEEEEJRKS6_EPS6_EEPT_SB_DpOT0_, symObjAddr: 0x9300, symBinAddr: 0x10000B488, symSize: 0x3C }
  - { offsetInCU: 0x4655D, offset: 0x4655D, size: 0x8, addend: 0x0, symName: __ZNSt3__119__allocator_destroyB7v160006INS_9allocatorINS_12basic_stringIcNS_11char_traitsIcEENS1_IcEEEEEENS_16reverse_iteratorIPS6_EESA_EEvRT_T0_T1_, symObjAddr: 0x93F4, symBinAddr: 0x10000B57C, symSize: 0x70 }
  - { offsetInCU: 0x465C0, offset: 0x465C0, size: 0x8, addend: 0x0, symName: __ZNSt3__1neB7v160006IPNS_12basic_stringIcNS_11char_traitsIcEENS_9allocatorIcEEEES7_EEbRKNS_16reverse_iteratorIT_EERKNS8_IT0_EE, symObjAddr: 0x9498, symBinAddr: 0x10000B620, symSize: 0x48 }
  - { offsetInCU: 0x4660C, offset: 0x4660C, size: 0x8, addend: 0x0, symName: __ZNSt3__112__to_addressB7v160006INS_16reverse_iteratorIPNS_12basic_stringIcNS_11char_traitsIcEENS_9allocatorIcEEEEEEvEENS_5decayIDTclsr19__to_address_helperIT_EE6__callclsr3stdE7declvalIRKSB_EEEEE4typeESD_, symObjAddr: 0x9508, symBinAddr: 0x10000B690, symSize: 0x24 }
  - { offsetInCU: 0x46642, offset: 0x46642, size: 0x8, addend: 0x0, symName: __ZNSt3__110destroy_atB7v160006INS_12basic_stringIcNS_11char_traitsIcEENS_9allocatorIcEEEELi0EEEvPT_, symObjAddr: 0x9564, symBinAddr: 0x10000B6EC, symSize: 0x24 }
  - { offsetInCU: 0x46679, offset: 0x46679, size: 0x8, addend: 0x0, symName: __ZNSt3__112__destroy_atB7v160006INS_12basic_stringIcNS_11char_traitsIcEENS_9allocatorIcEEEELi0EEEvPT_, symObjAddr: 0x9588, symBinAddr: 0x10000B710, symSize: 0x24 }
  - { offsetInCU: 0x466DA, offset: 0x466DA, size: 0x8, addend: 0x0, symName: __ZNSt3__14prevB7v160006IPNS_12basic_stringIcNS_11char_traitsIcEENS_9allocatorIcEEEEEENS_9enable_ifIXsr25__is_cpp17_input_iteratorIT_EE5valueES9_E4typeES9_NS_15iterator_traitsIS9_E15difference_typeE, symObjAddr: 0x9610, symBinAddr: 0x10000B798, symSize: 0x50 }
  - { offsetInCU: 0x4671E, offset: 0x4671E, size: 0x8, addend: 0x0, symName: __ZNSt3__121__convert_to_integralB7v160006El, symObjAddr: 0x96B0, symBinAddr: 0x10000B838, symSize: 0x14 }
  - { offsetInCU: 0x46749, offset: 0x46749, size: 0x8, addend: 0x0, symName: __ZNSt3__19__advanceB7v160006IPNS_12basic_stringIcNS_11char_traitsIcEENS_9allocatorIcEEEEEEvRT_NS_15iterator_traitsIS8_E15difference_typeENS_26random_access_iterator_tagE, symObjAddr: 0x96C4, symBinAddr: 0x10000B84C, symSize: 0x30 }
  - { offsetInCU: 0x46793, offset: 0x46793, size: 0x8, addend: 0x0, symName: __ZNSt3__118__debug_db_erase_cB7v160006INS_6vectorINS_12basic_stringIcNS_11char_traitsIcEENS_9allocatorIcEEEENS5_IS7_EEEEEEvPT_, symObjAddr: 0x98FC, symBinAddr: 0x10000BA84, symSize: 0x10 }
  - { offsetInCU: 0x467C5, offset: 0x467C5, size: 0x8, addend: 0x0, symName: __ZNSt3__119__libcpp_deallocateB7v160006EPvmm, symObjAddr: 0x9A60, symBinAddr: 0x10000BBE8, symSize: 0x60 }
  - { offsetInCU: 0x4682B, offset: 0x4682B, size: 0x8, addend: 0x0, symName: __ZNSt3__127__do_deallocate_handle_sizeB7v160006IJSt11align_val_tEEEvPvmDpT_, symObjAddr: 0x9AC0, symBinAddr: 0x10000BC48, symSize: 0x30 }
  - { offsetInCU: 0x4687F, offset: 0x4687F, size: 0x8, addend: 0x0, symName: __ZNSt3__127__do_deallocate_handle_sizeB7v160006IJEEEvPvmDpT_, symObjAddr: 0x9AF0, symBinAddr: 0x10000BC78, symSize: 0x28 }
  - { offsetInCU: 0x468BE, offset: 0x468BE, size: 0x8, addend: 0x0, symName: __ZNSt3__124__libcpp_operator_deleteB7v160006IJPvSt11align_val_tEEEvDpT_, symObjAddr: 0x9B18, symBinAddr: 0x10000BCA0, symSize: 0x2C }
  - { offsetInCU: 0x46908, offset: 0x46908, size: 0x8, addend: 0x0, symName: __ZNSt3__124__libcpp_operator_deleteB7v160006IJPvEEEvDpT_, symObjAddr: 0x9B44, symBinAddr: 0x10000BCCC, symSize: 0x24 }
  - { offsetInCU: 0x4693E, offset: 0x4693E, size: 0x8, addend: 0x0, symName: __ZNSt3__112__to_addressB7v160006IcEEPT_S2_, symObjAddr: 0xA028, symBinAddr: 0x10000C1B0, symSize: 0x14 }
  - { offsetInCU: 0x46973, offset: 0x46973, size: 0x8, addend: 0x0, symName: __ZNSt3__112__to_addressB7v160006IiEEPT_S2_, symObjAddr: 0xA3D4, symBinAddr: 0x10000C55C, symSize: 0x14 }
  - { offsetInCU: 0x469CF, offset: 0x469CF, size: 0x8, addend: 0x0, symName: __ZNSt3__112construct_atB7v160006IiJRKiEPiEEPT_S5_DpOT0_, symObjAddr: 0xA458, symBinAddr: 0x10000C5E0, symSize: 0x2C }
  - { offsetInCU: 0x46A40, offset: 0x46A40, size: 0x8, addend: 0x0, symName: __ZNSt3__13maxB7v160006ImEERKT_S3_S3_, symObjAddr: 0xA7D4, symBinAddr: 0x10000C95C, symSize: 0x2C }
  - { offsetInCU: 0x46A83, offset: 0x46A83, size: 0x8, addend: 0x0, symName: __ZNSt3__13maxB7v160006ImNS_6__lessImmEEEERKT_S5_S5_T0_, symObjAddr: 0xA8E8, symBinAddr: 0x10000CA70, symSize: 0x54 }
  - { offsetInCU: 0x46ADD, offset: 0x46ADD, size: 0x8, addend: 0x0, symName: __ZNSt3__119__allocate_at_leastB7v160006INS_9allocatorIiEEEENS_19__allocation_resultINS_16allocator_traitsIT_E7pointerEEERS5_m, symObjAddr: 0xAA4C, symBinAddr: 0x10000CBD4, symSize: 0x40 }
  - { offsetInCU: 0x46B20, offset: 0x46B20, size: 0x8, addend: 0x0, symName: __ZNSt3__142__uninitialized_allocator_move_if_noexceptB7v160006INS_9allocatorIiEENS_16reverse_iteratorIPiEES5_ivEET1_RT_T0_S9_S6_, symObjAddr: 0xACD4, symBinAddr: 0x10000CE5C, symSize: 0x78 }
  - { offsetInCU: 0x46B9F, offset: 0x46B9F, size: 0x8, addend: 0x0, symName: __ZNSt3__14swapB7v160006IPiEENS_9enable_ifIXaasr21is_move_constructibleIT_EE5valuesr18is_move_assignableIS3_EE5valueEvE4typeERS3_S6_, symObjAddr: 0xAD98, symBinAddr: 0x10000CF20, symSize: 0x3C }
  - { offsetInCU: 0x46BEF, offset: 0x46BEF, size: 0x8, addend: 0x0, symName: __ZNSt3__125__debug_db_invalidate_allB7v160006INS_6vectorIiNS_9allocatorIiEEEEEEvPT_, symObjAddr: 0xAE80, symBinAddr: 0x10000D008, symSize: 0x10 }
  - { offsetInCU: 0x46C20, offset: 0x46C20, size: 0x8, addend: 0x0, symName: __ZNSt3__14moveB7v160006INS_16reverse_iteratorIPiEES3_EET0_T_S5_S4_, symObjAddr: 0xAED8, symBinAddr: 0x10000D060, symSize: 0x78 }
  - { offsetInCU: 0x46C7A, offset: 0x46C7A, size: 0x8, addend: 0x0, symName: __ZNSt3__16__moveB7v160006INS_17_ClassicAlgPolicyENS_16reverse_iteratorIPiEES4_S4_EENS_4pairIT0_T2_EES6_T1_S7_, symObjAddr: 0xAF50, symBinAddr: 0x10000D0D8, symSize: 0x64 }
  - { offsetInCU: 0x46CE6, offset: 0x46CE6, size: 0x8, addend: 0x0, symName: __ZNSt3__123__dispatch_copy_or_moveB7v160006INS_17_ClassicAlgPolicyENS_11__move_loopIS1_EENS_14__move_trivialENS_16reverse_iteratorIPiEES7_S7_EENS_4pairIT2_T4_EES9_T3_SA_, symObjAddr: 0xAFB4, symBinAddr: 0x10000D13C, symSize: 0x64 }
  - { offsetInCU: 0x46D64, offset: 0x46D64, size: 0x8, addend: 0x0, symName: __ZNSt3__121__unwrap_and_dispatchB7v160006INS_10__overloadINS_11__move_loopINS_17_ClassicAlgPolicyEEENS_14__move_trivialEEENS_16reverse_iteratorIPiEES9_S9_Li0EEENS_4pairIT0_T2_EESB_T1_SC_, symObjAddr: 0xB018, symBinAddr: 0x10000D1A0, symSize: 0x12C }
  - { offsetInCU: 0x46DF4, offset: 0x46DF4, size: 0x8, addend: 0x0, symName: __ZNSt3__114__unwrap_rangeB7v160006INS_16reverse_iteratorIPiEES3_EEDaT_T0_, symObjAddr: 0xB144, symBinAddr: 0x10000D2CC, symSize: 0x4C }
  - { offsetInCU: 0x46FED, offset: 0x46FED, size: 0x8, addend: 0x0, symName: __ZNSt3__113__unwrap_iterB7v160006INS_16reverse_iteratorIPiEENS_18__unwrap_iter_implIS3_Lb0EEELi0EEEDTclsrT0_8__unwrapclsr3stdE7declvalIT_EEEES7_, symObjAddr: 0xB230, symBinAddr: 0x10000D3B8, symSize: 0x44 }
  - { offsetInCU: 0x47031, offset: 0x47031, size: 0x8, addend: 0x0, symName: __ZNSt3__19make_pairB7v160006INS_16reverse_iteratorIPiEES3_EENS_4pairINS_18__unwrap_ref_decayIT_E4typeENS5_IT0_E4typeEEEOS6_OS9_, symObjAddr: 0xB274, symBinAddr: 0x10000D3FC, symSize: 0x38 }
  - { offsetInCU: 0x47080, offset: 0x47080, size: 0x8, addend: 0x0, symName: __ZNSt3__114__rewrap_rangeB7v160006INS_16reverse_iteratorIPiEES3_S3_EET0_S4_T1_, symObjAddr: 0xB2AC, symBinAddr: 0x10000D434, symSize: 0x5C }
  - { offsetInCU: 0x470D5, offset: 0x470D5, size: 0x8, addend: 0x0, symName: __ZNSt3__113__rewrap_iterB7v160006INS_16reverse_iteratorIPiEES3_NS_18__unwrap_iter_implIS3_Lb0EEEEET_S6_T0_, symObjAddr: 0xB308, symBinAddr: 0x10000D490, symSize: 0x74 }
  - { offsetInCU: 0x4717A, offset: 0x4717A, size: 0x8, addend: 0x0, symName: __ZNSt3__1neB7v160006IPiS1_EEbRKNS_16reverse_iteratorIT_EERKNS2_IT0_EE, symObjAddr: 0xB470, symBinAddr: 0x10000D5F8, symSize: 0x48 }
  - { offsetInCU: 0x4735C, offset: 0x4735C, size: 0x8, addend: 0x0, symName: __ZNSt3__110destroy_atB7v160006IiLi0EEEvPT_, symObjAddr: 0xB7FC, symBinAddr: 0x10000D984, symSize: 0x24 }
  - { offsetInCU: 0x47393, offset: 0x47393, size: 0x8, addend: 0x0, symName: __ZNSt3__112__destroy_atB7v160006IiLi0EEEvPT_, symObjAddr: 0xB820, symBinAddr: 0x10000D9A8, symSize: 0x10 }
  - { offsetInCU: 0x473CA, offset: 0x473CA, size: 0x8, addend: 0x0, symName: __ZNSt3__130__uninitialized_allocator_copyB7v160006INS_9allocatorINS_12basic_stringIcNS_11char_traitsIcEENS1_IcEEEEEEPS6_S8_S8_EET2_RT_T0_T1_S9_, symObjAddr: 0xBB90, symBinAddr: 0x10000DD18, symSize: 0xF4 }
  - { offsetInCU: 0x47468, offset: 0x47468, size: 0x8, addend: 0x0, symName: __ZNSt3__112construct_atB7v160006INS_12basic_stringIcNS_11char_traitsIcEENS_9allocatorIcEEEEJRS6_EPS6_EEPT_SA_DpOT0_, symObjAddr: 0xBCB4, symBinAddr: 0x10000DE3C, symSize: 0x3C }
  - { offsetInCU: 0x474DA, offset: 0x474DA, size: 0x8, addend: 0x0, symName: __ZNSt3__1eqB7v160006IPNS_12basic_stringIcNS_11char_traitsIcEENS_9allocatorIcEEEEEEbRKNS_11__wrap_iterIT_EESC_, symObjAddr: 0xBD84, symBinAddr: 0x10000DF0C, symSize: 0x48 }
  - { offsetInCU: 0x4751E, offset: 0x4751E, size: 0x8, addend: 0x0, symName: __ZNSt3__112__to_addressB7v160006IKcEEPT_S3_, symObjAddr: 0xBE78, symBinAddr: 0x10000E000, symSize: 0x14 }
  - { offsetInCU: 0x47585, offset: 0x47585, size: 0x8, addend: 0x0, symName: __ZNSt3__118__constexpr_memcmpB7v160006IcEEiPKT_S3_m, symObjAddr: 0xBF44, symBinAddr: 0x10000E0CC, symSize: 0x34 }
  - { offsetInCU: 0x475D7, offset: 0x475D7, size: 0x8, addend: 0x0, symName: __ZNSt3__112__to_addressB7v160006INS_4pairINS_12basic_stringIcNS_11char_traitsIcEENS_9allocatorIcEEEEiEEEEPT_SA_, symObjAddr: 0xC1D4, symBinAddr: 0x10000E35C, symSize: 0x14 }
  - { offsetInCU: 0x47632, offset: 0x47632, size: 0x8, addend: 0x0, symName: __ZNSt3__112construct_atB7v160006INS_4pairINS_12basic_stringIcNS_11char_traitsIcEENS_9allocatorIcEEEEiEEJS8_EPS8_EEPT_SB_DpOT0_, symObjAddr: 0xC258, symBinAddr: 0x10000E3E0, symSize: 0x3C }
  - { offsetInCU: 0x476A4, offset: 0x476A4, size: 0x8, addend: 0x0, symName: __ZNSt3__115__debug_db_swapB7v160006INS_12basic_stringIcNS_11char_traitsIcEENS_9allocatorIcEEEEEEvPT_S8_, symObjAddr: 0xC3BC, symBinAddr: 0x10000E544, symSize: 0x14 }
  - { offsetInCU: 0x476E3, offset: 0x476E3, size: 0x8, addend: 0x0, symName: __ZNSt3__119__allocate_at_leastB7v160006INS_9allocatorINS_4pairINS_12basic_stringIcNS_11char_traitsIcEENS1_IcEEEEiEEEEEENS_19__allocation_resultINS_16allocator_traitsIT_E7pointerEEERSC_m, symObjAddr: 0xC940, symBinAddr: 0x10000EAC8, symSize: 0x40 }
  - { offsetInCU: 0x47726, offset: 0x47726, size: 0x8, addend: 0x0, symName: __ZNSt3__142__uninitialized_allocator_move_if_noexceptB7v160006INS_9allocatorINS_4pairINS_12basic_stringIcNS_11char_traitsIcEENS1_IcEEEEiEEEENS_16reverse_iteratorIPS8_EESC_SC_EET2_RT_T0_T1_SD_, symObjAddr: 0xCBC8, symBinAddr: 0x10000ED50, symSize: 0x12C }
  - { offsetInCU: 0x477C7, offset: 0x477C7, size: 0x8, addend: 0x0, symName: __ZNSt3__14swapB7v160006IPNS_4pairINS_12basic_stringIcNS_11char_traitsIcEENS_9allocatorIcEEEEiEEEENS_9enable_ifIXaasr21is_move_constructibleIT_EE5valuesr18is_move_assignableISB_EE5valueEvE4typeERSB_SE_, symObjAddr: 0xCD40, symBinAddr: 0x10000EEC8, symSize: 0x3C }
  - { offsetInCU: 0x47817, offset: 0x47817, size: 0x8, addend: 0x0, symName: __ZNSt3__125__debug_db_invalidate_allB7v160006INS_6vectorINS_4pairINS_12basic_stringIcNS_11char_traitsIcEENS_9allocatorIcEEEEiEENS6_IS9_EEEEEEvPT_, symObjAddr: 0xCE28, symBinAddr: 0x10000EFB0, symSize: 0x10 }
  - { offsetInCU: 0x47848, offset: 0x47848, size: 0x8, addend: 0x0, symName: __ZNSt3__122__make_exception_guardB7v160006INS_29_AllocatorDestroyRangeReverseINS_9allocatorINS_4pairINS_12basic_stringIcNS_11char_traitsIcEENS2_IcEEEEiEEEENS_16reverse_iteratorIPS9_EEEEEENS_28__exception_guard_exceptionsIT_EESG_, symObjAddr: 0xCE80, symBinAddr: 0x10000F008, symSize: 0x4C }
  - { offsetInCU: 0x4787E, offset: 0x4787E, size: 0x8, addend: 0x0, symName: __ZNSt3__1neB7v160006IPNS_4pairINS_12basic_stringIcNS_11char_traitsIcEENS_9allocatorIcEEEEiEES9_EEbRKNS_16reverse_iteratorIT_EERKNSA_IT0_EE, symObjAddr: 0xCF10, symBinAddr: 0x10000F098, symSize: 0x48 }
  - { offsetInCU: 0x478CA, offset: 0x478CA, size: 0x8, addend: 0x0, symName: __ZNSt3__112__to_addressB7v160006INS_16reverse_iteratorIPNS_4pairINS_12basic_stringIcNS_11char_traitsIcEENS_9allocatorIcEEEEiEEEEvEENS_5decayIDTclsr19__to_address_helperIT_EE6__callclsr3stdE7declvalIRKSD_EEEEE4typeESF_, symObjAddr: 0xCF58, symBinAddr: 0x10000F0E0, symSize: 0x24 }
  - { offsetInCU: 0x4792A, offset: 0x4792A, size: 0x8, addend: 0x0, symName: __ZNSt3__14prevB7v160006IPNS_4pairINS_12basic_stringIcNS_11char_traitsIcEENS_9allocatorIcEEEEiEEEENS_9enable_ifIXsr25__is_cpp17_input_iteratorIT_EE5valueESB_E4typeESB_NS_15iterator_traitsISB_E15difference_typeE, symObjAddr: 0xD10C, symBinAddr: 0x10000F294, symSize: 0x50 }
  - { offsetInCU: 0x4796D, offset: 0x4796D, size: 0x8, addend: 0x0, symName: __ZNSt3__19__advanceB7v160006IPNS_4pairINS_12basic_stringIcNS_11char_traitsIcEENS_9allocatorIcEEEEiEEEEvRT_NS_15iterator_traitsISA_E15difference_typeENS_26random_access_iterator_tagE, symObjAddr: 0xD1AC, symBinAddr: 0x10000F334, symSize: 0x28 }
  - { offsetInCU: 0x479B8, offset: 0x479B8, size: 0x8, addend: 0x0, symName: __ZNSt3__119__allocator_destroyB7v160006INS_9allocatorINS_4pairINS_12basic_stringIcNS_11char_traitsIcEENS1_IcEEEEiEEEENS_16reverse_iteratorINSA_IPS8_EEEESD_EEvRT_T0_T1_, symObjAddr: 0xD2D8, symBinAddr: 0x10000F460, symSize: 0x70 }
  - { offsetInCU: 0x47A1D, offset: 0x47A1D, size: 0x8, addend: 0x0, symName: __ZNSt3__1neB7v160006INS_16reverse_iteratorIPNS_4pairINS_12basic_stringIcNS_11char_traitsIcEENS_9allocatorIcEEEEiEEEESB_EEbRKNS1_IT_EERKNS1_IT0_EE, symObjAddr: 0xD384, symBinAddr: 0x10000F50C, symSize: 0x60 }
  - { offsetInCU: 0x47A69, offset: 0x47A69, size: 0x8, addend: 0x0, symName: __ZNSt3__112__to_addressB7v160006INS_16reverse_iteratorINS1_IPNS_4pairINS_12basic_stringIcNS_11char_traitsIcEENS_9allocatorIcEEEEiEEEEEEvEENS_5decayIDTclsr19__to_address_helperIT_EE6__callclsr3stdE7declvalIRKSE_EEEEE4typeESG_, symObjAddr: 0xD40C, symBinAddr: 0x10000F594, symSize: 0x24 }
  - { offsetInCU: 0x47A9F, offset: 0x47A9F, size: 0x8, addend: 0x0, symName: __ZNSt3__110destroy_atB7v160006INS_4pairINS_12basic_stringIcNS_11char_traitsIcEENS_9allocatorIcEEEEiEELi0EEEvPT_, symObjAddr: 0xD484, symBinAddr: 0x10000F60C, symSize: 0x24 }
  - { offsetInCU: 0x47AD6, offset: 0x47AD6, size: 0x8, addend: 0x0, symName: __ZNSt3__112__destroy_atB7v160006INS_4pairINS_12basic_stringIcNS_11char_traitsIcEENS_9allocatorIcEEEEiEELi0EEEvPT_, symObjAddr: 0xD4A8, symBinAddr: 0x10000F630, symSize: 0x24 }
  - { offsetInCU: 0x47B37, offset: 0x47B37, size: 0x8, addend: 0x0, symName: __ZNSt3__14prevB7v160006INS_16reverse_iteratorIPNS_4pairINS_12basic_stringIcNS_11char_traitsIcEENS_9allocatorIcEEEEiEEEEEENS_9enable_ifIXsr25__is_cpp17_input_iteratorIT_EE5valueESD_E4typeESD_NS_15iterator_traitsISD_E15difference_typeE, symObjAddr: 0xD550, symBinAddr: 0x10000F6D8, symSize: 0x60 }
  - { offsetInCU: 0x47B7A, offset: 0x47B7A, size: 0x8, addend: 0x0, symName: __ZNSt3__19__advanceB7v160006INS_16reverse_iteratorIPNS_4pairINS_12basic_stringIcNS_11char_traitsIcEENS_9allocatorIcEEEEiEEEEEEvRT_NS_15iterator_traitsISC_E15difference_typeENS_26random_access_iterator_tagE, symObjAddr: 0xD600, symBinAddr: 0x10000F788, symSize: 0x2C }
  - { offsetInCU: 0x47BC4, offset: 0x47BC4, size: 0x8, addend: 0x0, symName: '__ZNSt3__111__sort_implB7v160006INS_17_ClassicAlgPolicyENS_11__wrap_iterIPNS_4pairINS_12basic_stringIcNS_11char_traitsIcEENS_9allocatorIcEEEEiEEEEZ25handle_sort_remove_uniqueRNS_6vectorISA_NS7_ISA_EEEEE3$_0EEvT0_SI_RT1_', symObjAddr: 0xDB98, symBinAddr: 0x10000FD20, symSize: 0x84 }
  - { offsetInCU: 0x47C6B, offset: 0x47C6B, size: 0x8, addend: 0x0, symName: __ZNSt3__123__debug_randomize_rangeB7v160006INS_17_ClassicAlgPolicyENS_11__wrap_iterIPNS_4pairINS_12basic_stringIcNS_11char_traitsIcEENS_9allocatorIcEEEEiEEEESC_EEvT0_T1_, symObjAddr: 0xDC1C, symBinAddr: 0x10000FDA4, symSize: 0x14 }
  - { offsetInCU: 0x47CBC, offset: 0x47CBC, size: 0x8, addend: 0x0, symName: '__ZNSt3__16__sortIRZ25handle_sort_remove_uniqueRNS_6vectorINS_4pairINS_12basic_stringIcNS_11char_traitsIcEENS_9allocatorIcEEEEiEENS6_IS9_EEEEE3$_0PS9_EEvT0_SG_T_', symObjAddr: 0xDC30, symBinAddr: 0x10000FDB8, symSize: 0x68 }
  - { offsetInCU: 0x47D4C, offset: 0x47D4C, size: 0x8, addend: 0x0, symName: __ZNSt3__113__unwrap_iterB7v160006INS_11__wrap_iterIPNS_4pairINS_12basic_stringIcNS_11char_traitsIcEENS_9allocatorIcEEEEiEEEENS_18__unwrap_iter_implISB_Lb1EEELi0EEEDTclsrT0_8__unwrapclsr3stdE7declvalIT_EEEESF_, symObjAddr: 0xDC98, symBinAddr: 0x10000FE20, symSize: 0x2C }
  - { offsetInCU: 0x47D90, offset: 0x47D90, size: 0x8, addend: 0x0, symName: __ZNSt3__17__log2iB7v160006IlEET_S1_, symObjAddr: 0xDCC4, symBinAddr: 0x10000FE4C, symSize: 0x54 }
  - { offsetInCU: 0x47DFC, offset: 0x47DFC, size: 0x8, addend: 0x0, symName: __ZNSt3__112__libcpp_clzB7v160006Em, symObjAddr: 0xE3FC, symBinAddr: 0x100010584, symSize: 0x1C }
  - { offsetInCU: 0x47E27, offset: 0x47E27, size: 0x8, addend: 0x0, symName: '__ZNSt3__124__sort3_maybe_branchlessB7v160006INS_17_ClassicAlgPolicyERZ25handle_sort_remove_uniqueRNS_6vectorINS_4pairINS_12basic_stringIcNS_11char_traitsIcEENS_9allocatorIcEEEEiEENS7_ISA_EEEEE3$_0PSA_EENS_9enable_ifIXntsr21__use_branchless_sortIT0_T1_EE5valueEvE4typeESJ_SJ_SJ_SI_', symObjAddr: 0xE480, symBinAddr: 0x100010608, symSize: 0x3C }
  - { offsetInCU: 0x47E98, offset: 0x47E98, size: 0x8, addend: 0x0, symName: '__ZNSt3__124__sort4_maybe_branchlessB7v160006INS_17_ClassicAlgPolicyERZ25handle_sort_remove_uniqueRNS_6vectorINS_4pairINS_12basic_stringIcNS_11char_traitsIcEENS_9allocatorIcEEEEiEENS7_ISA_EEEEE3$_0PSA_EENS_9enable_ifIXntsr21__use_branchless_sortIT0_T1_EE5valueEvE4typeESJ_SJ_SJ_SJ_SI_', symObjAddr: 0xE4BC, symBinAddr: 0x100010644, symSize: 0x44 }
  - { offsetInCU: 0x47F1D, offset: 0x47F1D, size: 0x8, addend: 0x0, symName: '__ZNSt3__124__sort5_maybe_branchlessB7v160006INS_17_ClassicAlgPolicyERZ25handle_sort_remove_uniqueRNS_6vectorINS_4pairINS_12basic_stringIcNS_11char_traitsIcEENS_9allocatorIcEEEEiEENS7_ISA_EEEEE3$_0PSA_EENS_9enable_ifIXntsr21__use_branchless_sortIT0_T1_EE5valueEvE4typeESJ_SJ_SJ_SJ_SJ_SI_', symObjAddr: 0xE500, symBinAddr: 0x100010688, symSize: 0x4C }
  - { offsetInCU: 0x47FB1, offset: 0x47FB1, size: 0x8, addend: 0x0, symName: '__ZNSt3__114__partial_sortB7v160006INS_17_ClassicAlgPolicyERZ25handle_sort_remove_uniqueRNS_6vectorINS_4pairINS_12basic_stringIcNS_11char_traitsIcEENS_9allocatorIcEEEEiEENS7_ISA_EEEEE3$_0PSA_SG_EET1_SH_SH_T2_RT0_', symObjAddr: 0xE6C8, symBinAddr: 0x100010850, symSize: 0x94 }
  - { offsetInCU: 0x48039, offset: 0x48039, size: 0x8, addend: 0x0, symName: '__ZNSt3__119__sort5_wrap_policyB7v160006INS_17_ClassicAlgPolicyERZ25handle_sort_remove_uniqueRNS_6vectorINS_4pairINS_12basic_stringIcNS_11char_traitsIcEENS_9allocatorIcEEEEiEENS7_ISA_EEEEE3$_0PSA_EEjT1_SH_SH_SH_SH_T0_', symObjAddr: 0xE75C, symBinAddr: 0x1000108E4, symSize: 0x54 }
  - { offsetInCU: 0x480DF, offset: 0x480DF, size: 0x8, addend: 0x0, symName: '__ZNSt3__17__sort3B7v160006INS_17_ClassicAlgPolicyERZ25handle_sort_remove_uniqueRNS_6vectorINS_4pairINS_12basic_stringIcNS_11char_traitsIcEENS_9allocatorIcEEEEiEENS7_ISA_EEEEE3$_0PSA_EEjT1_SH_SH_T0_', symObjAddr: 0xE7B0, symBinAddr: 0x100010938, symSize: 0x144 }
  - { offsetInCU: 0x4815E, offset: 0x4815E, size: 0x8, addend: 0x0, symName: __ZNSt3__19iter_swapB7v160006IPNS_4pairINS_12basic_stringIcNS_11char_traitsIcEENS_9allocatorIcEEEEiEES9_EEvT_T0_, symObjAddr: 0xEC78, symBinAddr: 0x100010E00, symSize: 0x2C }
  - { offsetInCU: 0x481A6, offset: 0x481A6, size: 0x8, addend: 0x0, symName: __ZNSt3__14swapB7v160006INS_12basic_stringIcNS_11char_traitsIcEENS_9allocatorIcEEEEiEENS_9enable_ifIXaasr14__is_swappableIT_EE5valuesr14__is_swappableIT0_EE5valueEvE4typeERNS_4pairIS8_S9_EESE_, symObjAddr: 0xECA4, symBinAddr: 0x100010E2C, symSize: 0x2C }
  - { offsetInCU: 0x481F6, offset: 0x481F6, size: 0x8, addend: 0x0, symName: __ZNSt3__14swapB7v160006IcNS_11char_traitsIcEENS_9allocatorIcEEEEvRNS_12basic_stringIT_T0_T1_EESA_, symObjAddr: 0xED14, symBinAddr: 0x100010E9C, symSize: 0x2C }
  - { offsetInCU: 0x4824B, offset: 0x4824B, size: 0x8, addend: 0x0, symName: __ZNSt3__14swapB7v160006IiEENS_9enable_ifIXaasr21is_move_constructibleIT_EE5valuesr18is_move_assignableIS2_EE5valueEvE4typeERS2_S5_, symObjAddr: 0xED40, symBinAddr: 0x100010EC8, symSize: 0x3C }
  - { offsetInCU: 0x4829B, offset: 0x4829B, size: 0x8, addend: 0x0, symName: __ZNSt3__125__debug_db_invalidate_allB7v160006INS_12basic_stringIcNS_11char_traitsIcEENS_9allocatorIcEEEEEEvPT_, symObjAddr: 0xEE30, symBinAddr: 0x100010FB8, symSize: 0x10 }
  - { offsetInCU: 0x482CD, offset: 0x482CD, size: 0x8, addend: 0x0, symName: __ZNSt3__14swapB7v160006INS_12basic_stringIcNS_11char_traitsIcEENS_9allocatorIcEEE5__repEEENS_9enable_ifIXaasr21is_move_constructibleIT_EE5valuesr18is_move_assignableIS9_EE5valueEvE4typeERS9_SC_, symObjAddr: 0xEE40, symBinAddr: 0x100010FC8, symSize: 0x54 }
  - { offsetInCU: 0x4831D, offset: 0x4831D, size: 0x8, addend: 0x0, symName: __ZNSt3__116__swap_allocatorB7v160006INS_9allocatorIcEEEEvRT_S4_, symObjAddr: 0xEE94, symBinAddr: 0x10001101C, symSize: 0x2C }
  - { offsetInCU: 0x4835C, offset: 0x4835C, size: 0x8, addend: 0x0, symName: __ZNSt3__116__swap_allocatorB7v160006INS_9allocatorIcEEEEvRT_S4_NS_17integral_constantIbLb0EEE, symObjAddr: 0xEEE4, symBinAddr: 0x10001106C, symSize: 0x14 }
  - { offsetInCU: 0x483A0, offset: 0x483A0, size: 0x8, addend: 0x0, symName: '__ZNSt3__17__sort4B7v160006INS_17_ClassicAlgPolicyERZ25handle_sort_remove_uniqueRNS_6vectorINS_4pairINS_12basic_stringIcNS_11char_traitsIcEENS_9allocatorIcEEEEiEENS7_ISA_EEEEE3$_0PSA_EEjT1_SH_SH_SH_T0_', symObjAddr: 0xEF30, symBinAddr: 0x1000110B8, symSize: 0xE4 }
  - { offsetInCU: 0x48451, offset: 0x48451, size: 0x8, addend: 0x0, symName: __ZNSt3__123__debug_randomize_rangeB7v160006INS_17_ClassicAlgPolicyEPNS_4pairINS_12basic_stringIcNS_11char_traitsIcEENS_9allocatorIcEEEEiEESA_EEvT0_T1_, symObjAddr: 0xF29C, symBinAddr: 0x100011424, symSize: 0x14 }
  - { offsetInCU: 0x484A2, offset: 0x484A2, size: 0x8, addend: 0x0, symName: '__ZNSt3__119__partial_sort_implB7v160006INS_17_ClassicAlgPolicyERZ25handle_sort_remove_uniqueRNS_6vectorINS_4pairINS_12basic_stringIcNS_11char_traitsIcEENS_9allocatorIcEEEEiEENS7_ISA_EEEEE3$_0PSA_SG_EET1_SH_SH_T2_OT0_', symObjAddr: 0xF2B0, symBinAddr: 0x100011438, symSize: 0x110 }
  - { offsetInCU: 0x48538, offset: 0x48538, size: 0x8, addend: 0x0, symName: '__ZNSt3__111__make_heapB7v160006INS_17_ClassicAlgPolicyERZ25handle_sort_remove_uniqueRNS_6vectorINS_4pairINS_12basic_stringIcNS_11char_traitsIcEENS_9allocatorIcEEEEiEENS7_ISA_EEEEE3$_0PSA_EEvT1_SH_OT0_', symObjAddr: 0xF3C0, symBinAddr: 0x100011548, symSize: 0xB8 }
  - { offsetInCU: 0x485DA, offset: 0x485DA, size: 0x8, addend: 0x0, symName: '__ZNSt3__111__sort_heapB7v160006INS_17_ClassicAlgPolicyERZ25handle_sort_remove_uniqueRNS_6vectorINS_4pairINS_12basic_stringIcNS_11char_traitsIcEENS_9allocatorIcEEEEiEENS7_ISA_EEEEE3$_0PSA_EEvT1_SH_OT0_', symObjAddr: 0xF6BC, symBinAddr: 0x100011844, symSize: 0x90 }
  - { offsetInCU: 0x4866E, offset: 0x4866E, size: 0x8, addend: 0x0, symName: '__ZNSt3__110__pop_heapB7v160006INS_17_ClassicAlgPolicyEZ25handle_sort_remove_uniqueRNS_6vectorINS_4pairINS_12basic_stringIcNS_11char_traitsIcEENS_9allocatorIcEEEEiEENS7_ISA_EEEEE3$_0PSA_EEvT1_SG_RT0_NS_15iterator_traitsISG_E15difference_typeE', symObjAddr: 0xF74C, symBinAddr: 0x1000118D4, symSize: 0x138 }
  - { offsetInCU: 0x48716, offset: 0x48716, size: 0x8, addend: 0x0, symName: '__ZNSt3__19__sift_upB7v160006INS_17_ClassicAlgPolicyERZ25handle_sort_remove_uniqueRNS_6vectorINS_4pairINS_12basic_stringIcNS_11char_traitsIcEENS_9allocatorIcEEEEiEENS7_ISA_EEEEE3$_0PSA_EEvT1_SH_OT0_NS_15iterator_traitsISH_E15difference_typeE', symObjAddr: 0xF984, symBinAddr: 0x100011B0C, symSize: 0x154 }
  - { offsetInCU: 0x487B6, offset: 0x487B6, size: 0x8, addend: 0x0, symName: '__ZNSt3__17__sort5IRZ25handle_sort_remove_uniqueRNS_6vectorINS_4pairINS_12basic_stringIcNS_11char_traitsIcEENS_9allocatorIcEEEEiEENS6_IS9_EEEEE3$_0PS9_EEjT0_SG_SG_SG_SG_T_', symObjAddr: 0xFAD8, symBinAddr: 0x100011C60, symSize: 0x12C }
  - { offsetInCU: 0x488B4, offset: 0x488B4, size: 0x8, addend: 0x0, symName: __ZNSt3__112__to_addressB7v160006INS_11__wrap_iterIPNS_4pairINS_12basic_stringIcNS_11char_traitsIcEENS_9allocatorIcEEEEiEEEEvEENS_5decayIDTclsr19__to_address_helperIT_EE6__callclsr3stdE7declvalIRKSD_EEEEE4typeESF_, symObjAddr: 0xFC2C, symBinAddr: 0x100011DB4, symSize: 0x24 }
  - { offsetInCU: 0x48956, offset: 0x48956, size: 0x8, addend: 0x0, symName: __ZNSt3__16uniqueB7v160006INS_11__wrap_iterIPNS_4pairINS_12basic_stringIcNS_11char_traitsIcEENS_9allocatorIcEEEEiEEEENS_10__equal_toEEET_SD_SD_T0_, symObjAddr: 0xFD58, symBinAddr: 0x100011EE0, symSize: 0x54 }
  - { offsetInCU: 0x489B0, offset: 0x489B0, size: 0x8, addend: 0x0, symName: __ZNSt3__18__uniqueB7v160006INS_17_ClassicAlgPolicyENS_11__wrap_iterIPNS_4pairINS_12basic_stringIcNS_11char_traitsIcEENS_9allocatorIcEEEEiEEEESC_RNS_10__equal_toEEENS3_IT0_SF_EESF_T1_OT2_, symObjAddr: 0xFDAC, symBinAddr: 0x100011F34, symSize: 0x13C }
  - { offsetInCU: 0x48A38, offset: 0x48A38, size: 0x8, addend: 0x0, symName: __ZNSt3__115__adjacent_findB7v160006INS_11__wrap_iterIPNS_4pairINS_12basic_stringIcNS_11char_traitsIcEENS_9allocatorIcEEEEiEEEESB_RNS_10__equal_toEEET_SE_T0_OT1_, symObjAddr: 0xFEE8, symBinAddr: 0x100012070, symSize: 0xCC }
  - { offsetInCU: 0x48AA9, offset: 0x48AA9, size: 0x8, addend: 0x0, symName: __ZNSt3__1neB7v160006IPNS_4pairINS_12basic_stringIcNS_11char_traitsIcEENS_9allocatorIcEEEEiEEEEbRKNS_11__wrap_iterIT_EESE_, symObjAddr: 0xFFB4, symBinAddr: 0x10001213C, symSize: 0x34 }
  - { offsetInCU: 0x48C2A, offset: 0x48C2A, size: 0x8, addend: 0x0, symName: __ZNSt3__1eqB7v160006IPNS_4pairINS_12basic_stringIcNS_11char_traitsIcEENS_9allocatorIcEEEEiEEEEbRKNS_11__wrap_iterIT_EESE_, symObjAddr: 0x100F4, symBinAddr: 0x10001227C, symSize: 0x48 }
  - { offsetInCU: 0x48C6D, offset: 0x48C6D, size: 0x8, addend: 0x0, symName: __ZNSt3__1eqB7v160006INS_12basic_stringIcNS_11char_traitsIcEENS_9allocatorIcEEEEiEEbRKNS_4pairIT_T0_EESC_, symObjAddr: 0x1013C, symBinAddr: 0x1000122C4, symSize: 0x64 }
  - { offsetInCU: 0x48CBC, offset: 0x48CBC, size: 0x8, addend: 0x0, symName: __ZNSt3__1miB7v160006IPKNS_4pairINS_12basic_stringIcNS_11char_traitsIcEENS_9allocatorIcEEEEiEEPS8_EEDTmicldtfp_4baseEcldtfp0_4baseEERKNS_11__wrap_iterIT_EERKNSD_IT0_EE, symObjAddr: 0x1020C, symBinAddr: 0x100012394, symSize: 0x48 }
  - { offsetInCU: 0x48D08, offset: 0x48D08, size: 0x8, addend: 0x0, symName: __ZNSt3__1neB7v160006IPKNS_4pairINS_12basic_stringIcNS_11char_traitsIcEENS_9allocatorIcEEEEiEEEEbRKNS_11__wrap_iterIT_EESF_, symObjAddr: 0x10254, symBinAddr: 0x1000123DC, symSize: 0x34 }
  - { offsetInCU: 0x48D4B, offset: 0x48D4B, size: 0x8, addend: 0x0, symName: __ZNSt3__14moveB7v160006IPNS_4pairINS_12basic_stringIcNS_11char_traitsIcEENS_9allocatorIcEEEEiEES9_EET0_T_SB_SA_, symObjAddr: 0x102E8, symBinAddr: 0x100012470, symSize: 0x40 }
  - { offsetInCU: 0x48DA5, offset: 0x48DA5, size: 0x8, addend: 0x0, symName: __ZNSt3__1miB7v160006IPKNS_4pairINS_12basic_stringIcNS_11char_traitsIcEENS_9allocatorIcEEEEiEESA_EEDTmicldtfp_4baseEcldtfp0_4baseEERKNS_11__wrap_iterIT_EERKNSC_IT0_EE, symObjAddr: 0x10328, symBinAddr: 0x1000124B0, symSize: 0x48 }
  - { offsetInCU: 0x48DF1, offset: 0x48DF1, size: 0x8, addend: 0x0, symName: __ZNSt3__1eqB7v160006IPKNS_4pairINS_12basic_stringIcNS_11char_traitsIcEENS_9allocatorIcEEEEiEEEEbRKNS_11__wrap_iterIT_EESF_, symObjAddr: 0x1039C, symBinAddr: 0x100012524, symSize: 0x48 }
  - { offsetInCU: 0x48E34, offset: 0x48E34, size: 0x8, addend: 0x0, symName: __ZNSt3__16__moveB7v160006INS_17_ClassicAlgPolicyEPNS_4pairINS_12basic_stringIcNS_11char_traitsIcEENS_9allocatorIcEEEEiEESA_SA_EENS2_IT0_T2_EESB_T1_SC_, symObjAddr: 0x10524, symBinAddr: 0x1000126AC, symSize: 0x44 }
  - { offsetInCU: 0x48EA0, offset: 0x48EA0, size: 0x8, addend: 0x0, symName: __ZNSt3__123__dispatch_copy_or_moveB7v160006INS_17_ClassicAlgPolicyENS_11__move_loopIS1_EENS_14__move_trivialEPNS_4pairINS_12basic_stringIcNS_11char_traitsIcEENS_9allocatorIcEEEEiEESD_SD_EENS5_IT2_T4_EESE_T3_SF_, symObjAddr: 0x10568, symBinAddr: 0x1000126F0, symSize: 0x44 }
  - { offsetInCU: 0x48F1E, offset: 0x48F1E, size: 0x8, addend: 0x0, symName: __ZNSt3__121__unwrap_and_dispatchB7v160006INS_10__overloadINS_11__move_loopINS_17_ClassicAlgPolicyEEENS_14__move_trivialEEEPNS_4pairINS_12basic_stringIcNS_11char_traitsIcEENS_9allocatorIcEEEEiEESF_SF_Li0EEENS7_IT0_T2_EESG_T1_SH_, symObjAddr: 0x105AC, symBinAddr: 0x100012734, symSize: 0xB4 }
  - { offsetInCU: 0x48FAC, offset: 0x48FAC, size: 0x8, addend: 0x0, symName: __ZNSt3__114__unwrap_rangeB7v160006IPNS_4pairINS_12basic_stringIcNS_11char_traitsIcEENS_9allocatorIcEEEEiEES9_EEDaT_T0_, symObjAddr: 0x10660, symBinAddr: 0x1000127E8, symSize: 0x3C }
  - { offsetInCU: 0x490CC, offset: 0x490CC, size: 0x8, addend: 0x0, symName: __ZNSt3__113__unwrap_iterB7v160006IPNS_4pairINS_12basic_stringIcNS_11char_traitsIcEENS_9allocatorIcEEEEiEENS_18__unwrap_iter_implIS9_Lb1EEELi0EEEDTclsrT0_8__unwrapclsr3stdE7declvalIT_EEEESD_, symObjAddr: 0x1072C, symBinAddr: 0x1000128B4, symSize: 0x24 }
  - { offsetInCU: 0x49110, offset: 0x49110, size: 0x8, addend: 0x0, symName: __ZNSt3__19make_pairB7v160006IPNS_4pairINS_12basic_stringIcNS_11char_traitsIcEENS_9allocatorIcEEEEiEES9_EENS1_INS_18__unwrap_ref_decayIT_E4typeENSA_IT0_E4typeEEEOSB_OSE_, symObjAddr: 0x10750, symBinAddr: 0x1000128D8, symSize: 0x38 }
  - { offsetInCU: 0x4915F, offset: 0x4915F, size: 0x8, addend: 0x0, symName: __ZNSt3__114__rewrap_rangeB7v160006IPNS_4pairINS_12basic_stringIcNS_11char_traitsIcEENS_9allocatorIcEEEEiEES9_S9_EET0_SA_T1_, symObjAddr: 0x10788, symBinAddr: 0x100012910, symSize: 0x2C }
  - { offsetInCU: 0x491B4, offset: 0x491B4, size: 0x8, addend: 0x0, symName: __ZNSt3__113__rewrap_iterB7v160006IPNS_4pairINS_12basic_stringIcNS_11char_traitsIcEENS_9allocatorIcEEEEiEES9_NS_18__unwrap_iter_implIS9_Lb1EEEEET_SC_T0_, symObjAddr: 0x107B4, symBinAddr: 0x10001293C, symSize: 0x3C }
  - { offsetInCU: 0x492AC, offset: 0x492AC, size: 0x8, addend: 0x0, symName: __ZNSt3__1eqB7v160006IPKNS_12basic_stringIcNS_11char_traitsIcEENS_9allocatorIcEEEEEEbRKNS_11__wrap_iterIT_EESD_, symObjAddr: 0x10A2C, symBinAddr: 0x100012BB4, symSize: 0x48 }
  - { offsetInCU: 0x492EF, offset: 0x492EF, size: 0x8, addend: 0x0, symName: __ZNSt3__1eqB7v160006IPNS_5tupleIJ8InlineTR11DataEntryEQ5EqlotEEEEEbRKNS_11__wrap_iterIT_EESB_, symObjAddr: 0x10B20, symBinAddr: 0x100012CA8, symSize: 0x48 }
  - { offsetInCU: 0x49332, offset: 0x49332, size: 0x8, addend: 0x0, symName: __ZNSt3__118__debug_db_erase_cB7v160006INS_6vectorINS1_IdNS_9allocatorIdEEEENS2_IS4_EEEEEEvPT_, symObjAddr: 0x10DC4, symBinAddr: 0x100012F4C, symSize: 0x10 }
  - { offsetInCU: 0x49364, offset: 0x49364, size: 0x8, addend: 0x0, symName: __ZNSt3__112__to_addressB7v160006INS_6vectorIdNS_9allocatorIdEEEEEEPT_S6_, symObjAddr: 0x10F08, symBinAddr: 0x100013090, symSize: 0x14 }
  - { offsetInCU: 0x49398, offset: 0x49398, size: 0x8, addend: 0x0, symName: __ZNSt3__110destroy_atB7v160006INS_6vectorIdNS_9allocatorIdEEEELi0EEEvPT_, symObjAddr: 0x10FD0, symBinAddr: 0x100013158, symSize: 0x24 }
  - { offsetInCU: 0x493CF, offset: 0x493CF, size: 0x8, addend: 0x0, symName: __ZNSt3__112__destroy_atB7v160006INS_6vectorIdNS_9allocatorIdEEEELi0EEEvPT_, symObjAddr: 0x10FF4, symBinAddr: 0x10001317C, symSize: 0x24 }
  - { offsetInCU: 0x49406, offset: 0x49406, size: 0x8, addend: 0x0, symName: __ZNSt3__1eqB7v160006IPNS_5tupleIJ3WAT11DataEntryEQ8InlineTR5EqlotEEEEEbRKNS_11__wrap_iterIT_EESC_, symObjAddr: 0x11188, symBinAddr: 0x100013310, symSize: 0x48 }
  - { offsetInCU: 0x49449, offset: 0x49449, size: 0x8, addend: 0x0, symName: __ZNSt3__1eqB7v160006IPNS_5tupleIJ6Defect11DataEntryEQ5EqlotEEEEEbRKNS_11__wrap_iterIT_EESB_, symObjAddr: 0x112B8, symBinAddr: 0x100013440, symSize: 0x48 }
  - { offsetInCU: 0x4948C, offset: 0x4948C, size: 0x8, addend: 0x0, symName: __ZNSt3__1eqB7v160006IPNS_5tupleIJ3WAT8InlineTR11DataEntryEQ5EqlotEEEEEbRKNS_11__wrap_iterIT_EESC_, symObjAddr: 0x113C0, symBinAddr: 0x100013548, symSize: 0x48 }
  - { offsetInCU: 0x494CF, offset: 0x494CF, size: 0x8, addend: 0x0, symName: __ZNSt3__122__make_exception_guardB7v160006INS_6vectorIdNS_9allocatorIdEEE16__destroy_vectorEEENS_28__exception_guard_exceptionsIT_EES7_, symObjAddr: 0x1169C, symBinAddr: 0x100013824, symSize: 0x40 }
  - { offsetInCU: 0x49504, offset: 0x49504, size: 0x8, addend: 0x0, symName: __ZNSt3__119__debug_db_insert_cB7v160006INS_6vectorIdNS_9allocatorIdEEEEEEvPT_, symObjAddr: 0x11710, symBinAddr: 0x100013898, symSize: 0x10 }
  - { offsetInCU: 0x49535, offset: 0x49535, size: 0x8, addend: 0x0, symName: __ZNSt3__119__allocate_at_leastB7v160006INS_9allocatorIdEEEENS_19__allocation_resultINS_16allocator_traitsIT_E7pointerEEERS5_m, symObjAddr: 0x11AAC, symBinAddr: 0x100013C34, symSize: 0x40 }
  - { offsetInCU: 0x49579, offset: 0x49579, size: 0x8, addend: 0x0, symName: __ZNSt3__112__to_addressB7v160006IdEEPT_S2_, symObjAddr: 0x11DC0, symBinAddr: 0x100013F48, symSize: 0x14 }
  - { offsetInCU: 0x495AD, offset: 0x495AD, size: 0x8, addend: 0x0, symName: __ZNSt3__130__uninitialized_allocator_copyB7v160006INS_9allocatorIdEEddLPv0EEEPT0_RT_PKS4_S9_S5_, symObjAddr: 0x11E70, symBinAddr: 0x100013FF8, symSize: 0x38 }
  - { offsetInCU: 0x49626, offset: 0x49626, size: 0x8, addend: 0x0, symName: __ZNSt3__14copyB7v160006IPKdPdEET0_T_S5_S4_, symObjAddr: 0x11F18, symBinAddr: 0x1000140A0, symSize: 0x40 }
  - { offsetInCU: 0x49680, offset: 0x49680, size: 0x8, addend: 0x0, symName: __ZNSt3__16__copyB7v160006INS_17_ClassicAlgPolicyEPKdS3_PdEENS_4pairIT0_T2_EES6_T1_S7_, symObjAddr: 0x11F58, symBinAddr: 0x1000140E0, symSize: 0x44 }
  - { offsetInCU: 0x496EC, offset: 0x496EC, size: 0x8, addend: 0x0, symName: __ZNSt3__123__dispatch_copy_or_moveB7v160006INS_17_ClassicAlgPolicyENS_11__copy_loopIS1_EENS_14__copy_trivialEPKdS6_PdEENS_4pairIT2_T4_EES9_T3_SA_, symObjAddr: 0x11F9C, symBinAddr: 0x100014124, symSize: 0x44 }
  - { offsetInCU: 0x4976A, offset: 0x4976A, size: 0x8, addend: 0x0, symName: __ZNSt3__121__unwrap_and_dispatchB7v160006INS_10__overloadINS_11__copy_loopINS_17_ClassicAlgPolicyEEENS_14__copy_trivialEEEPKdS8_PdLi0EEENS_4pairIT0_T2_EESB_T1_SC_, symObjAddr: 0x11FE0, symBinAddr: 0x100014168, symSize: 0xB4 }
  - { offsetInCU: 0x497F8, offset: 0x497F8, size: 0x8, addend: 0x0, symName: __ZNSt3__114__unwrap_rangeB7v160006IPKdS2_EEDaT_T0_, symObjAddr: 0x12094, symBinAddr: 0x10001421C, symSize: 0x3C }
  - { offsetInCU: 0x499C9, offset: 0x499C9, size: 0x8, addend: 0x0, symName: __ZNSt3__113__unwrap_iterB7v160006IPdNS_18__unwrap_iter_implIS1_Lb1EEELi0EEEDTclsrT0_8__unwrapclsr3stdE7declvalIT_EEEES5_, symObjAddr: 0x12118, symBinAddr: 0x1000142A0, symSize: 0x24 }
  - { offsetInCU: 0x49A0D, offset: 0x49A0D, size: 0x8, addend: 0x0, symName: __ZNSt3__19make_pairB7v160006IPKdPdEENS_4pairINS_18__unwrap_ref_decayIT_E4typeENS5_IT0_E4typeEEEOS6_OS9_, symObjAddr: 0x1213C, symBinAddr: 0x1000142C4, symSize: 0x38 }
  - { offsetInCU: 0x49A5C, offset: 0x49A5C, size: 0x8, addend: 0x0, symName: __ZNSt3__114__rewrap_rangeB7v160006IPKdS2_S2_EET0_S3_T1_, symObjAddr: 0x12174, symBinAddr: 0x1000142FC, symSize: 0x2C }
  - { offsetInCU: 0x49AB1, offset: 0x49AB1, size: 0x8, addend: 0x0, symName: __ZNSt3__113__rewrap_iterB7v160006IPdS1_NS_18__unwrap_iter_implIS1_Lb1EEEEET_S4_T0_, symObjAddr: 0x121A0, symBinAddr: 0x100014328, symSize: 0x3C }
  - { offsetInCU: 0x49C22, offset: 0x49C22, size: 0x8, addend: 0x0, symName: __ZNSt3__113__unwrap_iterB7v160006IPKdNS_18__unwrap_iter_implIS2_Lb1EEELi0EEEDTclsrT0_8__unwrapclsr3stdE7declvalIT_EEEES6_, symObjAddr: 0x12234, symBinAddr: 0x1000143BC, symSize: 0x24 }
  - { offsetInCU: 0x49CBA, offset: 0x49CBA, size: 0x8, addend: 0x0, symName: __ZNSt3__112__to_addressB7v160006IKdEEPT_S3_, symObjAddr: 0x122B8, symBinAddr: 0x100014440, symSize: 0x14 }
  - { offsetInCU: 0x49CEE, offset: 0x49CEE, size: 0x8, addend: 0x0, symName: __ZNSt3__119__copy_trivial_implB7v160006IKddEENS_4pairIPT_PT0_EES4_S4_S6_, symObjAddr: 0x12300, symBinAddr: 0x100014488, symSize: 0x84 }
  - { offsetInCU: 0x49D56, offset: 0x49D56, size: 0x8, addend: 0x0, symName: __ZNSt3__19make_pairB7v160006IRPKdPdEENS_4pairINS_18__unwrap_ref_decayIT_E4typeENS6_IT0_E4typeEEEOS7_OSA_, symObjAddr: 0x12384, symBinAddr: 0x10001450C, symSize: 0x38 }
  - { offsetInCU: 0x49DF8, offset: 0x49DF8, size: 0x8, addend: 0x0, symName: __ZNSt3__113__rewrap_iterB7v160006IPKdS2_NS_18__unwrap_iter_implIS2_Lb1EEEEET_S5_T0_, symObjAddr: 0x124EC, symBinAddr: 0x100014674, symSize: 0x3C }
  - { offsetInCU: 0x49E4D, offset: 0x49E4D, size: 0x8, addend: 0x0, symName: __ZNSt3__118__debug_db_erase_cB7v160006INS_6vectorIdNS_9allocatorIdEEEEEEvPT_, symObjAddr: 0x1278C, symBinAddr: 0x100014914, symSize: 0x10 }
  - { offsetInCU: 0x49E7E, offset: 0x49E7E, size: 0x8, addend: 0x0, symName: __ZNSt3__110destroy_atB7v160006IdLi0EEEvPT_, symObjAddr: 0x128D4, symBinAddr: 0x100014A5C, symSize: 0x24 }
  - { offsetInCU: 0x49EB5, offset: 0x49EB5, size: 0x8, addend: 0x0, symName: __ZNSt3__112__destroy_atB7v160006IdLi0EEEvPT_, symObjAddr: 0x128F8, symBinAddr: 0x100014A80, symSize: 0x10 }
  - { offsetInCU: 0x49EEC, offset: 0x49EEC, size: 0x8, addend: 0x0, symName: __ZNSt3__125__debug_db_invalidate_allB7v160006INS_6vectorI6DefectNS_9allocatorIS2_EEEEEEvPT_, symObjAddr: 0x12AAC, symBinAddr: 0x100014C34, symSize: 0x10 }
  - { offsetInCU: 0x49F1E, offset: 0x49F1E, size: 0x8, addend: 0x0, symName: __ZNSt3__112__to_addressB7v160006I6DefectEEPT_S3_, symObjAddr: 0x12B98, symBinAddr: 0x100014D20, symSize: 0x14 }
  - { offsetInCU: 0x49F52, offset: 0x49F52, size: 0x8, addend: 0x0, symName: __ZNSt3__110destroy_atB7v160006I6DefectLi0EEEvPT_, symObjAddr: 0x12BAC, symBinAddr: 0x100014D34, symSize: 0x24 }
  - { offsetInCU: 0x49F89, offset: 0x49F89, size: 0x8, addend: 0x0, symName: __ZNSt3__112__destroy_atB7v160006I6DefectLi0EEEvPT_, symObjAddr: 0x12BD0, symBinAddr: 0x100014D58, symSize: 0x24 }
  - { offsetInCU: 0x49FC0, offset: 0x49FC0, size: 0x8, addend: 0x0, symName: __ZNSt3__119__allocate_at_leastB7v160006INS_9allocatorI6DefectEEEENS_19__allocation_resultINS_16allocator_traitsIT_E7pointerEEERS6_m, symObjAddr: 0x13064, symBinAddr: 0x1000151EC, symSize: 0x40 }
  - { offsetInCU: 0x4A003, offset: 0x4A003, size: 0x8, addend: 0x0, symName: __ZNSt3__142__uninitialized_allocator_move_if_noexceptB7v160006INS_9allocatorI6DefectEENS_16reverse_iteratorIPS2_EES6_S6_EET2_RT_T0_T1_S7_, symObjAddr: 0x13348, symBinAddr: 0x1000154D0, symSize: 0x12C }
  - { offsetInCU: 0x4A0A4, offset: 0x4A0A4, size: 0x8, addend: 0x0, symName: __ZNSt3__14swapB7v160006IP6DefectEENS_9enable_ifIXaasr21is_move_constructibleIT_EE5valuesr18is_move_assignableIS4_EE5valueEvE4typeERS4_S7_, symObjAddr: 0x134C0, symBinAddr: 0x100015648, symSize: 0x3C }
  - { offsetInCU: 0x4A0F4, offset: 0x4A0F4, size: 0x8, addend: 0x0, symName: __ZNSt3__122__make_exception_guardB7v160006INS_29_AllocatorDestroyRangeReverseINS_9allocatorI6DefectEENS_16reverse_iteratorIPS3_EEEEEENS_28__exception_guard_exceptionsIT_EESA_, symObjAddr: 0x135EC, symBinAddr: 0x100015774, symSize: 0x4C }
  - { offsetInCU: 0x4A12A, offset: 0x4A12A, size: 0x8, addend: 0x0, symName: __ZNSt3__1neB7v160006IP6DefectS2_EEbRKNS_16reverse_iteratorIT_EERKNS3_IT0_EE, symObjAddr: 0x1367C, symBinAddr: 0x100015804, symSize: 0x48 }
  - { offsetInCU: 0x4A176, offset: 0x4A176, size: 0x8, addend: 0x0, symName: __ZNSt3__112__to_addressB7v160006INS_16reverse_iteratorIP6DefectEEvEENS_5decayIDTclsr19__to_address_helperIT_EE6__callclsr3stdE7declvalIRKS6_EEEEE4typeES8_, symObjAddr: 0x136F4, symBinAddr: 0x10001587C, symSize: 0x24 }
  - { offsetInCU: 0x4A1D3, offset: 0x4A1D3, size: 0x8, addend: 0x0, symName: __ZNSt3__112construct_atB7v160006I6DefectJS1_EPS1_EEPT_S4_DpOT0_, symObjAddr: 0x13844, symBinAddr: 0x1000159CC, symSize: 0x3C }
  - { offsetInCU: 0x4A245, offset: 0x4A245, size: 0x8, addend: 0x0, symName: __ZNSt3__115__debug_db_swapB7v160006INS_6vectorINS_12basic_stringIcNS_11char_traitsIcEENS_9allocatorIcEEEENS5_IS7_EEEEEEvPT_SB_, symObjAddr: 0x13A98, symBinAddr: 0x100015C20, symSize: 0x14 }
  - { offsetInCU: 0x4A2AE, offset: 0x4A2AE, size: 0x8, addend: 0x0, symName: __ZNSt3__14prevB7v160006IP6DefectEENS_9enable_ifIXsr25__is_cpp17_input_iteratorIT_EE5valueES4_E4typeES4_NS_15iterator_traitsIS4_E15difference_typeE, symObjAddr: 0x13B10, symBinAddr: 0x100015C98, symSize: 0x50 }
  - { offsetInCU: 0x4A2F1, offset: 0x4A2F1, size: 0x8, addend: 0x0, symName: __ZNSt3__19__advanceB7v160006IP6DefectEEvRT_NS_15iterator_traitsIS3_E15difference_typeENS_26random_access_iterator_tagE, symObjAddr: 0x13BB0, symBinAddr: 0x100015D38, symSize: 0x30 }
  - { offsetInCU: 0x4A33C, offset: 0x4A33C, size: 0x8, addend: 0x0, symName: __ZNSt3__119__allocator_destroyB7v160006INS_9allocatorI6DefectEENS_16reverse_iteratorINS4_IPS2_EEEES7_EEvRT_T0_T1_, symObjAddr: 0x13CE4, symBinAddr: 0x100015E6C, symSize: 0x70 }
  - { offsetInCU: 0x4A3A1, offset: 0x4A3A1, size: 0x8, addend: 0x0, symName: __ZNSt3__1neB7v160006INS_16reverse_iteratorIP6DefectEES4_EEbRKNS1_IT_EERKNS1_IT0_EE, symObjAddr: 0x13D90, symBinAddr: 0x100015F18, symSize: 0x60 }
  - { offsetInCU: 0x4A3ED, offset: 0x4A3ED, size: 0x8, addend: 0x0, symName: __ZNSt3__112__to_addressB7v160006INS_16reverse_iteratorINS1_IP6DefectEEEEvEENS_5decayIDTclsr19__to_address_helperIT_EE6__callclsr3stdE7declvalIRKS7_EEEEE4typeES9_, symObjAddr: 0x13DF0, symBinAddr: 0x100015F78, symSize: 0x24 }
  - { offsetInCU: 0x4A44D, offset: 0x4A44D, size: 0x8, addend: 0x0, symName: __ZNSt3__14prevB7v160006INS_16reverse_iteratorIP6DefectEEEENS_9enable_ifIXsr25__is_cpp17_input_iteratorIT_EE5valueES6_E4typeES6_NS_15iterator_traitsIS6_E15difference_typeE, symObjAddr: 0x13EEC, symBinAddr: 0x100016074, symSize: 0x60 }
  - { offsetInCU: 0x4A490, offset: 0x4A490, size: 0x8, addend: 0x0, symName: __ZNSt3__19__advanceB7v160006INS_16reverse_iteratorIP6DefectEEEEvRT_NS_15iterator_traitsIS5_E15difference_typeENS_26random_access_iterator_tagE, symObjAddr: 0x13F9C, symBinAddr: 0x100016124, symSize: 0x2C }
  - { offsetInCU: 0x4A4DA, offset: 0x4A4DA, size: 0x8, addend: 0x0, symName: __ZNSt3__125__debug_db_invalidate_allB7v160006INS_6vectorI11DataEntryEQNS_9allocatorIS2_EEEEEEvPT_, symObjAddr: 0x14414, symBinAddr: 0x10001659C, symSize: 0x10 }
  - { offsetInCU: 0x4A50C, offset: 0x4A50C, size: 0x8, addend: 0x0, symName: __ZNSt3__112__to_addressB7v160006I11DataEntryEQEEPT_S3_, symObjAddr: 0x14500, symBinAddr: 0x100016688, symSize: 0x14 }
  - { offsetInCU: 0x4A540, offset: 0x4A540, size: 0x8, addend: 0x0, symName: __ZNSt3__110destroy_atB7v160006I11DataEntryEQLi0EEEvPT_, symObjAddr: 0x14514, symBinAddr: 0x10001669C, symSize: 0x24 }
  - { offsetInCU: 0x4A577, offset: 0x4A577, size: 0x8, addend: 0x0, symName: __ZNSt3__112__destroy_atB7v160006I11DataEntryEQLi0EEEvPT_, symObjAddr: 0x14538, symBinAddr: 0x1000166C0, symSize: 0x24 }
  - { offsetInCU: 0x4A5AE, offset: 0x4A5AE, size: 0x8, addend: 0x0, symName: __ZNSt3__119__allocate_at_leastB7v160006INS_9allocatorI11DataEntryEQEEEENS_19__allocation_resultINS_16allocator_traitsIT_E7pointerEEERS6_m, symObjAddr: 0x14AB0, symBinAddr: 0x100016C38, symSize: 0x40 }
  - { offsetInCU: 0x4A5F1, offset: 0x4A5F1, size: 0x8, addend: 0x0, symName: __ZNSt3__142__uninitialized_allocator_move_if_noexceptB7v160006INS_9allocatorI11DataEntryEQEENS_16reverse_iteratorIPS2_EES6_S6_EET2_RT_T0_T1_S7_, symObjAddr: 0x14D94, symBinAddr: 0x100016F1C, symSize: 0x12C }
  - { offsetInCU: 0x4A692, offset: 0x4A692, size: 0x8, addend: 0x0, symName: __ZNSt3__14swapB7v160006IP11DataEntryEQEENS_9enable_ifIXaasr21is_move_constructibleIT_EE5valuesr18is_move_assignableIS4_EE5valueEvE4typeERS4_S7_, symObjAddr: 0x14F0C, symBinAddr: 0x100017094, symSize: 0x3C }
  - { offsetInCU: 0x4A6E2, offset: 0x4A6E2, size: 0x8, addend: 0x0, symName: __ZNSt3__122__make_exception_guardB7v160006INS_29_AllocatorDestroyRangeReverseINS_9allocatorI11DataEntryEQEENS_16reverse_iteratorIPS3_EEEEEENS_28__exception_guard_exceptionsIT_EESA_, symObjAddr: 0x15038, symBinAddr: 0x1000171C0, symSize: 0x4C }
  - { offsetInCU: 0x4A718, offset: 0x4A718, size: 0x8, addend: 0x0, symName: __ZNSt3__1neB7v160006IP11DataEntryEQS2_EEbRKNS_16reverse_iteratorIT_EERKNS3_IT0_EE, symObjAddr: 0x150C8, symBinAddr: 0x100017250, symSize: 0x48 }
  - { offsetInCU: 0x4A764, offset: 0x4A764, size: 0x8, addend: 0x0, symName: __ZNSt3__112__to_addressB7v160006INS_16reverse_iteratorIP11DataEntryEQEEvEENS_5decayIDTclsr19__to_address_helperIT_EE6__callclsr3stdE7declvalIRKS6_EEEEE4typeES8_, symObjAddr: 0x15140, symBinAddr: 0x1000172C8, symSize: 0x24 }
  - { offsetInCU: 0x4A7C1, offset: 0x4A7C1, size: 0x8, addend: 0x0, symName: __ZNSt3__112construct_atB7v160006I11DataEntryEQJS1_EPS1_EEPT_S4_DpOT0_, symObjAddr: 0x15290, symBinAddr: 0x100017418, symSize: 0x3C }
  - { offsetInCU: 0x4A833, offset: 0x4A833, size: 0x8, addend: 0x0, symName: __ZNSt3__119__debug_db_insert_cB7v160006INS_6vectorINS1_IdNS_9allocatorIdEEEENS2_IS4_EEEEEEvPT_, symObjAddr: 0x156EC, symBinAddr: 0x100017874, symSize: 0x10 }
  - { offsetInCU: 0x4A864, offset: 0x4A864, size: 0x8, addend: 0x0, symName: __ZNSt3__115__debug_db_swapB7v160006INS_6vectorINS1_IdNS_9allocatorIdEEEENS2_IS4_EEEEEEvPT_S8_, symObjAddr: 0x156FC, symBinAddr: 0x100017884, symSize: 0x14 }
  - { offsetInCU: 0x4A8A3, offset: 0x4A8A3, size: 0x8, addend: 0x0, symName: __ZNSt3__115__debug_db_swapB7v160006INS_6vectorIdNS_9allocatorIdEEEEEEvPT_S6_, symObjAddr: 0x15900, symBinAddr: 0x100017A88, symSize: 0x14 }
  - { offsetInCU: 0x4A90C, offset: 0x4A90C, size: 0x8, addend: 0x0, symName: __ZNSt3__14prevB7v160006IP11DataEntryEQEENS_9enable_ifIXsr25__is_cpp17_input_iteratorIT_EE5valueES4_E4typeES4_NS_15iterator_traitsIS4_E15difference_typeE, symObjAddr: 0x159D4, symBinAddr: 0x100017B5C, symSize: 0x50 }
  - { offsetInCU: 0x4A94F, offset: 0x4A94F, size: 0x8, addend: 0x0, symName: __ZNSt3__19__advanceB7v160006IP11DataEntryEQEEvRT_NS_15iterator_traitsIS3_E15difference_typeENS_26random_access_iterator_tagE, symObjAddr: 0x15A74, symBinAddr: 0x100017BFC, symSize: 0x30 }
  - { offsetInCU: 0x4A99A, offset: 0x4A99A, size: 0x8, addend: 0x0, symName: __ZNSt3__119__allocator_destroyB7v160006INS_9allocatorI11DataEntryEQEENS_16reverse_iteratorINS4_IPS2_EEEES7_EEvRT_T0_T1_, symObjAddr: 0x15BA8, symBinAddr: 0x100017D30, symSize: 0x70 }
  - { offsetInCU: 0x4A9FF, offset: 0x4A9FF, size: 0x8, addend: 0x0, symName: __ZNSt3__1neB7v160006INS_16reverse_iteratorIP11DataEntryEQEES4_EEbRKNS1_IT_EERKNS1_IT0_EE, symObjAddr: 0x15C54, symBinAddr: 0x100017DDC, symSize: 0x60 }
  - { offsetInCU: 0x4AA4B, offset: 0x4AA4B, size: 0x8, addend: 0x0, symName: __ZNSt3__112__to_addressB7v160006INS_16reverse_iteratorINS1_IP11DataEntryEQEEEEvEENS_5decayIDTclsr19__to_address_helperIT_EE6__callclsr3stdE7declvalIRKS7_EEEEE4typeES9_, symObjAddr: 0x15CB4, symBinAddr: 0x100017E3C, symSize: 0x24 }
  - { offsetInCU: 0x4AAAB, offset: 0x4AAAB, size: 0x8, addend: 0x0, symName: __ZNSt3__14prevB7v160006INS_16reverse_iteratorIP11DataEntryEQEEEENS_9enable_ifIXsr25__is_cpp17_input_iteratorIT_EE5valueES6_E4typeES6_NS_15iterator_traitsIS6_E15difference_typeE, symObjAddr: 0x15DB0, symBinAddr: 0x100017F38, symSize: 0x60 }
  - { offsetInCU: 0x4AAEE, offset: 0x4AAEE, size: 0x8, addend: 0x0, symName: __ZNSt3__19__advanceB7v160006INS_16reverse_iteratorIP11DataEntryEQEEEEvRT_NS_15iterator_traitsIS5_E15difference_typeENS_26random_access_iterator_tagE, symObjAddr: 0x15E60, symBinAddr: 0x100017FE8, symSize: 0x2C }
  - { offsetInCU: 0x4AB38, offset: 0x4AB38, size: 0x8, addend: 0x0, symName: __ZNSt3__125__debug_db_invalidate_allB7v160006INS_6vectorI5EqlotNS_9allocatorIS2_EEEEEEvPT_, symObjAddr: 0x162D8, symBinAddr: 0x100018460, symSize: 0x10 }
  - { offsetInCU: 0x4AB6A, offset: 0x4AB6A, size: 0x8, addend: 0x0, symName: __ZNSt3__112__to_addressB7v160006I5EqlotEEPT_S3_, symObjAddr: 0x163C4, symBinAddr: 0x10001854C, symSize: 0x14 }
  - { offsetInCU: 0x4AB9E, offset: 0x4AB9E, size: 0x8, addend: 0x0, symName: __ZNSt3__110destroy_atB7v160006I5EqlotLi0EEEvPT_, symObjAddr: 0x163D8, symBinAddr: 0x100018560, symSize: 0x24 }
  - { offsetInCU: 0x4ABD5, offset: 0x4ABD5, size: 0x8, addend: 0x0, symName: __ZNSt3__112__destroy_atB7v160006I5EqlotLi0EEEvPT_, symObjAddr: 0x163FC, symBinAddr: 0x100018584, symSize: 0x24 }
  - { offsetInCU: 0x4AC0C, offset: 0x4AC0C, size: 0x8, addend: 0x0, symName: __ZNSt3__119__allocate_at_leastB7v160006INS_9allocatorI5EqlotEEEENS_19__allocation_resultINS_16allocator_traitsIT_E7pointerEEERS6_m, symObjAddr: 0x16968, symBinAddr: 0x100018AF0, symSize: 0x40 }
  - { offsetInCU: 0x4AC4F, offset: 0x4AC4F, size: 0x8, addend: 0x0, symName: __ZNSt3__142__uninitialized_allocator_move_if_noexceptB7v160006INS_9allocatorI5EqlotEENS_16reverse_iteratorIPS2_EES6_S6_EET2_RT_T0_T1_S7_, symObjAddr: 0x16C4C, symBinAddr: 0x100018DD4, symSize: 0x12C }
  - { offsetInCU: 0x4ACF0, offset: 0x4ACF0, size: 0x8, addend: 0x0, symName: __ZNSt3__14swapB7v160006IP5EqlotEENS_9enable_ifIXaasr21is_move_constructibleIT_EE5valuesr18is_move_assignableIS4_EE5valueEvE4typeERS4_S7_, symObjAddr: 0x16DC4, symBinAddr: 0x100018F4C, symSize: 0x3C }
  - { offsetInCU: 0x4AD40, offset: 0x4AD40, size: 0x8, addend: 0x0, symName: __ZNSt3__122__make_exception_guardB7v160006INS_29_AllocatorDestroyRangeReverseINS_9allocatorI5EqlotEENS_16reverse_iteratorIPS3_EEEEEENS_28__exception_guard_exceptionsIT_EESA_, symObjAddr: 0x16EF0, symBinAddr: 0x100019078, symSize: 0x4C }
  - { offsetInCU: 0x4AD76, offset: 0x4AD76, size: 0x8, addend: 0x0, symName: __ZNSt3__1neB7v160006IP5EqlotS2_EEbRKNS_16reverse_iteratorIT_EERKNS3_IT0_EE, symObjAddr: 0x16F80, symBinAddr: 0x100019108, symSize: 0x48 }
  - { offsetInCU: 0x4ADC2, offset: 0x4ADC2, size: 0x8, addend: 0x0, symName: __ZNSt3__112__to_addressB7v160006INS_16reverse_iteratorIP5EqlotEEvEENS_5decayIDTclsr19__to_address_helperIT_EE6__callclsr3stdE7declvalIRKS6_EEEEE4typeES8_, symObjAddr: 0x16FF8, symBinAddr: 0x100019180, symSize: 0x24 }
  - { offsetInCU: 0x4AE1F, offset: 0x4AE1F, size: 0x8, addend: 0x0, symName: __ZNSt3__112construct_atB7v160006I5EqlotJS1_EPS1_EEPT_S4_DpOT0_, symObjAddr: 0x17148, symBinAddr: 0x1000192D0, symSize: 0x3C }
  - { offsetInCU: 0x4AEBB, offset: 0x4AEBB, size: 0x8, addend: 0x0, symName: __ZNSt3__14prevB7v160006IP5EqlotEENS_9enable_ifIXsr25__is_cpp17_input_iteratorIT_EE5valueES4_E4typeES4_NS_15iterator_traitsIS4_E15difference_typeE, symObjAddr: 0x1748C, symBinAddr: 0x100019614, symSize: 0x50 }
  - { offsetInCU: 0x4AEFE, offset: 0x4AEFE, size: 0x8, addend: 0x0, symName: __ZNSt3__19__advanceB7v160006IP5EqlotEEvRT_NS_15iterator_traitsIS3_E15difference_typeENS_26random_access_iterator_tagE, symObjAddr: 0x1752C, symBinAddr: 0x1000196B4, symSize: 0x30 }
  - { offsetInCU: 0x4AF49, offset: 0x4AF49, size: 0x8, addend: 0x0, symName: __ZNSt3__119__allocator_destroyB7v160006INS_9allocatorI5EqlotEENS_16reverse_iteratorINS4_IPS2_EEEES7_EEvRT_T0_T1_, symObjAddr: 0x17660, symBinAddr: 0x1000197E8, symSize: 0x70 }
  - { offsetInCU: 0x4AFAE, offset: 0x4AFAE, size: 0x8, addend: 0x0, symName: __ZNSt3__1neB7v160006INS_16reverse_iteratorIP5EqlotEES4_EEbRKNS1_IT_EERKNS1_IT0_EE, symObjAddr: 0x1770C, symBinAddr: 0x100019894, symSize: 0x60 }
  - { offsetInCU: 0x4AFFA, offset: 0x4AFFA, size: 0x8, addend: 0x0, symName: __ZNSt3__112__to_addressB7v160006INS_16reverse_iteratorINS1_IP5EqlotEEEEvEENS_5decayIDTclsr19__to_address_helperIT_EE6__callclsr3stdE7declvalIRKS7_EEEEE4typeES9_, symObjAddr: 0x1776C, symBinAddr: 0x1000198F4, symSize: 0x24 }
  - { offsetInCU: 0x4B05A, offset: 0x4B05A, size: 0x8, addend: 0x0, symName: __ZNSt3__14prevB7v160006INS_16reverse_iteratorIP5EqlotEEEENS_9enable_ifIXsr25__is_cpp17_input_iteratorIT_EE5valueES6_E4typeES6_NS_15iterator_traitsIS6_E15difference_typeE, symObjAddr: 0x17868, symBinAddr: 0x1000199F0, symSize: 0x60 }
  - { offsetInCU: 0x4B09D, offset: 0x4B09D, size: 0x8, addend: 0x0, symName: __ZNSt3__19__advanceB7v160006INS_16reverse_iteratorIP5EqlotEEEEvRT_NS_15iterator_traitsIS5_E15difference_typeENS_26random_access_iterator_tagE, symObjAddr: 0x17918, symBinAddr: 0x100019AA0, symSize: 0x2C }
  - { offsetInCU: 0x4B0E7, offset: 0x4B0E7, size: 0x8, addend: 0x0, symName: __ZNSt3__125__debug_db_invalidate_allB7v160006INS_6vectorI8InlineTRNS_9allocatorIS2_EEEEEEvPT_, symObjAddr: 0x17D90, symBinAddr: 0x100019F18, symSize: 0x10 }
  - { offsetInCU: 0x4B119, offset: 0x4B119, size: 0x8, addend: 0x0, symName: __ZNSt3__112__to_addressB7v160006I8InlineTREEPT_S3_, symObjAddr: 0x17E7C, symBinAddr: 0x10001A004, symSize: 0x14 }
  - { offsetInCU: 0x4B14D, offset: 0x4B14D, size: 0x8, addend: 0x0, symName: __ZNSt3__110destroy_atB7v160006I8InlineTRLi0EEEvPT_, symObjAddr: 0x17E90, symBinAddr: 0x10001A018, symSize: 0x24 }
  - { offsetInCU: 0x4B184, offset: 0x4B184, size: 0x8, addend: 0x0, symName: __ZNSt3__112__destroy_atB7v160006I8InlineTRLi0EEEvPT_, symObjAddr: 0x17EB4, symBinAddr: 0x10001A03C, symSize: 0x24 }
  - { offsetInCU: 0x4B1BB, offset: 0x4B1BB, size: 0x8, addend: 0x0, symName: __ZNSt3__119__allocate_at_leastB7v160006INS_9allocatorI8InlineTREEEENS_19__allocation_resultINS_16allocator_traitsIT_E7pointerEEERS6_m, symObjAddr: 0x183B4, symBinAddr: 0x10001A53C, symSize: 0x40 }
  - { offsetInCU: 0x4B1FE, offset: 0x4B1FE, size: 0x8, addend: 0x0, symName: __ZNSt3__142__uninitialized_allocator_move_if_noexceptB7v160006INS_9allocatorI8InlineTREENS_16reverse_iteratorIPS2_EES6_S6_EET2_RT_T0_T1_S7_, symObjAddr: 0x18698, symBinAddr: 0x10001A820, symSize: 0x12C }
  - { offsetInCU: 0x4B29F, offset: 0x4B29F, size: 0x8, addend: 0x0, symName: __ZNSt3__14swapB7v160006IP8InlineTREENS_9enable_ifIXaasr21is_move_constructibleIT_EE5valuesr18is_move_assignableIS4_EE5valueEvE4typeERS4_S7_, symObjAddr: 0x18810, symBinAddr: 0x10001A998, symSize: 0x3C }
  - { offsetInCU: 0x4B2EF, offset: 0x4B2EF, size: 0x8, addend: 0x0, symName: __ZNSt3__122__make_exception_guardB7v160006INS_29_AllocatorDestroyRangeReverseINS_9allocatorI8InlineTREENS_16reverse_iteratorIPS3_EEEEEENS_28__exception_guard_exceptionsIT_EESA_, symObjAddr: 0x1893C, symBinAddr: 0x10001AAC4, symSize: 0x4C }
  - { offsetInCU: 0x4B325, offset: 0x4B325, size: 0x8, addend: 0x0, symName: __ZNSt3__1neB7v160006IP8InlineTRS2_EEbRKNS_16reverse_iteratorIT_EERKNS3_IT0_EE, symObjAddr: 0x189CC, symBinAddr: 0x10001AB54, symSize: 0x48 }
  - { offsetInCU: 0x4B371, offset: 0x4B371, size: 0x8, addend: 0x0, symName: __ZNSt3__112__to_addressB7v160006INS_16reverse_iteratorIP8InlineTREEvEENS_5decayIDTclsr19__to_address_helperIT_EE6__callclsr3stdE7declvalIRKS6_EEEEE4typeES8_, symObjAddr: 0x18A44, symBinAddr: 0x10001ABCC, symSize: 0x24 }
  - { offsetInCU: 0x4B3CE, offset: 0x4B3CE, size: 0x8, addend: 0x0, symName: __ZNSt3__112construct_atB7v160006I8InlineTRJS1_EPS1_EEPT_S4_DpOT0_, symObjAddr: 0x18B94, symBinAddr: 0x10001AD1C, symSize: 0x3C }
  - { offsetInCU: 0x4B46A, offset: 0x4B46A, size: 0x8, addend: 0x0, symName: __ZNSt3__14prevB7v160006IP8InlineTREENS_9enable_ifIXsr25__is_cpp17_input_iteratorIT_EE5valueES4_E4typeES4_NS_15iterator_traitsIS4_E15difference_typeE, symObjAddr: 0x18DDC, symBinAddr: 0x10001AF64, symSize: 0x50 }
  - { offsetInCU: 0x4B4AD, offset: 0x4B4AD, size: 0x8, addend: 0x0, symName: __ZNSt3__19__advanceB7v160006IP8InlineTREEvRT_NS_15iterator_traitsIS3_E15difference_typeENS_26random_access_iterator_tagE, symObjAddr: 0x18E7C, symBinAddr: 0x10001B004, symSize: 0x30 }
  - { offsetInCU: 0x4B4F8, offset: 0x4B4F8, size: 0x8, addend: 0x0, symName: __ZNSt3__119__allocator_destroyB7v160006INS_9allocatorI8InlineTREENS_16reverse_iteratorINS4_IPS2_EEEES7_EEvRT_T0_T1_, symObjAddr: 0x18FB0, symBinAddr: 0x10001B138, symSize: 0x70 }
  - { offsetInCU: 0x4B55D, offset: 0x4B55D, size: 0x8, addend: 0x0, symName: __ZNSt3__1neB7v160006INS_16reverse_iteratorIP8InlineTREES4_EEbRKNS1_IT_EERKNS1_IT0_EE, symObjAddr: 0x1905C, symBinAddr: 0x10001B1E4, symSize: 0x60 }
  - { offsetInCU: 0x4B5A9, offset: 0x4B5A9, size: 0x8, addend: 0x0, symName: __ZNSt3__112__to_addressB7v160006INS_16reverse_iteratorINS1_IP8InlineTREEEEvEENS_5decayIDTclsr19__to_address_helperIT_EE6__callclsr3stdE7declvalIRKS7_EEEEE4typeES9_, symObjAddr: 0x190BC, symBinAddr: 0x10001B244, symSize: 0x24 }
  - { offsetInCU: 0x4B609, offset: 0x4B609, size: 0x8, addend: 0x0, symName: __ZNSt3__14prevB7v160006INS_16reverse_iteratorIP8InlineTREEEENS_9enable_ifIXsr25__is_cpp17_input_iteratorIT_EE5valueES6_E4typeES6_NS_15iterator_traitsIS6_E15difference_typeE, symObjAddr: 0x191B8, symBinAddr: 0x10001B340, symSize: 0x60 }
  - { offsetInCU: 0x4B64C, offset: 0x4B64C, size: 0x8, addend: 0x0, symName: __ZNSt3__19__advanceB7v160006INS_16reverse_iteratorIP8InlineTREEEEvRT_NS_15iterator_traitsIS5_E15difference_typeENS_26random_access_iterator_tagE, symObjAddr: 0x19268, symBinAddr: 0x10001B3F0, symSize: 0x2C }
  - { offsetInCU: 0x4B696, offset: 0x4B696, size: 0x8, addend: 0x0, symName: __ZNSt3__125__debug_db_invalidate_allB7v160006INS_6vectorI3WATNS_9allocatorIS2_EEEEEEvPT_, symObjAddr: 0x196E0, symBinAddr: 0x10001B868, symSize: 0x10 }
  - { offsetInCU: 0x4B6C8, offset: 0x4B6C8, size: 0x8, addend: 0x0, symName: __ZNSt3__112__to_addressB7v160006I3WATEEPT_S3_, symObjAddr: 0x197CC, symBinAddr: 0x10001B954, symSize: 0x14 }
  - { offsetInCU: 0x4B6FC, offset: 0x4B6FC, size: 0x8, addend: 0x0, symName: __ZNSt3__110destroy_atB7v160006I3WATLi0EEEvPT_, symObjAddr: 0x197E0, symBinAddr: 0x10001B968, symSize: 0x24 }
  - { offsetInCU: 0x4B733, offset: 0x4B733, size: 0x8, addend: 0x0, symName: __ZNSt3__112__destroy_atB7v160006I3WATLi0EEEvPT_, symObjAddr: 0x19804, symBinAddr: 0x10001B98C, symSize: 0x24 }
  - { offsetInCU: 0x4B76A, offset: 0x4B76A, size: 0x8, addend: 0x0, symName: __ZNSt3__119__allocate_at_leastB7v160006INS_9allocatorI3WATEEEENS_19__allocation_resultINS_16allocator_traitsIT_E7pointerEEERS6_m, symObjAddr: 0x19CE4, symBinAddr: 0x10001BE6C, symSize: 0x40 }
  - { offsetInCU: 0x4B7AD, offset: 0x4B7AD, size: 0x8, addend: 0x0, symName: __ZNSt3__142__uninitialized_allocator_move_if_noexceptB7v160006INS_9allocatorI3WATEENS_16reverse_iteratorIPS2_EES6_S6_EET2_RT_T0_T1_S7_, symObjAddr: 0x19FC8, symBinAddr: 0x10001C150, symSize: 0x12C }
  - { offsetInCU: 0x4B84E, offset: 0x4B84E, size: 0x8, addend: 0x0, symName: __ZNSt3__14swapB7v160006IP3WATEENS_9enable_ifIXaasr21is_move_constructibleIT_EE5valuesr18is_move_assignableIS4_EE5valueEvE4typeERS4_S7_, symObjAddr: 0x1A140, symBinAddr: 0x10001C2C8, symSize: 0x3C }
  - { offsetInCU: 0x4B89E, offset: 0x4B89E, size: 0x8, addend: 0x0, symName: __ZNSt3__122__make_exception_guardB7v160006INS_29_AllocatorDestroyRangeReverseINS_9allocatorI3WATEENS_16reverse_iteratorIPS3_EEEEEENS_28__exception_guard_exceptionsIT_EESA_, symObjAddr: 0x1A26C, symBinAddr: 0x10001C3F4, symSize: 0x4C }
  - { offsetInCU: 0x4B8D4, offset: 0x4B8D4, size: 0x8, addend: 0x0, symName: __ZNSt3__1neB7v160006IP3WATS2_EEbRKNS_16reverse_iteratorIT_EERKNS3_IT0_EE, symObjAddr: 0x1A2FC, symBinAddr: 0x10001C484, symSize: 0x48 }
  - { offsetInCU: 0x4B920, offset: 0x4B920, size: 0x8, addend: 0x0, symName: __ZNSt3__112__to_addressB7v160006INS_16reverse_iteratorIP3WATEEvEENS_5decayIDTclsr19__to_address_helperIT_EE6__callclsr3stdE7declvalIRKS6_EEEEE4typeES8_, symObjAddr: 0x1A374, symBinAddr: 0x10001C4FC, symSize: 0x24 }
  - { offsetInCU: 0x4B97D, offset: 0x4B97D, size: 0x8, addend: 0x0, symName: __ZNSt3__112construct_atB7v160006I3WATJS1_EPS1_EEPT_S4_DpOT0_, symObjAddr: 0x1A4C4, symBinAddr: 0x10001C64C, symSize: 0x3C }
  - { offsetInCU: 0x4BA19, offset: 0x4BA19, size: 0x8, addend: 0x0, symName: __ZNSt3__14prevB7v160006IP3WATEENS_9enable_ifIXsr25__is_cpp17_input_iteratorIT_EE5valueES4_E4typeES4_NS_15iterator_traitsIS4_E15difference_typeE, symObjAddr: 0x1A71C, symBinAddr: 0x10001C8A4, symSize: 0x50 }
  - { offsetInCU: 0x4BA5C, offset: 0x4BA5C, size: 0x8, addend: 0x0, symName: __ZNSt3__19__advanceB7v160006IP3WATEEvRT_NS_15iterator_traitsIS3_E15difference_typeENS_26random_access_iterator_tagE, symObjAddr: 0x1A7BC, symBinAddr: 0x10001C944, symSize: 0x30 }
  - { offsetInCU: 0x4BAA7, offset: 0x4BAA7, size: 0x8, addend: 0x0, symName: __ZNSt3__119__allocator_destroyB7v160006INS_9allocatorI3WATEENS_16reverse_iteratorINS4_IPS2_EEEES7_EEvRT_T0_T1_, symObjAddr: 0x1A8F0, symBinAddr: 0x10001CA78, symSize: 0x70 }
  - { offsetInCU: 0x4BB0C, offset: 0x4BB0C, size: 0x8, addend: 0x0, symName: __ZNSt3__1neB7v160006INS_16reverse_iteratorIP3WATEES4_EEbRKNS1_IT_EERKNS1_IT0_EE, symObjAddr: 0x1A99C, symBinAddr: 0x10001CB24, symSize: 0x60 }
  - { offsetInCU: 0x4BB58, offset: 0x4BB58, size: 0x8, addend: 0x0, symName: __ZNSt3__112__to_addressB7v160006INS_16reverse_iteratorINS1_IP3WATEEEEvEENS_5decayIDTclsr19__to_address_helperIT_EE6__callclsr3stdE7declvalIRKS7_EEEEE4typeES9_, symObjAddr: 0x1A9FC, symBinAddr: 0x10001CB84, symSize: 0x24 }
  - { offsetInCU: 0x4BBB8, offset: 0x4BBB8, size: 0x8, addend: 0x0, symName: __ZNSt3__14prevB7v160006INS_16reverse_iteratorIP3WATEEEENS_9enable_ifIXsr25__is_cpp17_input_iteratorIT_EE5valueES6_E4typeES6_NS_15iterator_traitsIS6_E15difference_typeE, symObjAddr: 0x1AAF8, symBinAddr: 0x10001CC80, symSize: 0x60 }
  - { offsetInCU: 0x4BBFB, offset: 0x4BBFB, size: 0x8, addend: 0x0, symName: __ZNSt3__19__advanceB7v160006INS_16reverse_iteratorIP3WATEEEEvRT_NS_15iterator_traitsIS5_E15difference_typeENS_26random_access_iterator_tagE, symObjAddr: 0x1ABA8, symBinAddr: 0x10001CD30, symSize: 0x2C }
  - { offsetInCU: 0x4BC45, offset: 0x4BC45, size: 0x8, addend: 0x0, symName: __ZNSt3__1eqB7v160006IcNS_11char_traitsIcEEEEbNS_17basic_string_viewIT_T0_EES6_, symObjAddr: 0x1AF00, symBinAddr: 0x10001D088, symSize: 0xB0 }
  - { offsetInCU: 0x4BC94, offset: 0x4BC94, size: 0x8, addend: 0x0, symName: __ZNSt3__128__char_traits_length_checkedB7v160006INS_11char_traitsIcEEEEmPKNT_9char_typeE, symObjAddr: 0x1B270, symBinAddr: 0x10001D3F8, symSize: 0x24 }
  - { offsetInCU: 0x4BCC9, offset: 0x4BCC9, size: 0x8, addend: 0x0, symName: __ZNSt3__118__debug_db_erase_cB7v160006INS_6vectorINS_5tupleIJ3WAT8InlineTR11DataEntryEQ5EqlotEEENS_9allocatorIS7_EEEEEEvPT_, symObjAddr: 0x1B53C, symBinAddr: 0x10001D6C4, symSize: 0x10 }
  - { offsetInCU: 0x4BCFB, offset: 0x4BCFB, size: 0x8, addend: 0x0, symName: __ZNSt3__112__to_addressB7v160006INS_5tupleIJ3WAT8InlineTR11DataEntryEQ5EqlotEEEEEPT_S8_, symObjAddr: 0x1B680, symBinAddr: 0x10001D808, symSize: 0x14 }
  - { offsetInCU: 0x4BD2F, offset: 0x4BD2F, size: 0x8, addend: 0x0, symName: __ZNSt3__110destroy_atB7v160006INS_5tupleIJ3WAT8InlineTR11DataEntryEQ5EqlotEEELi0EEEvPT_, symObjAddr: 0x1B748, symBinAddr: 0x10001D8D0, symSize: 0x24 }
  - { offsetInCU: 0x4BD66, offset: 0x4BD66, size: 0x8, addend: 0x0, symName: __ZNSt3__112__destroy_atB7v160006INS_5tupleIJ3WAT8InlineTR11DataEntryEQ5EqlotEEELi0EEEvPT_, symObjAddr: 0x1B76C, symBinAddr: 0x10001D8F4, symSize: 0x24 }
  - { offsetInCU: 0x4BD9D, offset: 0x4BD9D, size: 0x8, addend: 0x0, symName: __ZNSt3__118__debug_db_erase_cB7v160006INS_6vectorI5EqlotNS_9allocatorIS2_EEEEEEvPT_, symObjAddr: 0x1BB24, symBinAddr: 0x10001DCAC, symSize: 0x10 }
  - { offsetInCU: 0x4BDCE, offset: 0x4BDCE, size: 0x8, addend: 0x0, symName: __ZNSt3__118__debug_db_erase_cB7v160006INS_6vectorI11DataEntryEQNS_9allocatorIS2_EEEEEEvPT_, symObjAddr: 0x1BC68, symBinAddr: 0x10001DDF0, symSize: 0x10 }
  - { offsetInCU: 0x4BDFF, offset: 0x4BDFF, size: 0x8, addend: 0x0, symName: __ZNSt3__118__debug_db_erase_cB7v160006INS_6vectorI8InlineTRNS_9allocatorIS2_EEEEEEvPT_, symObjAddr: 0x1BDAC, symBinAddr: 0x10001DF34, symSize: 0x10 }
  - { offsetInCU: 0x4BE30, offset: 0x4BE30, size: 0x8, addend: 0x0, symName: __ZNSt3__118__debug_db_erase_cB7v160006INS_6vectorI3WATNS_9allocatorIS2_EEEEEEvPT_, symObjAddr: 0x1BEF0, symBinAddr: 0x10001E078, symSize: 0x10 }
  - { offsetInCU: 0x4BE61, offset: 0x4BE61, size: 0x8, addend: 0x0, symName: __ZNSt3__118__debug_db_erase_cB7v160006INS_6vectorINS_5tupleIJ8InlineTR11DataEntryEQ5EqlotEEENS_9allocatorIS6_EEEEEEvPT_, symObjAddr: 0x1C108, symBinAddr: 0x10001E290, symSize: 0x10 }
  - { offsetInCU: 0x4BE93, offset: 0x4BE93, size: 0x8, addend: 0x0, symName: __ZNSt3__112__to_addressB7v160006INS_5tupleIJ8InlineTR11DataEntryEQ5EqlotEEEEEPT_S7_, symObjAddr: 0x1C24C, symBinAddr: 0x10001E3D4, symSize: 0x14 }
  - { offsetInCU: 0x4BEC7, offset: 0x4BEC7, size: 0x8, addend: 0x0, symName: __ZNSt3__110destroy_atB7v160006INS_5tupleIJ8InlineTR11DataEntryEQ5EqlotEEELi0EEEvPT_, symObjAddr: 0x1C314, symBinAddr: 0x10001E49C, symSize: 0x24 }
  - { offsetInCU: 0x4BEFE, offset: 0x4BEFE, size: 0x8, addend: 0x0, symName: __ZNSt3__112__destroy_atB7v160006INS_5tupleIJ8InlineTR11DataEntryEQ5EqlotEEELi0EEEvPT_, symObjAddr: 0x1C338, symBinAddr: 0x10001E4C0, symSize: 0x24 }
  - { offsetInCU: 0x4BF35, offset: 0x4BF35, size: 0x8, addend: 0x0, symName: __ZNSt3__118__debug_db_erase_cB7v160006INS_6vectorINS_5tupleIJ6Defect11DataEntryEQ5EqlotEEENS_9allocatorIS6_EEEEEEvPT_, symObjAddr: 0x1C78C, symBinAddr: 0x10001E914, symSize: 0x10 }
  - { offsetInCU: 0x4BF67, offset: 0x4BF67, size: 0x8, addend: 0x0, symName: __ZNSt3__112__to_addressB7v160006INS_5tupleIJ6Defect11DataEntryEQ5EqlotEEEEEPT_S7_, symObjAddr: 0x1C8D0, symBinAddr: 0x10001EA58, symSize: 0x14 }
  - { offsetInCU: 0x4BF9B, offset: 0x4BF9B, size: 0x8, addend: 0x0, symName: __ZNSt3__110destroy_atB7v160006INS_5tupleIJ6Defect11DataEntryEQ5EqlotEEELi0EEEvPT_, symObjAddr: 0x1C998, symBinAddr: 0x10001EB20, symSize: 0x24 }
  - { offsetInCU: 0x4BFD2, offset: 0x4BFD2, size: 0x8, addend: 0x0, symName: __ZNSt3__112__destroy_atB7v160006INS_5tupleIJ6Defect11DataEntryEQ5EqlotEEELi0EEEvPT_, symObjAddr: 0x1C9BC, symBinAddr: 0x10001EB44, symSize: 0x24 }
  - { offsetInCU: 0x4C009, offset: 0x4C009, size: 0x8, addend: 0x0, symName: __ZNSt3__118__debug_db_erase_cB7v160006INS_6vectorI6DefectNS_9allocatorIS2_EEEEEEvPT_, symObjAddr: 0x1CCE4, symBinAddr: 0x10001EE6C, symSize: 0x10 }
  - { offsetInCU: 0x4C03A, offset: 0x4C03A, size: 0x8, addend: 0x0, symName: __ZNSt3__119__debug_db_insert_cB7v160006INS_13unordered_mapINS_12basic_stringIcNS_11char_traitsIcEENS_9allocatorIcEEEEbNS_4hashIS7_EENS_8equal_toIS7_EENS5_INS_4pairIKS7_bEEEEEEEEvPT_, symObjAddr: 0x1CDB4, symBinAddr: 0x10001EF3C, symSize: 0x10 }
  - { offsetInCU: 0x4C06C, offset: 0x4C06C, size: 0x8, addend: 0x0, symName: __ZNSt3__116__constrain_hashB7v160006Emm, symObjAddr: 0x1DA2C, symBinAddr: 0x10001FBB4, symSize: 0x98 }
  - { offsetInCU: 0x4C0A6, offset: 0x4C0A6, size: 0x8, addend: 0x0, symName: __ZNSt3__116__is_hash_power2B7v160006Em, symObjAddr: 0x1DD60, symBinAddr: 0x10001FEE8, symSize: 0x50 }
  - { offsetInCU: 0x4C0D1, offset: 0x4C0D1, size: 0x8, addend: 0x0, symName: __ZNSt3__116__do_string_hashB7v160006IPKcEEmT_S3_, symObjAddr: 0x1DFE4, symBinAddr: 0x10002016C, symSize: 0x3C }
  - { offsetInCU: 0x4C118, offset: 0x4C118, size: 0x8, addend: 0x0, symName: __ZNSt3__110__loadwordB7v160006ImEET_PKv, symObjAddr: 0x1E9D8, symBinAddr: 0x100020B60, symSize: 0x20 }
  - { offsetInCU: 0x4C15B, offset: 0x4C15B, size: 0x8, addend: 0x0, symName: __ZNSt3__14swapB7v160006ImEENS_9enable_ifIXaasr21is_move_constructibleIT_EE5valuesr18is_move_assignableIS2_EE5valueEvE4typeERS2_S5_, symObjAddr: 0x1EB94, symBinAddr: 0x100020D1C, symSize: 0x3C }
  - { offsetInCU: 0x4C1AC, offset: 0x4C1AC, size: 0x8, addend: 0x0, symName: __ZNSt3__110__loadwordB7v160006IjEET_PKv, symObjAddr: 0x1EC24, symBinAddr: 0x100020DAC, symSize: 0x20 }
  - { offsetInCU: 0x4C1EE, offset: 0x4C1EE, size: 0x8, addend: 0x0, symName: __ZNSt3__17launderB7v160006IKNS_4pairIKNS_12basic_stringIcNS_11char_traitsIcEENS_9allocatorIcEEEEbEEEEPT_SC_, symObjAddr: 0x1EF14, symBinAddr: 0x10002109C, symSize: 0x24 }
  - { offsetInCU: 0x4C226, offset: 0x4C226, size: 0x8, addend: 0x0, symName: __ZNSt3__19__launderB7v160006IKNS_4pairIKNS_12basic_stringIcNS_11char_traitsIcEENS_9allocatorIcEEEEbEEEEPT_SC_, symObjAddr: 0x1EF38, symBinAddr: 0x1000210C0, symSize: 0x14 }
  - { offsetInCU: 0x4C2D4, offset: 0x4C2D4, size: 0x8, addend: 0x0, symName: __ZNSt3__112construct_atB7v160006INS_4pairIKNS_12basic_stringIcNS_11char_traitsIcEENS_9allocatorIcEEEEbEEJRKS9_EPS9_EEPT_SE_DpOT0_, symObjAddr: 0x1F2B8, symBinAddr: 0x100021440, symSize: 0x3C }
  - { offsetInCU: 0x4C346, offset: 0x4C346, size: 0x8, addend: 0x0, symName: __ZNSt3__17launderB7v160006INS_4pairIKNS_12basic_stringIcNS_11char_traitsIcEENS_9allocatorIcEEEEbEEEEPT_SB_, symObjAddr: 0x1F390, symBinAddr: 0x100021518, symSize: 0x24 }
  - { offsetInCU: 0x4C37E, offset: 0x4C37E, size: 0x8, addend: 0x0, symName: __ZNSt3__19__launderB7v160006INS_4pairIKNS_12basic_stringIcNS_11char_traitsIcEENS_9allocatorIcEEEEbEEEEPT_SB_, symObjAddr: 0x1F3B4, symBinAddr: 0x10002153C, symSize: 0x14 }
  - { offsetInCU: 0x4C3B4, offset: 0x4C3B4, size: 0x8, addend: 0x0, symName: __ZNSt3__116__next_hash_pow2B7v160006Em, symObjAddr: 0x1F8AC, symBinAddr: 0x100021A34, symSize: 0x6C }
  - { offsetInCU: 0x4C3E0, offset: 0x4C3E0, size: 0x8, addend: 0x0, symName: __ZNSt3__125__debug_db_invalidate_allB7v160006INS_12__hash_tableINS_17__hash_value_typeINS_12basic_stringIcNS_11char_traitsIcEENS_9allocatorIcEEEEbEENS_22__unordered_map_hasherIS8_S9_NS_4hashIS8_EENS_8equal_toIS8_EELb1EEENS_21__unordered_map_equalIS8_S9_SE_SC_Lb1EEENS6_IS9_EEEEEEvPT_, symObjAddr: 0x1F918, symBinAddr: 0x100021AA0, symSize: 0x10 }
  - { offsetInCU: 0x4C411, offset: 0x4C411, size: 0x8, addend: 0x0, symName: __ZNSt3__110destroy_atB7v160006INS_4pairIKNS_12basic_stringIcNS_11char_traitsIcEENS_9allocatorIcEEEEbEELi0EEEvPT_, symObjAddr: 0x1FE74, symBinAddr: 0x100021FFC, symSize: 0x24 }
  - { offsetInCU: 0x4C448, offset: 0x4C448, size: 0x8, addend: 0x0, symName: __ZNSt3__112__destroy_atB7v160006INS_4pairIKNS_12basic_stringIcNS_11char_traitsIcEENS_9allocatorIcEEEEbEELi0EEEvPT_, symObjAddr: 0x1FE98, symBinAddr: 0x100022020, symSize: 0x24 }
  - { offsetInCU: 0x4C47F, offset: 0x4C47F, size: 0x8, addend: 0x0, symName: __ZNSt3__118__debug_db_erase_cB7v160006INS_12__hash_tableINS_17__hash_value_typeINS_12basic_stringIcNS_11char_traitsIcEENS_9allocatorIcEEEEbEENS_22__unordered_map_hasherIS8_S9_NS_4hashIS8_EENS_8equal_toIS8_EELb1EEENS_21__unordered_map_equalIS8_S9_SE_SC_Lb1EEENS6_IS9_EEEEEEvPT_, symObjAddr: 0x2005C, symBinAddr: 0x1000221E4, symSize: 0x10 }
  - { offsetInCU: 0x4C4B0, offset: 0x4C4B0, size: 0x8, addend: 0x0, symName: __ZNSt3__119__debug_db_insert_cB7v160006INS_13unordered_mapINS_12basic_stringIcNS_11char_traitsIcEENS_9allocatorIcEEEES7_NS_4hashIS7_EENS_8equal_toIS7_EENS5_INS_4pairIKS7_S7_EEEEEEEEvPT_, symObjAddr: 0x20220, symBinAddr: 0x1000223A8, symSize: 0x10 }
  - { offsetInCU: 0x4C4E1, offset: 0x4C4E1, size: 0x8, addend: 0x0, symName: __ZNSt3__17launderB7v160006IKNS_4pairIKNS_12basic_stringIcNS_11char_traitsIcEENS_9allocatorIcEEEES7_EEEEPT_SC_, symObjAddr: 0x213D0, symBinAddr: 0x100023558, symSize: 0x24 }
  - { offsetInCU: 0x4C519, offset: 0x4C519, size: 0x8, addend: 0x0, symName: __ZNSt3__19__launderB7v160006IKNS_4pairIKNS_12basic_stringIcNS_11char_traitsIcEENS_9allocatorIcEEEES7_EEEEPT_SC_, symObjAddr: 0x213F4, symBinAddr: 0x10002357C, symSize: 0x14 }
  - { offsetInCU: 0x4C5C7, offset: 0x4C5C7, size: 0x8, addend: 0x0, symName: __ZNSt3__112construct_atB7v160006INS_4pairIKNS_12basic_stringIcNS_11char_traitsIcEENS_9allocatorIcEEEES7_EEJRKS9_EPS9_EEPT_SE_DpOT0_, symObjAddr: 0x21770, symBinAddr: 0x1000238F8, symSize: 0x3C }
  - { offsetInCU: 0x4C639, offset: 0x4C639, size: 0x8, addend: 0x0, symName: __ZNSt3__17launderB7v160006INS_4pairIKNS_12basic_stringIcNS_11char_traitsIcEENS_9allocatorIcEEEES7_EEEEPT_SB_, symObjAddr: 0x21874, symBinAddr: 0x1000239FC, symSize: 0x24 }
  - { offsetInCU: 0x4C671, offset: 0x4C671, size: 0x8, addend: 0x0, symName: __ZNSt3__19__launderB7v160006INS_4pairIKNS_12basic_stringIcNS_11char_traitsIcEENS_9allocatorIcEEEES7_EEEEPT_SB_, symObjAddr: 0x21898, symBinAddr: 0x100023A20, symSize: 0x14 }
  - { offsetInCU: 0x4C6A7, offset: 0x4C6A7, size: 0x8, addend: 0x0, symName: __ZNSt3__125__debug_db_invalidate_allB7v160006INS_12__hash_tableINS_17__hash_value_typeINS_12basic_stringIcNS_11char_traitsIcEENS_9allocatorIcEEEES8_EENS_22__unordered_map_hasherIS8_S9_NS_4hashIS8_EENS_8equal_toIS8_EELb1EEENS_21__unordered_map_equalIS8_S9_SE_SC_Lb1EEENS6_IS9_EEEEEEvPT_, symObjAddr: 0x21D68, symBinAddr: 0x100023EF0, symSize: 0x10 }
  - { offsetInCU: 0x4C6D8, offset: 0x4C6D8, size: 0x8, addend: 0x0, symName: __ZNSt3__110destroy_atB7v160006INS_4pairIKNS_12basic_stringIcNS_11char_traitsIcEENS_9allocatorIcEEEES7_EELi0EEEvPT_, symObjAddr: 0x222C4, symBinAddr: 0x10002444C, symSize: 0x24 }
  - { offsetInCU: 0x4C70F, offset: 0x4C70F, size: 0x8, addend: 0x0, symName: __ZNSt3__112__destroy_atB7v160006INS_4pairIKNS_12basic_stringIcNS_11char_traitsIcEENS_9allocatorIcEEEES7_EELi0EEEvPT_, symObjAddr: 0x222E8, symBinAddr: 0x100024470, symSize: 0x24 }
  - { offsetInCU: 0x4C746, offset: 0x4C746, size: 0x8, addend: 0x0, symName: __ZNSt3__118__debug_db_erase_cB7v160006INS_12__hash_tableINS_17__hash_value_typeINS_12basic_stringIcNS_11char_traitsIcEENS_9allocatorIcEEEES8_EENS_22__unordered_map_hasherIS8_S9_NS_4hashIS8_EENS_8equal_toIS8_EELb1EEENS_21__unordered_map_equalIS8_S9_SE_SC_Lb1EEENS6_IS9_EEEEEEvPT_, symObjAddr: 0x224A8, symBinAddr: 0x100024630, symSize: 0x10 }
  - { offsetInCU: 0x4C777, offset: 0x4C777, size: 0x8, addend: 0x0, symName: __ZNSt3__119__debug_db_insert_cB7v160006INS_13unordered_mapINS_12basic_stringIcNS_11char_traitsIcEENS_9allocatorIcEEEENS_6vectorIS7_NS5_IS7_EEEENS_4hashIS7_EENS_8equal_toIS7_EENS5_INS_4pairIKS7_SA_EEEEEEEEvPT_, symObjAddr: 0x2266C, symBinAddr: 0x1000247F4, symSize: 0x10 }
  - { offsetInCU: 0x4C7A8, offset: 0x4C7A8, size: 0x8, addend: 0x0, symName: __ZNSt3__17launderB7v160006IKNS_4pairIKNS_12basic_stringIcNS_11char_traitsIcEENS_9allocatorIcEEEENS_6vectorIS7_NS5_IS7_EEEEEEEEPT_SF_, symObjAddr: 0x2381C, symBinAddr: 0x1000259A4, symSize: 0x24 }
  - { offsetInCU: 0x4C7E0, offset: 0x4C7E0, size: 0x8, addend: 0x0, symName: __ZNSt3__19__launderB7v160006IKNS_4pairIKNS_12basic_stringIcNS_11char_traitsIcEENS_9allocatorIcEEEENS_6vectorIS7_NS5_IS7_EEEEEEEEPT_SF_, symObjAddr: 0x23840, symBinAddr: 0x1000259C8, symSize: 0x14 }
  - { offsetInCU: 0x4C88E, offset: 0x4C88E, size: 0x8, addend: 0x0, symName: __ZNSt3__112construct_atB7v160006INS_4pairIKNS_12basic_stringIcNS_11char_traitsIcEENS_9allocatorIcEEEENS_6vectorIS7_NS5_IS7_EEEEEEJRKSC_EPSC_EEPT_SH_DpOT0_, symObjAddr: 0x23BBC, symBinAddr: 0x100025D44, symSize: 0x3C }
  - { offsetInCU: 0x4C900, offset: 0x4C900, size: 0x8, addend: 0x0, symName: __ZNSt3__17launderB7v160006INS_4pairIKNS_12basic_stringIcNS_11char_traitsIcEENS_9allocatorIcEEEENS_6vectorIS7_NS5_IS7_EEEEEEEEPT_SE_, symObjAddr: 0x23CC0, symBinAddr: 0x100025E48, symSize: 0x24 }
  - { offsetInCU: 0x4C938, offset: 0x4C938, size: 0x8, addend: 0x0, symName: __ZNSt3__19__launderB7v160006INS_4pairIKNS_12basic_stringIcNS_11char_traitsIcEENS_9allocatorIcEEEENS_6vectorIS7_NS5_IS7_EEEEEEEEPT_SE_, symObjAddr: 0x23CE4, symBinAddr: 0x100025E6C, symSize: 0x14 }
  - { offsetInCU: 0x4C96E, offset: 0x4C96E, size: 0x8, addend: 0x0, symName: __ZNSt3__125__debug_db_invalidate_allB7v160006INS_12__hash_tableINS_17__hash_value_typeINS_12basic_stringIcNS_11char_traitsIcEENS_9allocatorIcEEEENS_6vectorIS8_NS6_IS8_EEEEEENS_22__unordered_map_hasherIS8_SC_NS_4hashIS8_EENS_8equal_toIS8_EELb1EEENS_21__unordered_map_equalIS8_SC_SH_SF_Lb1EEENS6_ISC_EEEEEEvPT_, symObjAddr: 0x241B4, symBinAddr: 0x10002633C, symSize: 0x10 }
  - { offsetInCU: 0x4C99F, offset: 0x4C99F, size: 0x8, addend: 0x0, symName: __ZNSt3__110destroy_atB7v160006INS_4pairIKNS_12basic_stringIcNS_11char_traitsIcEENS_9allocatorIcEEEENS_6vectorIS7_NS5_IS7_EEEEEELi0EEEvPT_, symObjAddr: 0x24710, symBinAddr: 0x100026898, symSize: 0x24 }
  - { offsetInCU: 0x4C9D6, offset: 0x4C9D6, size: 0x8, addend: 0x0, symName: __ZNSt3__112__destroy_atB7v160006INS_4pairIKNS_12basic_stringIcNS_11char_traitsIcEENS_9allocatorIcEEEENS_6vectorIS7_NS5_IS7_EEEEEELi0EEEvPT_, symObjAddr: 0x24734, symBinAddr: 0x1000268BC, symSize: 0x24 }
  - { offsetInCU: 0x4CA0D, offset: 0x4CA0D, size: 0x8, addend: 0x0, symName: __ZNSt3__118__debug_db_erase_cB7v160006INS_12__hash_tableINS_17__hash_value_typeINS_12basic_stringIcNS_11char_traitsIcEENS_9allocatorIcEEEENS_6vectorIS8_NS6_IS8_EEEEEENS_22__unordered_map_hasherIS8_SC_NS_4hashIS8_EENS_8equal_toIS8_EELb1EEENS_21__unordered_map_equalIS8_SC_SH_SF_Lb1EEENS6_ISC_EEEEEEvPT_, symObjAddr: 0x248F4, symBinAddr: 0x100026A7C, symSize: 0x10 }
  - { offsetInCU: 0x4CA3E, offset: 0x4CA3E, size: 0x8, addend: 0x0, symName: __ZNSt3__1neB7v160006ERKNS_15__hash_iteratorIPNS_11__hash_nodeINS_17__hash_value_typeINS_12basic_stringIcNS_11char_traitsIcEENS_9allocatorIcEEEEbEEPvEEEESF_, symObjAddr: 0x24C30, symBinAddr: 0x100026DB8, symSize: 0x34 }
  - { offsetInCU: 0x4CA7C, offset: 0x4CA7C, size: 0x8, addend: 0x0, symName: __ZNSt3__1eqB7v160006ERKNS_15__hash_iteratorIPNS_11__hash_nodeINS_17__hash_value_typeINS_12basic_stringIcNS_11char_traitsIcEENS_9allocatorIcEEEEbEEPvEEEESF_, symObjAddr: 0x24C64, symBinAddr: 0x100026DEC, symSize: 0x30 }
  - { offsetInCU: 0x4CB1E, offset: 0x4CB1E, size: 0x8, addend: 0x0, symName: __ZNSt3__116__pad_and_outputB7v160006IcNS_11char_traitsIcEEEENS_19ostreambuf_iteratorIT_T0_EES6_PKS4_S8_S8_RNS_8ios_baseES4_, symObjAddr: 0x24EF4, symBinAddr: 0x10002707C, symSize: 0x240 }
  - { offsetInCU: 0x4CBED, offset: 0x4CBED, size: 0x8, addend: 0x0, symName: __ZNSt3__19use_facetB7v160006INS_5ctypeIcEEEERKT_RKNS_6localeE, symObjAddr: 0x254B0, symBinAddr: 0x100027638, symSize: 0x2C }
  - { offsetInCU: 0x4D0BC, offset: 0x4D0BC, size: 0x8, addend: 0x0, symName: __ZNSt3__17launderB7v160006IKNS_4pairIKNS_12basic_stringIcNS_11char_traitsIcEENS_9allocatorIcEEEEiEEEEPT_SC_, symObjAddr: 0x25A70, symBinAddr: 0x100027BF8, symSize: 0x24 }
  - { offsetInCU: 0x4D0F4, offset: 0x4D0F4, size: 0x8, addend: 0x0, symName: __ZNSt3__19__launderB7v160006IKNS_4pairIKNS_12basic_stringIcNS_11char_traitsIcEENS_9allocatorIcEEEEiEEEEPT_SC_, symObjAddr: 0x25A94, symBinAddr: 0x100027C1C, symSize: 0x14 }
  - { offsetInCU: 0x4D15D, offset: 0x4D15D, size: 0x8, addend: 0x0, symName: __ZNSt3__1neB7v160006ERKNS_15__hash_iteratorIPNS_11__hash_nodeINS_17__hash_value_typeINS_12basic_stringIcNS_11char_traitsIcEENS_9allocatorIcEEEEiEEPvEEEESF_, symObjAddr: 0x25B00, symBinAddr: 0x100027C88, symSize: 0x34 }
  - { offsetInCU: 0x4D19B, offset: 0x4D19B, size: 0x8, addend: 0x0, symName: __ZNSt3__1eqB7v160006ERKNS_15__hash_iteratorIPNS_11__hash_nodeINS_17__hash_value_typeINS_12basic_stringIcNS_11char_traitsIcEENS_9allocatorIcEEEEiEEPvEEEESF_, symObjAddr: 0x25B34, symBinAddr: 0x100027CBC, symSize: 0x30 }
  - { offsetInCU: 0x4D20E, offset: 0x4D20E, size: 0x8, addend: 0x0, symName: __ZNSt3__116forward_as_tupleB7v160006IJRKNS_12basic_stringIcNS_11char_traitsIcEENS_9allocatorIcEEEEEEENS_5tupleIJDpOT_EEESC_, symObjAddr: 0x25FFC, symBinAddr: 0x100028184, symSize: 0x2C }
  - { offsetInCU: 0x4D248, offset: 0x4D248, size: 0x8, addend: 0x0, symName: __ZNSt3__116forward_as_tupleB7v160006IJEEENS_5tupleIJDpOT_EEES4_, symObjAddr: 0x26028, symBinAddr: 0x1000281B0, symSize: 0x4 }
  - { offsetInCU: 0x4D2B0, offset: 0x4D2B0, size: 0x8, addend: 0x0, symName: __ZNSt3__112construct_atB7v160006INS_4pairIKNS_12basic_stringIcNS_11char_traitsIcEENS_9allocatorIcEEEEiEEJRKNS_21piecewise_construct_tENS_5tupleIJRS8_EEENSD_IJEEEEPS9_EEPT_SJ_DpOT0_, symObjAddr: 0x266F8, symBinAddr: 0x100028880, symSize: 0x50 }
  - { offsetInCU: 0x4D354, offset: 0x4D354, size: 0x8, addend: 0x0, symName: __ZNSt3__13getB7v160006ILm0EJRKNS_12basic_stringIcNS_11char_traitsIcEENS_9allocatorIcEEEEEEERNS_13tuple_elementIXT_ENS_5tupleIJDpT0_EEEE4typeERSD_, symObjAddr: 0x26808, symBinAddr: 0x100028990, symSize: 0x24 }
  - { offsetInCU: 0x4D397, offset: 0x4D397, size: 0x8, addend: 0x0, symName: __ZNSt3__125__debug_db_invalidate_allB7v160006INS_12__hash_tableINS_17__hash_value_typeINS_12basic_stringIcNS_11char_traitsIcEENS_9allocatorIcEEEEiEENS_22__unordered_map_hasherIS8_S9_NS_4hashIS8_EENS_8equal_toIS8_EELb1EEENS_21__unordered_map_equalIS8_S9_SE_SC_Lb1EEENS6_IS9_EEEEEEvPT_, symObjAddr: 0x26D00, symBinAddr: 0x100028E88, symSize: 0x10 }
  - { offsetInCU: 0x4D3C8, offset: 0x4D3C8, size: 0x8, addend: 0x0, symName: __ZNSt3__110destroy_atB7v160006INS_4pairIKNS_12basic_stringIcNS_11char_traitsIcEENS_9allocatorIcEEEEiEELi0EEEvPT_, symObjAddr: 0x2725C, symBinAddr: 0x1000293E4, symSize: 0x24 }
  - { offsetInCU: 0x4D3FF, offset: 0x4D3FF, size: 0x8, addend: 0x0, symName: __ZNSt3__112__destroy_atB7v160006INS_4pairIKNS_12basic_stringIcNS_11char_traitsIcEENS_9allocatorIcEEEEiEELi0EEEvPT_, symObjAddr: 0x27280, symBinAddr: 0x100029408, symSize: 0x24 }
  - { offsetInCU: 0x4D48D, offset: 0x4D48D, size: 0x8, addend: 0x0, symName: __ZNSt3__17launderB7v160006INS_4pairIKNS_12basic_stringIcNS_11char_traitsIcEENS_9allocatorIcEEEEiEEEEPT_SB_, symObjAddr: 0x2747C, symBinAddr: 0x100029604, symSize: 0x24 }
  - { offsetInCU: 0x4D4C5, offset: 0x4D4C5, size: 0x8, addend: 0x0, symName: __ZNSt3__19__launderB7v160006INS_4pairIKNS_12basic_stringIcNS_11char_traitsIcEENS_9allocatorIcEEEEiEEEEPT_SB_, symObjAddr: 0x274A0, symBinAddr: 0x100029628, symSize: 0x14 }
  - { offsetInCU: 0x4D4FB, offset: 0x4D4FB, size: 0x8, addend: 0x0, symName: __ZNSt3__116forward_as_tupleB7v160006IJNS_12basic_stringIcNS_11char_traitsIcEENS_9allocatorIcEEEEEEENS_5tupleIJDpOT_EEESA_, symObjAddr: 0x2794C, symBinAddr: 0x100029AD4, symSize: 0x2C }
  - { offsetInCU: 0x4D534, offset: 0x4D534, size: 0x8, addend: 0x0, symName: __ZNSt3__112construct_atB7v160006INS_4pairIKNS_12basic_stringIcNS_11char_traitsIcEENS_9allocatorIcEEEEiEEJRKNS_21piecewise_construct_tENS_5tupleIJOS7_EEENSD_IJEEEEPS9_EEPT_SJ_DpOT0_, symObjAddr: 0x27B08, symBinAddr: 0x100029C90, symSize: 0x50 }
  - { offsetInCU: 0x4D5CC, offset: 0x4D5CC, size: 0x8, addend: 0x0, symName: __ZNSt3__13getB7v160006ILm0EJONS_12basic_stringIcNS_11char_traitsIcEENS_9allocatorIcEEEEEEERNS_13tuple_elementIXT_ENS_5tupleIJDpT0_EEEE4typeERSC_, symObjAddr: 0x27C20, symBinAddr: 0x100029DA8, symSize: 0x24 }
  - { offsetInCU: 0x4D624, offset: 0x4D624, size: 0x8, addend: 0x0, symName: __ZNSt3__112construct_atB7v160006INS_4pairIKNS_12basic_stringIcNS_11char_traitsIcEENS_9allocatorIcEEEENS_6vectorIS7_NS5_IS7_EEEEEEJRKNS_21piecewise_construct_tENS_5tupleIJRS8_EEENSG_IJEEEEPSC_EEPT_SM_DpOT0_, symObjAddr: 0x283A4, symBinAddr: 0x10002A52C, symSize: 0x50 }
  - { offsetInCU: 0x4D6EF, offset: 0x4D6EF, size: 0x8, addend: 0x0, symName: __ZNSt3__1neB7v160006IPdEEbRKNS_11__wrap_iterIT_EES6_, symObjAddr: 0x286B0, symBinAddr: 0x10002A838, symSize: 0x34 }
  - { offsetInCU: 0x4D732, offset: 0x4D732, size: 0x8, addend: 0x0, symName: __ZNSt3__1eqB7v160006IPdEEbRKNS_11__wrap_iterIT_EES6_, symObjAddr: 0x286FC, symBinAddr: 0x10002A884, symSize: 0x48 }
  - { offsetInCU: 0x4D775, offset: 0x4D775, size: 0x8, addend: 0x0, symName: __ZNSt3__14findB7v160006INS_11__wrap_iterIPdEEdEET_S4_S4_RKT0_, symObjAddr: 0x28744, symBinAddr: 0x10002A8CC, symSize: 0x80 }
  - { offsetInCU: 0x4D7CF, offset: 0x4D7CF, size: 0x8, addend: 0x0, symName: __ZNSt3__110accumulateB7v160006INS_11__wrap_iterIPdEEdEET0_T_S5_S4_, symObjAddr: 0x28850, symBinAddr: 0x10002A9D8, symSize: 0x70 }
  - { offsetInCU: 0x4D851, offset: 0x4D851, size: 0x8, addend: 0x0, symName: __ZNSt3__112construct_atB7v160006IdJRKdEPdEEPT_S5_DpOT0_, symObjAddr: 0x28B58, symBinAddr: 0x10002ACE0, symSize: 0x2C }
  - { offsetInCU: 0x4D8C2, offset: 0x4D8C2, size: 0x8, addend: 0x0, symName: __ZNSt3__142__uninitialized_allocator_move_if_noexceptB7v160006INS_9allocatorIdEENS_16reverse_iteratorIPdEES5_dvEET1_RT_T0_S9_S6_, symObjAddr: 0x28FEC, symBinAddr: 0x10002B174, symSize: 0x78 }
  - { offsetInCU: 0x4D941, offset: 0x4D941, size: 0x8, addend: 0x0, symName: __ZNSt3__14swapB7v160006IPdEENS_9enable_ifIXaasr21is_move_constructibleIT_EE5valuesr18is_move_assignableIS3_EE5valueEvE4typeERS3_S6_, symObjAddr: 0x290B0, symBinAddr: 0x10002B238, symSize: 0x3C }
  - { offsetInCU: 0x4D991, offset: 0x4D991, size: 0x8, addend: 0x0, symName: __ZNSt3__125__debug_db_invalidate_allB7v160006INS_6vectorIdNS_9allocatorIdEEEEEEvPT_, symObjAddr: 0x290EC, symBinAddr: 0x10002B274, symSize: 0x10 }
  - { offsetInCU: 0x4D9C2, offset: 0x4D9C2, size: 0x8, addend: 0x0, symName: __ZNSt3__14moveB7v160006INS_16reverse_iteratorIPdEES3_EET0_T_S5_S4_, symObjAddr: 0x290FC, symBinAddr: 0x10002B284, symSize: 0x78 }
  - { offsetInCU: 0x4DA1C, offset: 0x4DA1C, size: 0x8, addend: 0x0, symName: __ZNSt3__16__moveB7v160006INS_17_ClassicAlgPolicyENS_16reverse_iteratorIPdEES4_S4_EENS_4pairIT0_T2_EES6_T1_S7_, symObjAddr: 0x29174, symBinAddr: 0x10002B2FC, symSize: 0x64 }
  - { offsetInCU: 0x4DA88, offset: 0x4DA88, size: 0x8, addend: 0x0, symName: __ZNSt3__123__dispatch_copy_or_moveB7v160006INS_17_ClassicAlgPolicyENS_11__move_loopIS1_EENS_14__move_trivialENS_16reverse_iteratorIPdEES7_S7_EENS_4pairIT2_T4_EES9_T3_SA_, symObjAddr: 0x291D8, symBinAddr: 0x10002B360, symSize: 0x64 }
  - { offsetInCU: 0x4DB06, offset: 0x4DB06, size: 0x8, addend: 0x0, symName: __ZNSt3__121__unwrap_and_dispatchB7v160006INS_10__overloadINS_11__move_loopINS_17_ClassicAlgPolicyEEENS_14__move_trivialEEENS_16reverse_iteratorIPdEES9_S9_Li0EEENS_4pairIT0_T2_EESB_T1_SC_, symObjAddr: 0x2923C, symBinAddr: 0x10002B3C4, symSize: 0x12C }
  - { offsetInCU: 0x4DB96, offset: 0x4DB96, size: 0x8, addend: 0x0, symName: __ZNSt3__114__unwrap_rangeB7v160006INS_16reverse_iteratorIPdEES3_EEDaT_T0_, symObjAddr: 0x29368, symBinAddr: 0x10002B4F0, symSize: 0x4C }
  - { offsetInCU: 0x4DCB6, offset: 0x4DCB6, size: 0x8, addend: 0x0, symName: __ZNSt3__113__unwrap_iterB7v160006INS_16reverse_iteratorIPdEENS_18__unwrap_iter_implIS3_Lb0EEELi0EEEDTclsrT0_8__unwrapclsr3stdE7declvalIT_EEEES7_, symObjAddr: 0x29454, symBinAddr: 0x10002B5DC, symSize: 0x44 }
  - { offsetInCU: 0x4DCFA, offset: 0x4DCFA, size: 0x8, addend: 0x0, symName: __ZNSt3__19make_pairB7v160006INS_16reverse_iteratorIPdEES3_EENS_4pairINS_18__unwrap_ref_decayIT_E4typeENS5_IT0_E4typeEEEOS6_OS9_, symObjAddr: 0x29498, symBinAddr: 0x10002B620, symSize: 0x38 }
  - { offsetInCU: 0x4DD49, offset: 0x4DD49, size: 0x8, addend: 0x0, symName: __ZNSt3__114__rewrap_rangeB7v160006INS_16reverse_iteratorIPdEES3_S3_EET0_S4_T1_, symObjAddr: 0x294D0, symBinAddr: 0x10002B658, symSize: 0x5C }
  - { offsetInCU: 0x4DD9E, offset: 0x4DD9E, size: 0x8, addend: 0x0, symName: __ZNSt3__113__rewrap_iterB7v160006INS_16reverse_iteratorIPdEES3_NS_18__unwrap_iter_implIS3_Lb0EEEEET_S6_T0_, symObjAddr: 0x2952C, symBinAddr: 0x10002B6B4, symSize: 0x74 }
  - { offsetInCU: 0x4DE43, offset: 0x4DE43, size: 0x8, addend: 0x0, symName: __ZNSt3__1neB7v160006IPdS1_EEbRKNS_16reverse_iteratorIT_EERKNS2_IT0_EE, symObjAddr: 0x29694, symBinAddr: 0x10002B81C, symSize: 0x48 }
  - { offsetInCU: 0x4DEFB, offset: 0x4DEFB, size: 0x8, addend: 0x0, symName: __ZNSt3__119__debug_db_insert_cB7v160006INS_13unordered_mapINS_12basic_stringIcNS_11char_traitsIcEENS_9allocatorIcEEEE6DefectNS_4hashIS7_EENS_8equal_toIS7_EENS5_INS_4pairIKS7_S8_EEEEEEEEvPT_, symObjAddr: 0x29A78, symBinAddr: 0x10002BC00, symSize: 0x10 }
  - { offsetInCU: 0x4DF2C, offset: 0x4DF2C, size: 0x8, addend: 0x0, symName: __ZNSt3__118__debug_db_erase_cB7v160006INS_12__hash_tableINS_17__hash_value_typeINS_12basic_stringIcNS_11char_traitsIcEENS_9allocatorIcEEEE6DefectEENS_22__unordered_map_hasherIS8_SA_NS_4hashIS8_EENS_8equal_toIS8_EELb1EEENS_21__unordered_map_equalIS8_SA_SF_SD_Lb1EEENS6_ISA_EEEEEEvPT_, symObjAddr: 0x2A1B0, symBinAddr: 0x10002C338, symSize: 0x10 }
  - { offsetInCU: 0x4DF90, offset: 0x4DF90, size: 0x8, addend: 0x0, symName: __ZNSt3__110destroy_atB7v160006INS_4pairIKNS_12basic_stringIcNS_11char_traitsIcEENS_9allocatorIcEEEE6DefectEELi0EEEvPT_, symObjAddr: 0x2A304, symBinAddr: 0x10002C48C, symSize: 0x24 }
  - { offsetInCU: 0x4DFC7, offset: 0x4DFC7, size: 0x8, addend: 0x0, symName: __ZNSt3__112__destroy_atB7v160006INS_4pairIKNS_12basic_stringIcNS_11char_traitsIcEENS_9allocatorIcEEEE6DefectEELi0EEEvPT_, symObjAddr: 0x2A328, symBinAddr: 0x10002C4B0, symSize: 0x24 }
  - { offsetInCU: 0x4DFFE, offset: 0x4DFFE, size: 0x8, addend: 0x0, symName: __ZNSt3__17launderB7v160006INS_4pairIKNS_12basic_stringIcNS_11char_traitsIcEENS_9allocatorIcEEEE6DefectEEEEPT_SC_, symObjAddr: 0x2A3D4, symBinAddr: 0x10002C55C, symSize: 0x24 }
  - { offsetInCU: 0x4E036, offset: 0x4E036, size: 0x8, addend: 0x0, symName: __ZNSt3__19__launderB7v160006INS_4pairIKNS_12basic_stringIcNS_11char_traitsIcEENS_9allocatorIcEEEE6DefectEEEEPT_SC_, symObjAddr: 0x2A3F8, symBinAddr: 0x10002C580, symSize: 0x14 }
  - { offsetInCU: 0x4E797, offset: 0x4E797, size: 0x8, addend: 0x0, symName: __ZNSt3__17getlineB7v160006IcNS_11char_traitsIcEENS_9allocatorIcEEEERNS_13basic_istreamIT_T0_EES9_RNS_12basic_stringIS6_S7_T1_EE, symObjAddr: 0x2A9B4, symBinAddr: 0x10002CB3C, symSize: 0x5C }
  - { offsetInCU: 0x4EB32, offset: 0x4EB32, size: 0x8, addend: 0x0, symName: __ZNSt3__17getlineB7v160006IcNS_11char_traitsIcEENS_9allocatorIcEEEERNS_13basic_istreamIT_T0_EES9_RNS_12basic_stringIS6_S7_T1_EES6_, symObjAddr: 0x2AB64, symBinAddr: 0x10002CCEC, symSize: 0x238 }
  - { offsetInCU: 0x4EDC7, offset: 0x4EDC7, size: 0x8, addend: 0x0, symName: __ZNSt3__1neB7v160006ERKNS_19__hash_map_iteratorINS_15__hash_iteratorIPNS_11__hash_nodeINS_17__hash_value_typeINS_12basic_stringIcNS_11char_traitsIcEENS_9allocatorIcEEEE6DefectEEPvEEEEEESI_, symObjAddr: 0x2B1BC, symBinAddr: 0x10002D344, symSize: 0x30 }
  - { offsetInCU: 0x4EE25, offset: 0x4EE25, size: 0x8, addend: 0x0, symName: __ZNSt3__119__debug_db_insert_cB7v160006INS_6vectorI6DefectNS_9allocatorIS2_EEEEEEvPT_, symObjAddr: 0x2B7B8, symBinAddr: 0x10002D940, symSize: 0x10 }
  - { offsetInCU: 0x4EE56, offset: 0x4EE56, size: 0x8, addend: 0x0, symName: __ZNSt3__119__debug_db_insert_cB7v160006INS_13unordered_mapINS_12basic_stringIcNS_11char_traitsIcEENS_9allocatorIcEEEEiNS_4hashIS7_EENS_8equal_toIS7_EENS5_INS_4pairIKS7_iEEEEEEEEvPT_, symObjAddr: 0x2B900, symBinAddr: 0x10002DA88, symSize: 0x10 }
  - { offsetInCU: 0x4EE87, offset: 0x4EE87, size: 0x8, addend: 0x0, symName: __ZNSt3__119__debug_db_insert_cB7v160006INS_6vectorIiNS_9allocatorIiEEEEEEvPT_, symObjAddr: 0x2C1D8, symBinAddr: 0x10002E360, symSize: 0x10 }
  - { offsetInCU: 0x4EEB8, offset: 0x4EEB8, size: 0x8, addend: 0x0, symName: __ZNSt3__119__debug_db_insert_cB7v160006INS_6vectorINS_4pairINS_12basic_stringIcNS_11char_traitsIcEENS_9allocatorIcEEEEiEENS6_IS9_EEEEEEvPT_, symObjAddr: 0x2C654, symBinAddr: 0x10002E7DC, symSize: 0x10 }
  - { offsetInCU: 0x4EEE9, offset: 0x4EEE9, size: 0x8, addend: 0x0, symName: __ZNSt3__122__make_exception_guardB7v160006INS_6vectorIiNS_9allocatorIiEEE16__destroy_vectorEEENS_28__exception_guard_exceptionsIT_EES7_, symObjAddr: 0x2C86C, symBinAddr: 0x10002E9F4, symSize: 0x40 }
  - { offsetInCU: 0x4EF1E, offset: 0x4EF1E, size: 0x8, addend: 0x0, symName: __ZNSt3__130__uninitialized_allocator_copyB7v160006INS_9allocatorIiEEPiS3_S3_EET2_RT_T0_T1_S4_, symObjAddr: 0x2CB34, symBinAddr: 0x10002ECBC, symSize: 0xF4 }
  - { offsetInCU: 0x4EFBC, offset: 0x4EFBC, size: 0x8, addend: 0x0, symName: __ZNSt3__122__make_exception_guardB7v160006INS_29_AllocatorDestroyRangeReverseINS_9allocatorIiEEPiEEEENS_28__exception_guard_exceptionsIT_EES7_, symObjAddr: 0x2CC28, symBinAddr: 0x10002EDB0, symSize: 0x4C }
  - { offsetInCU: 0x4EFF3, offset: 0x4EFF3, size: 0x8, addend: 0x0, symName: __ZNSt3__112construct_atB7v160006IiJRiEPiEEPT_S4_DpOT0_, symObjAddr: 0x2CDCC, symBinAddr: 0x10002EF54, symSize: 0x2C }
  - { offsetInCU: 0x4F065, offset: 0x4F065, size: 0x8, addend: 0x0, symName: __ZNSt3__119__allocator_destroyB7v160006INS_9allocatorIiEENS_16reverse_iteratorIPiEES5_EEvRT_T0_T1_, symObjAddr: 0x2CEB0, symBinAddr: 0x10002F038, symSize: 0x70 }
  - { offsetInCU: 0x4F0C8, offset: 0x4F0C8, size: 0x8, addend: 0x0, symName: __ZNSt3__112__to_addressB7v160006INS_16reverse_iteratorIPiEEvEENS_5decayIDTclsr19__to_address_helperIT_EE6__callclsr3stdE7declvalIRKS5_EEEEE4typeES7_, symObjAddr: 0x2CF20, symBinAddr: 0x10002F0A8, symSize: 0x24 }
  - { offsetInCU: 0x4F128, offset: 0x4F128, size: 0x8, addend: 0x0, symName: __ZNSt3__14prevB7v160006IPiEENS_9enable_ifIXsr25__is_cpp17_input_iteratorIT_EE5valueES3_E4typeES3_NS_15iterator_traitsIS3_E15difference_typeE, symObjAddr: 0x2CFA8, symBinAddr: 0x10002F130, symSize: 0x50 }
  - { offsetInCU: 0x4F16B, offset: 0x4F16B, size: 0x8, addend: 0x0, symName: __ZNSt3__19__advanceB7v160006IPiEEvRT_NS_15iterator_traitsIS2_E15difference_typeENS_26random_access_iterator_tagE, symObjAddr: 0x2D048, symBinAddr: 0x10002F1D0, symSize: 0x28 }
  - { offsetInCU: 0x4F1B5, offset: 0x4F1B5, size: 0x8, addend: 0x0, symName: __ZNSt3__118__debug_db_erase_cB7v160006INS_6vectorIiNS_9allocatorIiEEEEEEvPT_, symObjAddr: 0x2D15C, symBinAddr: 0x10002F2E4, symSize: 0x10 }
  - { offsetInCU: 0x4F1E6, offset: 0x4F1E6, size: 0x8, addend: 0x0, symName: __ZNSt3__122__make_exception_guardB7v160006INS_6vectorINS_4pairINS_12basic_stringIcNS_11char_traitsIcEENS_9allocatorIcEEEEiEENS6_IS9_EEE16__destroy_vectorEEENS_28__exception_guard_exceptionsIT_EESE_, symObjAddr: 0x2D414, symBinAddr: 0x10002F59C, symSize: 0x40 }
  - { offsetInCU: 0x4F21B, offset: 0x4F21B, size: 0x8, addend: 0x0, symName: __ZNSt3__130__uninitialized_allocator_copyB7v160006INS_9allocatorINS_4pairINS_12basic_stringIcNS_11char_traitsIcEENS1_IcEEEEiEEEEPS8_SA_SA_EET2_RT_T0_T1_SB_, symObjAddr: 0x2D6DC, symBinAddr: 0x10002F864, symSize: 0xF4 }
  - { offsetInCU: 0x4F2B9, offset: 0x4F2B9, size: 0x8, addend: 0x0, symName: __ZNSt3__122__make_exception_guardB7v160006INS_29_AllocatorDestroyRangeReverseINS_9allocatorINS_4pairINS_12basic_stringIcNS_11char_traitsIcEENS2_IcEEEEiEEEEPS9_EEEENS_28__exception_guard_exceptionsIT_EESE_, symObjAddr: 0x2D7D0, symBinAddr: 0x10002F958, symSize: 0x4C }
  - { offsetInCU: 0x4F2EF, offset: 0x4F2EF, size: 0x8, addend: 0x0, symName: __ZNSt3__112construct_atB7v160006INS_4pairINS_12basic_stringIcNS_11char_traitsIcEENS_9allocatorIcEEEEiEEJRS8_EPS8_EEPT_SC_DpOT0_, symObjAddr: 0x2D974, symBinAddr: 0x10002FAFC, symSize: 0x3C }
  - { offsetInCU: 0x4F362, offset: 0x4F362, size: 0x8, addend: 0x0, symName: __ZNSt3__119__allocator_destroyB7v160006INS_9allocatorINS_4pairINS_12basic_stringIcNS_11char_traitsIcEENS1_IcEEEEiEEEENS_16reverse_iteratorIPS8_EESC_EEvRT_T0_T1_, symObjAddr: 0x2DADC, symBinAddr: 0x10002FC64, symSize: 0x70 }
  - { offsetInCU: 0x4F3C5, offset: 0x4F3C5, size: 0x8, addend: 0x0, symName: __ZNSt3__118__debug_db_erase_cB7v160006INS_6vectorINS_4pairINS_12basic_stringIcNS_11char_traitsIcEENS_9allocatorIcEEEEiEENS6_IS9_EEEEEEvPT_, symObjAddr: 0x2DC38, symBinAddr: 0x10002FDC0, symSize: 0x10 }
  - { offsetInCU: 0x4F3F6, offset: 0x4F3F6, size: 0x8, addend: 0x0, symName: __ZNSt3__142__uninitialized_allocator_move_if_noexceptB7v160006INS_9allocatorINS_12basic_stringIcNS_11char_traitsIcEENS1_IcEEEEEENS_16reverse_iteratorIPS6_EESA_SA_EET2_RT_T0_T1_SB_, symObjAddr: 0x2E24C, symBinAddr: 0x1000303D4, symSize: 0x124 }
  - { offsetInCU: 0x4F497, offset: 0x4F497, size: 0x8, addend: 0x0, symName: __ZNSt3__14swapB7v160006IPNS_12basic_stringIcNS_11char_traitsIcEENS_9allocatorIcEEEEEENS_9enable_ifIXaasr21is_move_constructibleIT_EE5valuesr18is_move_assignableIS9_EE5valueEvE4typeERS9_SC_, symObjAddr: 0x2E370, symBinAddr: 0x1000304F8, symSize: 0x3C }
  - { offsetInCU: 0x4F4E7, offset: 0x4F4E7, size: 0x8, addend: 0x0, symName: __ZNSt3__125__debug_db_invalidate_allB7v160006INS_6vectorINS_12basic_stringIcNS_11char_traitsIcEENS_9allocatorIcEEEENS5_IS7_EEEEEEvPT_, symObjAddr: 0x2E3AC, symBinAddr: 0x100030534, symSize: 0x10 }
  - { offsetInCU: 0x4F518, offset: 0x4F518, size: 0x8, addend: 0x0, symName: __ZNSt3__122__make_exception_guardB7v160006INS_29_AllocatorDestroyRangeReverseINS_9allocatorINS_12basic_stringIcNS_11char_traitsIcEENS2_IcEEEEEENS_16reverse_iteratorIPS7_EEEEEENS_28__exception_guard_exceptionsIT_EESE_, symObjAddr: 0x2E3BC, symBinAddr: 0x100030544, symSize: 0x4C }
  - { offsetInCU: 0x4F54E, offset: 0x4F54E, size: 0x8, addend: 0x0, symName: __ZNSt3__112construct_atB7v160006INS_12basic_stringIcNS_11char_traitsIcEENS_9allocatorIcEEEEJS6_EPS6_EEPT_S9_DpOT0_, symObjAddr: 0x2E588, symBinAddr: 0x100030710, symSize: 0x3C }
  - { offsetInCU: 0x4F5C1, offset: 0x4F5C1, size: 0x8, addend: 0x0, symName: __ZNSt3__119__allocator_destroyB7v160006INS_9allocatorINS_12basic_stringIcNS_11char_traitsIcEENS1_IcEEEEEENS_16reverse_iteratorINS8_IPS6_EEEESB_EEvRT_T0_T1_, symObjAddr: 0x2E6C8, symBinAddr: 0x100030850, symSize: 0x70 }
  - { offsetInCU: 0x4F626, offset: 0x4F626, size: 0x8, addend: 0x0, symName: __ZNSt3__1neB7v160006INS_16reverse_iteratorIPNS_12basic_stringIcNS_11char_traitsIcEENS_9allocatorIcEEEEEES9_EEbRKNS1_IT_EERKNS1_IT0_EE, symObjAddr: 0x2E774, symBinAddr: 0x1000308FC, symSize: 0x60 }
  - { offsetInCU: 0x4F672, offset: 0x4F672, size: 0x8, addend: 0x0, symName: __ZNSt3__112__to_addressB7v160006INS_16reverse_iteratorINS1_IPNS_12basic_stringIcNS_11char_traitsIcEENS_9allocatorIcEEEEEEEEvEENS_5decayIDTclsr19__to_address_helperIT_EE6__callclsr3stdE7declvalIRKSC_EEEEE4typeESE_, symObjAddr: 0x2E7D4, symBinAddr: 0x10003095C, symSize: 0x24 }
  - { offsetInCU: 0x4F6D2, offset: 0x4F6D2, size: 0x8, addend: 0x0, symName: __ZNSt3__14prevB7v160006INS_16reverse_iteratorIPNS_12basic_stringIcNS_11char_traitsIcEENS_9allocatorIcEEEEEEEENS_9enable_ifIXsr25__is_cpp17_input_iteratorIT_EE5valueESB_E4typeESB_NS_15iterator_traitsISB_E15difference_typeE, symObjAddr: 0x2E8D0, symBinAddr: 0x100030A58, symSize: 0x60 }
  - { offsetInCU: 0x4F715, offset: 0x4F715, size: 0x8, addend: 0x0, symName: __ZNSt3__19__advanceB7v160006INS_16reverse_iteratorIPNS_12basic_stringIcNS_11char_traitsIcEENS_9allocatorIcEEEEEEEEvRT_NS_15iterator_traitsISA_E15difference_typeENS_26random_access_iterator_tagE, symObjAddr: 0x2E980, symBinAddr: 0x100030B08, symSize: 0x2C }
  - { offsetInCU: 0x4F75F, offset: 0x4F75F, size: 0x8, addend: 0x0, symName: __ZNSt3__112construct_atB7v160006INS_4pairIKNS_12basic_stringIcNS_11char_traitsIcEENS_9allocatorIcEEEES7_EEJRKNS_21piecewise_construct_tENS_5tupleIJRS8_EEENSD_IJEEEEPS9_EEPT_SJ_DpOT0_, symObjAddr: 0x2F35C, symBinAddr: 0x1000314E4, symSize: 0x50 }
  - { offsetInCU: 0x4F82A, offset: 0x4F82A, size: 0x8, addend: 0x0, symName: __ZNSt3__17launderB7v160006IKNS_4pairIKNS_12basic_stringIcNS_11char_traitsIcEENS_9allocatorIcEEEE6DefectEEEEPT_SD_, symObjAddr: 0x2F9D0, symBinAddr: 0x100031B58, symSize: 0x24 }
  - { offsetInCU: 0x4F862, offset: 0x4F862, size: 0x8, addend: 0x0, symName: __ZNSt3__19__launderB7v160006IKNS_4pairIKNS_12basic_stringIcNS_11char_traitsIcEENS_9allocatorIcEEEE6DefectEEEEPT_SD_, symObjAddr: 0x2F9F4, symBinAddr: 0x100031B7C, symSize: 0x14 }
  - { offsetInCU: 0x4F898, offset: 0x4F898, size: 0x8, addend: 0x0, symName: __ZNSt3__1neB7v160006ERKNS_15__hash_iteratorIPNS_11__hash_nodeINS_17__hash_value_typeINS_12basic_stringIcNS_11char_traitsIcEENS_9allocatorIcEEEE6DefectEEPvEEEESG_, symObjAddr: 0x2FA4C, symBinAddr: 0x100031BD4, symSize: 0x34 }
  - { offsetInCU: 0x4F8D6, offset: 0x4F8D6, size: 0x8, addend: 0x0, symName: __ZNSt3__1eqB7v160006ERKNS_15__hash_iteratorIPNS_11__hash_nodeINS_17__hash_value_typeINS_12basic_stringIcNS_11char_traitsIcEENS_9allocatorIcEEEE6DefectEEPvEEEESG_, symObjAddr: 0x2FA80, symBinAddr: 0x100031C08, symSize: 0x30 }
  - { offsetInCU: 0x4F9BD, offset: 0x4F9BD, size: 0x8, addend: 0x0, symName: __ZNSt3__112construct_atB7v160006INS_4pairIKNS_12basic_stringIcNS_11char_traitsIcEENS_9allocatorIcEEEE6DefectEEJRKNS_21piecewise_construct_tENS_5tupleIJRS8_EEENSE_IJEEEEPSA_EEPT_SK_DpOT0_, symObjAddr: 0x30570, symBinAddr: 0x1000326F8, symSize: 0x50 }
  - { offsetInCU: 0x4FA55, offset: 0x4FA55, size: 0x8, addend: 0x0, symName: __ZNSt3__125__debug_db_invalidate_allB7v160006INS_12__hash_tableINS_17__hash_value_typeINS_12basic_stringIcNS_11char_traitsIcEENS_9allocatorIcEEEE6DefectEENS_22__unordered_map_hasherIS8_SA_NS_4hashIS8_EENS_8equal_toIS8_EELb1EEENS_21__unordered_map_equalIS8_SA_SF_SD_Lb1EEENS6_ISA_EEEEEEvPT_, symObjAddr: 0x30B6C, symBinAddr: 0x100032CF4, symSize: 0x10 }
  - { offsetInCU: 0x4FA86, offset: 0x4FA86, size: 0x8, addend: 0x0, symName: __ZNSt3__18distanceB7v160006IPNS_12basic_stringIcNS_11char_traitsIcEENS_9allocatorIcEEEEEENS_15iterator_traitsIT_E15difference_typeES9_S9_, symObjAddr: 0x310D0, symBinAddr: 0x100033258, symSize: 0x2C }
  - { offsetInCU: 0x4FAC9, offset: 0x4FAC9, size: 0x8, addend: 0x0, symName: __ZNSt3__14copyB7v160006IPNS_12basic_stringIcNS_11char_traitsIcEENS_9allocatorIcEEEES7_EET0_T_S9_S8_, symObjAddr: 0x3114C, symBinAddr: 0x1000332D4, symSize: 0x40 }
  - { offsetInCU: 0x4FB24, offset: 0x4FB24, size: 0x8, addend: 0x0, symName: __ZNSt3__110__distanceB7v160006IPNS_12basic_stringIcNS_11char_traitsIcEENS_9allocatorIcEEEEEENS_15iterator_traitsIT_E15difference_typeES9_S9_NS_26random_access_iterator_tagE, symObjAddr: 0x31278, symBinAddr: 0x100033400, symSize: 0x28 }
  - { offsetInCU: 0x4FB72, offset: 0x4FB72, size: 0x8, addend: 0x0, symName: __ZNSt3__121__convert_to_integralB7v160006Em, symObjAddr: 0x312A0, symBinAddr: 0x100033428, symSize: 0x14 }
  - { offsetInCU: 0x4FB9D, offset: 0x4FB9D, size: 0x8, addend: 0x0, symName: __ZNSt3__16__copyB7v160006INS_17_ClassicAlgPolicyEPNS_12basic_stringIcNS_11char_traitsIcEENS_9allocatorIcEEEES8_S8_EENS_4pairIT0_T2_EESA_T1_SB_, symObjAddr: 0x312B4, symBinAddr: 0x10003343C, symSize: 0x44 }
  - { offsetInCU: 0x4FC09, offset: 0x4FC09, size: 0x8, addend: 0x0, symName: __ZNSt3__123__dispatch_copy_or_moveB7v160006INS_17_ClassicAlgPolicyENS_11__copy_loopIS1_EENS_14__copy_trivialEPNS_12basic_stringIcNS_11char_traitsIcEENS_9allocatorIcEEEESB_SB_EENS_4pairIT2_T4_EESD_T3_SE_, symObjAddr: 0x312F8, symBinAddr: 0x100033480, symSize: 0x44 }
  - { offsetInCU: 0x4FC87, offset: 0x4FC87, size: 0x8, addend: 0x0, symName: __ZNSt3__121__unwrap_and_dispatchB7v160006INS_10__overloadINS_11__copy_loopINS_17_ClassicAlgPolicyEEENS_14__copy_trivialEEEPNS_12basic_stringIcNS_11char_traitsIcEENS_9allocatorIcEEEESD_SD_Li0EEENS_4pairIT0_T2_EESF_T1_SG_, symObjAddr: 0x3133C, symBinAddr: 0x1000334C4, symSize: 0xB4 }
  - { offsetInCU: 0x4FD15, offset: 0x4FD15, size: 0x8, addend: 0x0, symName: __ZNSt3__114__unwrap_rangeB7v160006IPNS_12basic_stringIcNS_11char_traitsIcEENS_9allocatorIcEEEES7_EEDaT_T0_, symObjAddr: 0x313F0, symBinAddr: 0x100033578, symSize: 0x3C }
  - { offsetInCU: 0x4FEC6, offset: 0x4FEC6, size: 0x8, addend: 0x0, symName: __ZNSt3__113__unwrap_iterB7v160006IPNS_12basic_stringIcNS_11char_traitsIcEENS_9allocatorIcEEEENS_18__unwrap_iter_implIS7_Lb1EEELi0EEEDTclsrT0_8__unwrapclsr3stdE7declvalIT_EEEESB_, symObjAddr: 0x314B4, symBinAddr: 0x10003363C, symSize: 0x24 }
  - { offsetInCU: 0x4FF0A, offset: 0x4FF0A, size: 0x8, addend: 0x0, symName: __ZNSt3__19make_pairB7v160006IPNS_12basic_stringIcNS_11char_traitsIcEENS_9allocatorIcEEEES7_EENS_4pairINS_18__unwrap_ref_decayIT_E4typeENS9_IT0_E4typeEEEOSA_OSD_, symObjAddr: 0x314D8, symBinAddr: 0x100033660, symSize: 0x38 }
  - { offsetInCU: 0x4FF59, offset: 0x4FF59, size: 0x8, addend: 0x0, symName: __ZNSt3__114__rewrap_rangeB7v160006IPNS_12basic_stringIcNS_11char_traitsIcEENS_9allocatorIcEEEES7_S7_EET0_S8_T1_, symObjAddr: 0x31510, symBinAddr: 0x100033698, symSize: 0x2C }
  - { offsetInCU: 0x4FFAE, offset: 0x4FFAE, size: 0x8, addend: 0x0, symName: __ZNSt3__113__rewrap_iterB7v160006IPNS_12basic_stringIcNS_11char_traitsIcEENS_9allocatorIcEEEES7_NS_18__unwrap_iter_implIS7_Lb1EEEEET_SA_T0_, symObjAddr: 0x3153C, symBinAddr: 0x1000336C4, symSize: 0x3C }
  - { offsetInCU: 0x500A6, offset: 0x500A6, size: 0x8, addend: 0x0, symName: __ZNSt3__112construct_atB7v160006I6DefectJRKS1_EPS1_EEPT_S6_DpOT0_, symObjAddr: 0x31A64, symBinAddr: 0x100033BEC, symSize: 0x3C }
  - { offsetInCU: 0x50118, offset: 0x50118, size: 0x8, addend: 0x0, symName: __ZNSt3__118__debug_db_erase_cB7v160006INS_12__hash_tableINS_17__hash_value_typeINS_12basic_stringIcNS_11char_traitsIcEENS_9allocatorIcEEEEiEENS_22__unordered_map_hasherIS8_S9_NS_4hashIS8_EENS_8equal_toIS8_EELb1EEENS_21__unordered_map_equalIS8_S9_SE_SC_Lb1EEENS6_IS9_EEEEEEvPT_, symObjAddr: 0x32160, symBinAddr: 0x1000342E8, symSize: 0x10 }
  - { offsetInCU: 0x50149, offset: 0x50149, size: 0x8, addend: 0x0, symName: __ZNSt3__119__debug_db_insert_cB7v160006INS_13unordered_mapINS_12basic_stringIcNS_11char_traitsIcEENS_9allocatorIcEEEE11DataEntryEQNS_4hashIS7_EENS_8equal_toIS7_EENS5_INS_4pairIKS7_S8_EEEEEEEEvPT_, symObjAddr: 0x3232C, symBinAddr: 0x1000344B4, symSize: 0x10 }
  - { offsetInCU: 0x5017A, offset: 0x5017A, size: 0x8, addend: 0x0, symName: __ZNSt3__118__debug_db_erase_cB7v160006INS_12__hash_tableINS_17__hash_value_typeINS_12basic_stringIcNS_11char_traitsIcEENS_9allocatorIcEEEE11DataEntryEQEENS_22__unordered_map_hasherIS8_SA_NS_4hashIS8_EENS_8equal_toIS8_EELb1EEENS_21__unordered_map_equalIS8_SA_SF_SD_Lb1EEENS6_ISA_EEEEEEvPT_, symObjAddr: 0x32A64, symBinAddr: 0x100034BEC, symSize: 0x10 }
  - { offsetInCU: 0x501DE, offset: 0x501DE, size: 0x8, addend: 0x0, symName: __ZNSt3__110destroy_atB7v160006INS_4pairIKNS_12basic_stringIcNS_11char_traitsIcEENS_9allocatorIcEEEE11DataEntryEQEELi0EEEvPT_, symObjAddr: 0x32BB8, symBinAddr: 0x100034D40, symSize: 0x24 }
  - { offsetInCU: 0x50215, offset: 0x50215, size: 0x8, addend: 0x0, symName: __ZNSt3__112__destroy_atB7v160006INS_4pairIKNS_12basic_stringIcNS_11char_traitsIcEENS_9allocatorIcEEEE11DataEntryEQEELi0EEEvPT_, symObjAddr: 0x32BDC, symBinAddr: 0x100034D64, symSize: 0x24 }
  - { offsetInCU: 0x5024C, offset: 0x5024C, size: 0x8, addend: 0x0, symName: __ZNSt3__17launderB7v160006INS_4pairIKNS_12basic_stringIcNS_11char_traitsIcEENS_9allocatorIcEEEE11DataEntryEQEEEEPT_SC_, symObjAddr: 0x32C88, symBinAddr: 0x100034E10, symSize: 0x24 }
  - { offsetInCU: 0x50284, offset: 0x50284, size: 0x8, addend: 0x0, symName: __ZNSt3__19__launderB7v160006INS_4pairIKNS_12basic_stringIcNS_11char_traitsIcEENS_9allocatorIcEEEE11DataEntryEQEEEEPT_SC_, symObjAddr: 0x32CAC, symBinAddr: 0x100034E34, symSize: 0x14 }
  - { offsetInCU: 0x502BA, offset: 0x502BA, size: 0x8, addend: 0x0, symName: __ZNSt3__1neB7v160006ERKNS_19__hash_map_iteratorINS_15__hash_iteratorIPNS_11__hash_nodeINS_17__hash_value_typeINS_12basic_stringIcNS_11char_traitsIcEENS_9allocatorIcEEEE11DataEntryEQEEPvEEEEEESI_, symObjAddr: 0x3313C, symBinAddr: 0x1000352C4, symSize: 0x30 }
  - { offsetInCU: 0x502F7, offset: 0x502F7, size: 0x8, addend: 0x0, symName: __ZNSt3__119__debug_db_insert_cB7v160006INS_6vectorI11DataEntryEQNS_9allocatorIS2_EEEEEEvPT_, symObjAddr: 0x335E4, symBinAddr: 0x10003576C, symSize: 0x10 }
  - { offsetInCU: 0x50328, offset: 0x50328, size: 0x8, addend: 0x0, symName: __ZNSt3__17launderB7v160006IKNS_4pairIKNS_12basic_stringIcNS_11char_traitsIcEENS_9allocatorIcEEEE11DataEntryEQEEEEPT_SD_, symObjAddr: 0x33BA4, symBinAddr: 0x100035D2C, symSize: 0x24 }
  - { offsetInCU: 0x50360, offset: 0x50360, size: 0x8, addend: 0x0, symName: __ZNSt3__19__launderB7v160006IKNS_4pairIKNS_12basic_stringIcNS_11char_traitsIcEENS_9allocatorIcEEEE11DataEntryEQEEEEPT_SD_, symObjAddr: 0x33BC8, symBinAddr: 0x100035D50, symSize: 0x14 }
  - { offsetInCU: 0x50396, offset: 0x50396, size: 0x8, addend: 0x0, symName: __ZNSt3__1neB7v160006ERKNS_15__hash_iteratorIPNS_11__hash_nodeINS_17__hash_value_typeINS_12basic_stringIcNS_11char_traitsIcEENS_9allocatorIcEEEE11DataEntryEQEEPvEEEESG_, symObjAddr: 0x33C20, symBinAddr: 0x100035DA8, symSize: 0x34 }
  - { offsetInCU: 0x503D4, offset: 0x503D4, size: 0x8, addend: 0x0, symName: __ZNSt3__1eqB7v160006ERKNS_15__hash_iteratorIPNS_11__hash_nodeINS_17__hash_value_typeINS_12basic_stringIcNS_11char_traitsIcEENS_9allocatorIcEEEE11DataEntryEQEEPvEEEESG_, symObjAddr: 0x33C54, symBinAddr: 0x100035DDC, symSize: 0x30 }
  - { offsetInCU: 0x504BB, offset: 0x504BB, size: 0x8, addend: 0x0, symName: __ZNSt3__112construct_atB7v160006INS_4pairIKNS_12basic_stringIcNS_11char_traitsIcEENS_9allocatorIcEEEE11DataEntryEQEEJRKNS_21piecewise_construct_tENS_5tupleIJRS8_EEENSE_IJEEEEPSA_EEPT_SK_DpOT0_, symObjAddr: 0x34744, symBinAddr: 0x1000368CC, symSize: 0x50 }
  - { offsetInCU: 0x50553, offset: 0x50553, size: 0x8, addend: 0x0, symName: __ZNSt3__125__debug_db_invalidate_allB7v160006INS_12__hash_tableINS_17__hash_value_typeINS_12basic_stringIcNS_11char_traitsIcEENS_9allocatorIcEEEE11DataEntryEQEENS_22__unordered_map_hasherIS8_SA_NS_4hashIS8_EENS_8equal_toIS8_EELb1EEENS_21__unordered_map_equalIS8_SA_SF_SD_Lb1EEENS6_ISA_EEEEEEvPT_, symObjAddr: 0x35038, symBinAddr: 0x1000371C0, symSize: 0x10 }
  - { offsetInCU: 0x50584, offset: 0x50584, size: 0x8, addend: 0x0, symName: __ZNSt3__18distanceB7v160006IPNS_6vectorIdNS_9allocatorIdEEEEEENS_15iterator_traitsIT_E15difference_typeES7_S7_, symObjAddr: 0x35604, symBinAddr: 0x10003778C, symSize: 0x2C }
  - { offsetInCU: 0x505C7, offset: 0x505C7, size: 0x8, addend: 0x0, symName: __ZNSt3__14copyB7v160006IPNS_6vectorIdNS_9allocatorIdEEEES5_EET0_T_S7_S6_, symObjAddr: 0x35680, symBinAddr: 0x100037808, symSize: 0x40 }
  - { offsetInCU: 0x50621, offset: 0x50621, size: 0x8, addend: 0x0, symName: __ZNSt3__125__debug_db_invalidate_allB7v160006INS_6vectorINS1_IdNS_9allocatorIdEEEENS2_IS4_EEEEEEvPT_, symObjAddr: 0x359A0, symBinAddr: 0x100037B28, symSize: 0x10 }
  - { offsetInCU: 0x50653, offset: 0x50653, size: 0x8, addend: 0x0, symName: __ZNSt3__110__distanceB7v160006IPNS_6vectorIdNS_9allocatorIdEEEEEENS_15iterator_traitsIT_E15difference_typeES7_S7_NS_26random_access_iterator_tagE, symObjAddr: 0x359B0, symBinAddr: 0x100037B38, symSize: 0x28 }
  - { offsetInCU: 0x506A0, offset: 0x506A0, size: 0x8, addend: 0x0, symName: __ZNSt3__19__advanceB7v160006IPNS_6vectorIdNS_9allocatorIdEEEEEEvRT_NS_15iterator_traitsIS6_E15difference_typeENS_26random_access_iterator_tagE, symObjAddr: 0x359D8, symBinAddr: 0x100037B60, symSize: 0x30 }
  - { offsetInCU: 0x506EA, offset: 0x506EA, size: 0x8, addend: 0x0, symName: __ZNSt3__16__copyB7v160006INS_17_ClassicAlgPolicyEPNS_6vectorIdNS_9allocatorIdEEEES6_S6_EENS_4pairIT0_T2_EES8_T1_S9_, symObjAddr: 0x35A08, symBinAddr: 0x100037B90, symSize: 0x44 }
  - { offsetInCU: 0x50756, offset: 0x50756, size: 0x8, addend: 0x0, symName: __ZNSt3__123__dispatch_copy_or_moveB7v160006INS_17_ClassicAlgPolicyENS_11__copy_loopIS1_EENS_14__copy_trivialEPNS_6vectorIdNS_9allocatorIdEEEES9_S9_EENS_4pairIT2_T4_EESB_T3_SC_, symObjAddr: 0x35A4C, symBinAddr: 0x100037BD4, symSize: 0x44 }
  - { offsetInCU: 0x507D4, offset: 0x507D4, size: 0x8, addend: 0x0, symName: __ZNSt3__121__unwrap_and_dispatchB7v160006INS_10__overloadINS_11__copy_loopINS_17_ClassicAlgPolicyEEENS_14__copy_trivialEEEPNS_6vectorIdNS_9allocatorIdEEEESB_SB_Li0EEENS_4pairIT0_T2_EESD_T1_SE_, symObjAddr: 0x35A90, symBinAddr: 0x100037C18, symSize: 0xB4 }
  - { offsetInCU: 0x50862, offset: 0x50862, size: 0x8, addend: 0x0, symName: __ZNSt3__114__unwrap_rangeB7v160006IPNS_6vectorIdNS_9allocatorIdEEEES5_EEDaT_T0_, symObjAddr: 0x35B44, symBinAddr: 0x100037CCC, symSize: 0x3C }
  - { offsetInCU: 0x50982, offset: 0x50982, size: 0x8, addend: 0x0, symName: __ZNSt3__113__unwrap_iterB7v160006IPNS_6vectorIdNS_9allocatorIdEEEENS_18__unwrap_iter_implIS5_Lb1EEELi0EEEDTclsrT0_8__unwrapclsr3stdE7declvalIT_EEEES9_, symObjAddr: 0x35C08, symBinAddr: 0x100037D90, symSize: 0x24 }
  - { offsetInCU: 0x509C6, offset: 0x509C6, size: 0x8, addend: 0x0, symName: __ZNSt3__19make_pairB7v160006IPNS_6vectorIdNS_9allocatorIdEEEES5_EENS_4pairINS_18__unwrap_ref_decayIT_E4typeENS7_IT0_E4typeEEEOS8_OSB_, symObjAddr: 0x35C2C, symBinAddr: 0x100037DB4, symSize: 0x38 }
  - { offsetInCU: 0x50A15, offset: 0x50A15, size: 0x8, addend: 0x0, symName: __ZNSt3__114__rewrap_rangeB7v160006IPNS_6vectorIdNS_9allocatorIdEEEES5_S5_EET0_S6_T1_, symObjAddr: 0x35C64, symBinAddr: 0x100037DEC, symSize: 0x2C }
  - { offsetInCU: 0x50A6A, offset: 0x50A6A, size: 0x8, addend: 0x0, symName: __ZNSt3__113__rewrap_iterB7v160006IPNS_6vectorIdNS_9allocatorIdEEEES5_NS_18__unwrap_iter_implIS5_Lb1EEEEET_S8_T0_, symObjAddr: 0x35C90, symBinAddr: 0x100037E18, symSize: 0x3C }
  - { offsetInCU: 0x50B62, offset: 0x50B62, size: 0x8, addend: 0x0, symName: __ZNSt3__130__uninitialized_allocator_copyB7v160006INS_9allocatorINS_6vectorIdNS1_IdEEEEEEPS4_S6_S6_EET2_RT_T0_T1_S7_, symObjAddr: 0x35E78, symBinAddr: 0x100038000, symSize: 0xF4 }
  - { offsetInCU: 0x50C00, offset: 0x50C00, size: 0x8, addend: 0x0, symName: __ZNSt3__122__make_exception_guardB7v160006INS_29_AllocatorDestroyRangeReverseINS_9allocatorINS_6vectorIdNS2_IdEEEEEEPS5_EEEENS_28__exception_guard_exceptionsIT_EESA_, symObjAddr: 0x35FE4, symBinAddr: 0x10003816C, symSize: 0x4C }
  - { offsetInCU: 0x50C5D, offset: 0x50C5D, size: 0x8, addend: 0x0, symName: __ZNSt3__112construct_atB7v160006INS_6vectorIdNS_9allocatorIdEEEEJRS4_EPS4_EEPT_S8_DpOT0_, symObjAddr: 0x36188, symBinAddr: 0x100038310, symSize: 0x3C }
  - { offsetInCU: 0x50CCF, offset: 0x50CCF, size: 0x8, addend: 0x0, symName: __ZNSt3__130__uninitialized_allocator_copyB7v160006INS_9allocatorIdEEPdS3_S3_EET2_RT_T0_T1_S4_, symObjAddr: 0x363A4, symBinAddr: 0x10003852C, symSize: 0xF4 }
  - { offsetInCU: 0x50D6D, offset: 0x50D6D, size: 0x8, addend: 0x0, symName: __ZNSt3__122__make_exception_guardB7v160006INS_29_AllocatorDestroyRangeReverseINS_9allocatorIdEEPdEEEENS_28__exception_guard_exceptionsIT_EES7_, symObjAddr: 0x36498, symBinAddr: 0x100038620, symSize: 0x4C }
  - { offsetInCU: 0x50DA4, offset: 0x50DA4, size: 0x8, addend: 0x0, symName: __ZNSt3__112construct_atB7v160006IdJRdEPdEEPT_S4_DpOT0_, symObjAddr: 0x3663C, symBinAddr: 0x1000387C4, symSize: 0x2C }
  - { offsetInCU: 0x50E16, offset: 0x50E16, size: 0x8, addend: 0x0, symName: __ZNSt3__119__allocator_destroyB7v160006INS_9allocatorIdEENS_16reverse_iteratorIPdEES5_EEvRT_T0_T1_, symObjAddr: 0x36720, symBinAddr: 0x1000388A8, symSize: 0x70 }
  - { offsetInCU: 0x50E79, offset: 0x50E79, size: 0x8, addend: 0x0, symName: __ZNSt3__112__to_addressB7v160006INS_16reverse_iteratorIPdEEvEENS_5decayIDTclsr19__to_address_helperIT_EE6__callclsr3stdE7declvalIRKS5_EEEEE4typeES7_, symObjAddr: 0x36790, symBinAddr: 0x100038918, symSize: 0x24 }
  - { offsetInCU: 0x50ED9, offset: 0x50ED9, size: 0x8, addend: 0x0, symName: __ZNSt3__14prevB7v160006IPdEENS_9enable_ifIXsr25__is_cpp17_input_iteratorIT_EE5valueES3_E4typeES3_NS_15iterator_traitsIS3_E15difference_typeE, symObjAddr: 0x36818, symBinAddr: 0x1000389A0, symSize: 0x50 }
  - { offsetInCU: 0x50F1C, offset: 0x50F1C, size: 0x8, addend: 0x0, symName: __ZNSt3__19__advanceB7v160006IPdEEvRT_NS_15iterator_traitsIS2_E15difference_typeENS_26random_access_iterator_tagE, symObjAddr: 0x368B8, symBinAddr: 0x100038A40, symSize: 0x28 }
  - { offsetInCU: 0x50F67, offset: 0x50F67, size: 0x8, addend: 0x0, symName: __ZNSt3__119__allocator_destroyB7v160006INS_9allocatorINS_6vectorIdNS1_IdEEEEEENS_16reverse_iteratorIPS4_EES8_EEvRT_T0_T1_, symObjAddr: 0x36998, symBinAddr: 0x100038B20, symSize: 0x70 }
  - { offsetInCU: 0x50FCA, offset: 0x50FCA, size: 0x8, addend: 0x0, symName: __ZNSt3__1neB7v160006IPNS_6vectorIdNS_9allocatorIdEEEES5_EEbRKNS_16reverse_iteratorIT_EERKNS6_IT0_EE, symObjAddr: 0x36A3C, symBinAddr: 0x100038BC4, symSize: 0x48 }
  - { offsetInCU: 0x51016, offset: 0x51016, size: 0x8, addend: 0x0, symName: __ZNSt3__112__to_addressB7v160006INS_16reverse_iteratorIPNS_6vectorIdNS_9allocatorIdEEEEEEvEENS_5decayIDTclsr19__to_address_helperIT_EE6__callclsr3stdE7declvalIRKS9_EEEEE4typeESB_, symObjAddr: 0x36A84, symBinAddr: 0x100038C0C, symSize: 0x24 }
  - { offsetInCU: 0x51076, offset: 0x51076, size: 0x8, addend: 0x0, symName: __ZNSt3__14prevB7v160006IPNS_6vectorIdNS_9allocatorIdEEEEEENS_9enable_ifIXsr25__is_cpp17_input_iteratorIT_EE5valueES7_E4typeES7_NS_15iterator_traitsIS7_E15difference_typeE, symObjAddr: 0x36B44, symBinAddr: 0x100038CCC, symSize: 0x50 }
  - { offsetInCU: 0x510B9, offset: 0x510B9, size: 0x8, addend: 0x0, symName: __ZNSt3__119__allocate_at_leastB7v160006INS_9allocatorINS_6vectorIdNS1_IdEEEEEEEENS_19__allocation_resultINS_16allocator_traitsIT_E7pointerEEERS8_m, symObjAddr: 0x36DE0, symBinAddr: 0x100038F68, symSize: 0x40 }
  - { offsetInCU: 0x510FC, offset: 0x510FC, size: 0x8, addend: 0x0, symName: __ZNSt3__18distanceB7v160006IPdEENS_15iterator_traitsIT_E15difference_typeES3_S3_, symObjAddr: 0x37188, symBinAddr: 0x100039310, symSize: 0x2C }
  - { offsetInCU: 0x5113F, offset: 0x5113F, size: 0x8, addend: 0x0, symName: __ZNSt3__14copyB7v160006IPdS1_EET0_T_S3_S2_, symObjAddr: 0x37204, symBinAddr: 0x10003938C, symSize: 0x40 }
  - { offsetInCU: 0x5119A, offset: 0x5119A, size: 0x8, addend: 0x0, symName: __ZNSt3__110__distanceB7v160006IPdEENS_15iterator_traitsIT_E15difference_typeES3_S3_NS_26random_access_iterator_tagE, symObjAddr: 0x37330, symBinAddr: 0x1000394B8, symSize: 0x28 }
  - { offsetInCU: 0x511E7, offset: 0x511E7, size: 0x8, addend: 0x0, symName: __ZNSt3__16__copyB7v160006INS_17_ClassicAlgPolicyEPdS2_S2_EENS_4pairIT0_T2_EES4_T1_S5_, symObjAddr: 0x37358, symBinAddr: 0x1000394E0, symSize: 0x44 }
  - { offsetInCU: 0x51253, offset: 0x51253, size: 0x8, addend: 0x0, symName: __ZNSt3__123__dispatch_copy_or_moveB7v160006INS_17_ClassicAlgPolicyENS_11__copy_loopIS1_EENS_14__copy_trivialEPdS5_S5_EENS_4pairIT2_T4_EES7_T3_S8_, symObjAddr: 0x3739C, symBinAddr: 0x100039524, symSize: 0x44 }
  - { offsetInCU: 0x512D1, offset: 0x512D1, size: 0x8, addend: 0x0, symName: __ZNSt3__121__unwrap_and_dispatchB7v160006INS_10__overloadINS_11__copy_loopINS_17_ClassicAlgPolicyEEENS_14__copy_trivialEEEPdS7_S7_Li0EEENS_4pairIT0_T2_EES9_T1_SA_, symObjAddr: 0x373E0, symBinAddr: 0x100039568, symSize: 0xB4 }
  - { offsetInCU: 0x5135F, offset: 0x5135F, size: 0x8, addend: 0x0, symName: __ZNSt3__114__unwrap_rangeB7v160006IPdS1_EEDaT_T0_, symObjAddr: 0x37494, symBinAddr: 0x10003961C, symSize: 0x3C }
  - { offsetInCU: 0x514AE, offset: 0x514AE, size: 0x8, addend: 0x0, symName: __ZNSt3__19make_pairB7v160006IPdS1_EENS_4pairINS_18__unwrap_ref_decayIT_E4typeENS3_IT0_E4typeEEEOS4_OS7_, symObjAddr: 0x37518, symBinAddr: 0x1000396A0, symSize: 0x38 }
  - { offsetInCU: 0x514FD, offset: 0x514FD, size: 0x8, addend: 0x0, symName: __ZNSt3__114__rewrap_rangeB7v160006IPdS1_S1_EET0_S2_T1_, symObjAddr: 0x37550, symBinAddr: 0x1000396D8, symSize: 0x2C }
  - { offsetInCU: 0x515A2, offset: 0x515A2, size: 0x8, addend: 0x0, symName: __ZNSt3__119__copy_trivial_implB7v160006IddEENS_4pairIPT_PT0_EES3_S3_S5_, symObjAddr: 0x37644, symBinAddr: 0x1000397CC, symSize: 0x84 }
  - { offsetInCU: 0x5160A, offset: 0x5160A, size: 0x8, addend: 0x0, symName: __ZNSt3__19make_pairB7v160006IRPdS1_EENS_4pairINS_18__unwrap_ref_decayIT_E4typeENS4_IT0_E4typeEEEOS5_OS8_, symObjAddr: 0x376C8, symBinAddr: 0x100039850, symSize: 0x38 }
  - { offsetInCU: 0x51659, offset: 0x51659, size: 0x8, addend: 0x0, symName: __ZNSt3__112construct_atB7v160006I11DataEntryEQJRKS1_EPS1_EEPT_S6_DpOT0_, symObjAddr: 0x37AFC, symBinAddr: 0x100039C84, symSize: 0x3C }
  - { offsetInCU: 0x516CB, offset: 0x516CB, size: 0x8, addend: 0x0, symName: __ZNSt3__122__make_exception_guardB7v160006INS_6vectorINS1_IdNS_9allocatorIdEEEENS2_IS4_EEE16__destroy_vectorEEENS_28__exception_guard_exceptionsIT_EES9_, symObjAddr: 0x382DC, symBinAddr: 0x10003A464, symSize: 0x40 }
  - { offsetInCU: 0x51700, offset: 0x51700, size: 0x8, addend: 0x0, symName: __ZNSt3__119__debug_db_insert_cB7v160006INS_13unordered_mapINS_12basic_stringIcNS_11char_traitsIcEENS_9allocatorIcEEEE5EqlotNS_4hashIS7_EENS_8equal_toIS7_EENS5_INS_4pairIKS7_S8_EEEEEEEEvPT_, symObjAddr: 0x38624, symBinAddr: 0x10003A7AC, symSize: 0x10 }
  - { offsetInCU: 0x51731, offset: 0x51731, size: 0x8, addend: 0x0, symName: __ZNSt3__118__debug_db_erase_cB7v160006INS_12__hash_tableINS_17__hash_value_typeINS_12basic_stringIcNS_11char_traitsIcEENS_9allocatorIcEEEE5EqlotEENS_22__unordered_map_hasherIS8_SA_NS_4hashIS8_EENS_8equal_toIS8_EELb1EEENS_21__unordered_map_equalIS8_SA_SF_SD_Lb1EEENS6_ISA_EEEEEEvPT_, symObjAddr: 0x38D5C, symBinAddr: 0x10003AEE4, symSize: 0x10 }
  - { offsetInCU: 0x51795, offset: 0x51795, size: 0x8, addend: 0x0, symName: __ZNSt3__110destroy_atB7v160006INS_4pairIKNS_12basic_stringIcNS_11char_traitsIcEENS_9allocatorIcEEEE5EqlotEELi0EEEvPT_, symObjAddr: 0x38EB0, symBinAddr: 0x10003B038, symSize: 0x24 }
  - { offsetInCU: 0x517CC, offset: 0x517CC, size: 0x8, addend: 0x0, symName: __ZNSt3__112__destroy_atB7v160006INS_4pairIKNS_12basic_stringIcNS_11char_traitsIcEENS_9allocatorIcEEEE5EqlotEELi0EEEvPT_, symObjAddr: 0x38ED4, symBinAddr: 0x10003B05C, symSize: 0x24 }
  - { offsetInCU: 0x51803, offset: 0x51803, size: 0x8, addend: 0x0, symName: __ZNSt3__17launderB7v160006INS_4pairIKNS_12basic_stringIcNS_11char_traitsIcEENS_9allocatorIcEEEE5EqlotEEEEPT_SC_, symObjAddr: 0x38F80, symBinAddr: 0x10003B108, symSize: 0x24 }
  - { offsetInCU: 0x5183B, offset: 0x5183B, size: 0x8, addend: 0x0, symName: __ZNSt3__19__launderB7v160006INS_4pairIKNS_12basic_stringIcNS_11char_traitsIcEENS_9allocatorIcEEEE5EqlotEEEEPT_SC_, symObjAddr: 0x38FA4, symBinAddr: 0x10003B12C, symSize: 0x14 }
  - { offsetInCU: 0x51871, offset: 0x51871, size: 0x8, addend: 0x0, symName: __ZNSt3__1neB7v160006ERKNS_19__hash_map_iteratorINS_15__hash_iteratorIPNS_11__hash_nodeINS_17__hash_value_typeINS_12basic_stringIcNS_11char_traitsIcEENS_9allocatorIcEEEE5EqlotEEPvEEEEEESI_, symObjAddr: 0x39434, symBinAddr: 0x10003B5BC, symSize: 0x30 }
  - { offsetInCU: 0x518AE, offset: 0x518AE, size: 0x8, addend: 0x0, symName: __ZNSt3__119__debug_db_insert_cB7v160006INS_6vectorI5EqlotNS_9allocatorIS2_EEEEEEvPT_, symObjAddr: 0x398E4, symBinAddr: 0x10003BA6C, symSize: 0x10 }
  - { offsetInCU: 0x518DF, offset: 0x518DF, size: 0x8, addend: 0x0, symName: __ZNSt3__17launderB7v160006IKNS_4pairIKNS_12basic_stringIcNS_11char_traitsIcEENS_9allocatorIcEEEE5EqlotEEEEPT_SD_, symObjAddr: 0x39EA4, symBinAddr: 0x10003C02C, symSize: 0x24 }
  - { offsetInCU: 0x51917, offset: 0x51917, size: 0x8, addend: 0x0, symName: __ZNSt3__19__launderB7v160006IKNS_4pairIKNS_12basic_stringIcNS_11char_traitsIcEENS_9allocatorIcEEEE5EqlotEEEEPT_SD_, symObjAddr: 0x39EC8, symBinAddr: 0x10003C050, symSize: 0x14 }
  - { offsetInCU: 0x5194D, offset: 0x5194D, size: 0x8, addend: 0x0, symName: __ZNSt3__1neB7v160006ERKNS_15__hash_iteratorIPNS_11__hash_nodeINS_17__hash_value_typeINS_12basic_stringIcNS_11char_traitsIcEENS_9allocatorIcEEEE5EqlotEEPvEEEESG_, symObjAddr: 0x39F20, symBinAddr: 0x10003C0A8, symSize: 0x34 }
  - { offsetInCU: 0x5198B, offset: 0x5198B, size: 0x8, addend: 0x0, symName: __ZNSt3__1eqB7v160006ERKNS_15__hash_iteratorIPNS_11__hash_nodeINS_17__hash_value_typeINS_12basic_stringIcNS_11char_traitsIcEENS_9allocatorIcEEEE5EqlotEEPvEEEESG_, symObjAddr: 0x39F54, symBinAddr: 0x10003C0DC, symSize: 0x30 }
  - { offsetInCU: 0x51A72, offset: 0x51A72, size: 0x8, addend: 0x0, symName: __ZNSt3__112construct_atB7v160006INS_4pairIKNS_12basic_stringIcNS_11char_traitsIcEENS_9allocatorIcEEEE5EqlotEEJRKNS_21piecewise_construct_tENS_5tupleIJRS8_EEENSE_IJEEEEPSA_EEPT_SK_DpOT0_, symObjAddr: 0x3AA44, symBinAddr: 0x10003CBCC, symSize: 0x50 }
  - { offsetInCU: 0x51B0A, offset: 0x51B0A, size: 0x8, addend: 0x0, symName: __ZNSt3__125__debug_db_invalidate_allB7v160006INS_12__hash_tableINS_17__hash_value_typeINS_12basic_stringIcNS_11char_traitsIcEENS_9allocatorIcEEEE5EqlotEENS_22__unordered_map_hasherIS8_SA_NS_4hashIS8_EENS_8equal_toIS8_EELb1EEENS_21__unordered_map_equalIS8_SA_SF_SD_Lb1EEENS6_ISA_EEEEEEvPT_, symObjAddr: 0x3B1C8, symBinAddr: 0x10003D350, symSize: 0x10 }
  - { offsetInCU: 0x51B3B, offset: 0x51B3B, size: 0x8, addend: 0x0, symName: __ZNSt3__112construct_atB7v160006I5EqlotJRKS1_EPS1_EEPT_S6_DpOT0_, symObjAddr: 0x3B754, symBinAddr: 0x10003D8DC, symSize: 0x3C }
  - { offsetInCU: 0x51BAD, offset: 0x51BAD, size: 0x8, addend: 0x0, symName: __ZNSt3__1neB7v160006ERKNS_25__hash_map_const_iteratorINS_21__hash_const_iteratorIPNS_11__hash_nodeINS_17__hash_value_typeINS_12basic_stringIcNS_11char_traitsIcEENS_9allocatorIcEEEE6DefectEEPvEEEEEESI_, symObjAddr: 0x3C010, symBinAddr: 0x10003E198, symSize: 0x30 }
  - { offsetInCU: 0x51BEA, offset: 0x51BEA, size: 0x8, addend: 0x0, symName: __ZNSt3__1neB7v160006ERKNS_25__hash_map_const_iteratorINS_21__hash_const_iteratorIPNS_11__hash_nodeINS_17__hash_value_typeINS_12basic_stringIcNS_11char_traitsIcEENS_9allocatorIcEEEE11DataEntryEQEEPvEEEEEESI_, symObjAddr: 0x3C068, symBinAddr: 0x10003E1F0, symSize: 0x30 }
  - { offsetInCU: 0x51C27, offset: 0x51C27, size: 0x8, addend: 0x0, symName: __ZNSt3__1neB7v160006ERKNS_25__hash_map_const_iteratorINS_21__hash_const_iteratorIPNS_11__hash_nodeINS_17__hash_value_typeINS_12basic_stringIcNS_11char_traitsIcEENS_9allocatorIcEEEE5EqlotEEPvEEEEEESI_, symObjAddr: 0x3C110, symBinAddr: 0x10003E298, symSize: 0x30 }
  - { offsetInCU: 0x51C64, offset: 0x51C64, size: 0x8, addend: 0x0, symName: __ZNSt3__119__debug_db_insert_cB7v160006INS_6vectorINS_5tupleIJ6Defect11DataEntryEQ5EqlotEEENS_9allocatorIS6_EEEEEEvPT_, symObjAddr: 0x3C3FC, symBinAddr: 0x10003E584, symSize: 0x10 }
  - { offsetInCU: 0x51C95, offset: 0x51C95, size: 0x8, addend: 0x0, symName: __ZNSt3__1neB7v160006ERKNS_21__hash_const_iteratorIPNS_11__hash_nodeINS_17__hash_value_typeINS_12basic_stringIcNS_11char_traitsIcEENS_9allocatorIcEEEE6DefectEEPvEEEESG_, symObjAddr: 0x3C630, symBinAddr: 0x10003E7B8, symSize: 0x34 }
  - { offsetInCU: 0x51CD3, offset: 0x51CD3, size: 0x8, addend: 0x0, symName: __ZNSt3__1eqB7v160006ERKNS_21__hash_const_iteratorIPNS_11__hash_nodeINS_17__hash_value_typeINS_12basic_stringIcNS_11char_traitsIcEENS_9allocatorIcEEEE6DefectEEPvEEEESG_, symObjAddr: 0x3C664, symBinAddr: 0x10003E7EC, symSize: 0x30 }
  - { offsetInCU: 0x51D42, offset: 0x51D42, size: 0x8, addend: 0x0, symName: __ZNSt3__1neB7v160006ERKNS_21__hash_const_iteratorIPNS_11__hash_nodeINS_17__hash_value_typeINS_12basic_stringIcNS_11char_traitsIcEENS_9allocatorIcEEEE11DataEntryEQEEPvEEEESG_, symObjAddr: 0x3C6D8, symBinAddr: 0x10003E860, symSize: 0x34 }
  - { offsetInCU: 0x51D80, offset: 0x51D80, size: 0x8, addend: 0x0, symName: __ZNSt3__1eqB7v160006ERKNS_21__hash_const_iteratorIPNS_11__hash_nodeINS_17__hash_value_typeINS_12basic_stringIcNS_11char_traitsIcEENS_9allocatorIcEEEE11DataEntryEQEEPvEEEESG_, symObjAddr: 0x3C70C, symBinAddr: 0x10003E894, symSize: 0x30 }
  - { offsetInCU: 0x51DBC, offset: 0x51DBC, size: 0x8, addend: 0x0, symName: __ZNSt3__1neB7v160006ERKNS_21__hash_const_iteratorIPNS_11__hash_nodeINS_17__hash_value_typeINS_12basic_stringIcNS_11char_traitsIcEENS_9allocatorIcEEEE5EqlotEEPvEEEESG_, symObjAddr: 0x3CA9C, symBinAddr: 0x10003EC24, symSize: 0x34 }
  - { offsetInCU: 0x51DFA, offset: 0x51DFA, size: 0x8, addend: 0x0, symName: __ZNSt3__1eqB7v160006ERKNS_21__hash_const_iteratorIPNS_11__hash_nodeINS_17__hash_value_typeINS_12basic_stringIcNS_11char_traitsIcEENS_9allocatorIcEEEE5EqlotEEPvEEEESG_, symObjAddr: 0x3CAD0, symBinAddr: 0x10003EC58, symSize: 0x30 }
  - { offsetInCU: 0x51E5D, offset: 0x51E5D, size: 0x8, addend: 0x0, symName: __ZNSt3__112construct_atB7v160006INS_5tupleIJ6Defect11DataEntryEQ5EqlotEEEJRKS2_RKS3_RKS4_EPS5_EEPT_SE_DpOT0_, symObjAddr: 0x3D158, symBinAddr: 0x10003F2E0, symSize: 0x4C }
  - { offsetInCU: 0x51F14, offset: 0x51F14, size: 0x8, addend: 0x0, symName: __ZNSt3__119__allocate_at_leastB7v160006INS_9allocatorINS_5tupleIJ6Defect11DataEntryEQ5EqlotEEEEEEENS_19__allocation_resultINS_16allocator_traitsIT_E7pointerEEERSA_m, symObjAddr: 0x3D82C, symBinAddr: 0x10003F9B4, symSize: 0x40 }
  - { offsetInCU: 0x51F57, offset: 0x51F57, size: 0x8, addend: 0x0, symName: __ZNSt3__142__uninitialized_allocator_move_if_noexceptB7v160006INS_9allocatorINS_5tupleIJ6Defect11DataEntryEQ5EqlotEEEEENS_16reverse_iteratorIPS6_EESA_SA_EET2_RT_T0_T1_SB_, symObjAddr: 0x3D9E4, symBinAddr: 0x10003FB6C, symSize: 0x12C }
  - { offsetInCU: 0x51FF8, offset: 0x51FF8, size: 0x8, addend: 0x0, symName: __ZNSt3__14swapB7v160006IPNS_5tupleIJ6Defect11DataEntryEQ5EqlotEEEEENS_9enable_ifIXaasr21is_move_constructibleIT_EE5valuesr18is_move_assignableIS8_EE5valueEvE4typeERS8_SB_, symObjAddr: 0x3DB5C, symBinAddr: 0x10003FCE4, symSize: 0x3C }
  - { offsetInCU: 0x52048, offset: 0x52048, size: 0x8, addend: 0x0, symName: __ZNSt3__125__debug_db_invalidate_allB7v160006INS_6vectorINS_5tupleIJ6Defect11DataEntryEQ5EqlotEEENS_9allocatorIS6_EEEEEEvPT_, symObjAddr: 0x3DC60, symBinAddr: 0x10003FDE8, symSize: 0x10 }
  - { offsetInCU: 0x52079, offset: 0x52079, size: 0x8, addend: 0x0, symName: __ZNSt3__122__make_exception_guardB7v160006INS_29_AllocatorDestroyRangeReverseINS_9allocatorINS_5tupleIJ6Defect11DataEntryEQ5EqlotEEEEENS_16reverse_iteratorIPS7_EEEEEENS_28__exception_guard_exceptionsIT_EESE_, symObjAddr: 0x3DC70, symBinAddr: 0x10003FDF8, symSize: 0x4C }
  - { offsetInCU: 0x520AF, offset: 0x520AF, size: 0x8, addend: 0x0, symName: __ZNSt3__1neB7v160006IPNS_5tupleIJ6Defect11DataEntryEQ5EqlotEEES6_EEbRKNS_16reverse_iteratorIT_EERKNS7_IT0_EE, symObjAddr: 0x3DD00, symBinAddr: 0x10003FE88, symSize: 0x48 }
  - { offsetInCU: 0x520FB, offset: 0x520FB, size: 0x8, addend: 0x0, symName: __ZNSt3__112__to_addressB7v160006INS_16reverse_iteratorIPNS_5tupleIJ6Defect11DataEntryEQ5EqlotEEEEEvEENS_5decayIDTclsr19__to_address_helperIT_EE6__callclsr3stdE7declvalIRKSA_EEEEE4typeESC_, symObjAddr: 0x3DD78, symBinAddr: 0x10003FF00, symSize: 0x24 }
  - { offsetInCU: 0x52131, offset: 0x52131, size: 0x8, addend: 0x0, symName: __ZNSt3__112construct_atB7v160006INS_5tupleIJ6Defect11DataEntryEQ5EqlotEEEJS5_EPS5_EEPT_S8_DpOT0_, symObjAddr: 0x3DEC8, symBinAddr: 0x100040050, symSize: 0x3C }
  - { offsetInCU: 0x521CD, offset: 0x521CD, size: 0x8, addend: 0x0, symName: __ZNSt3__14prevB7v160006IPNS_5tupleIJ6Defect11DataEntryEQ5EqlotEEEEENS_9enable_ifIXsr25__is_cpp17_input_iteratorIT_EE5valueES8_E4typeES8_NS_15iterator_traitsIS8_E15difference_typeE, symObjAddr: 0x3E0FC, symBinAddr: 0x100040284, symSize: 0x50 }
  - { offsetInCU: 0x52210, offset: 0x52210, size: 0x8, addend: 0x0, symName: __ZNSt3__19__advanceB7v160006IPNS_5tupleIJ6Defect11DataEntryEQ5EqlotEEEEEvRT_NS_15iterator_traitsIS7_E15difference_typeENS_26random_access_iterator_tagE, symObjAddr: 0x3E19C, symBinAddr: 0x100040324, symSize: 0x30 }
  - { offsetInCU: 0x5225B, offset: 0x5225B, size: 0x8, addend: 0x0, symName: __ZNSt3__119__allocator_destroyB7v160006INS_9allocatorINS_5tupleIJ6Defect11DataEntryEQ5EqlotEEEEENS_16reverse_iteratorINS8_IPS6_EEEESB_EEvRT_T0_T1_, symObjAddr: 0x3E2D0, symBinAddr: 0x100040458, symSize: 0x70 }
  - { offsetInCU: 0x522C0, offset: 0x522C0, size: 0x8, addend: 0x0, symName: __ZNSt3__1neB7v160006INS_16reverse_iteratorIPNS_5tupleIJ6Defect11DataEntryEQ5EqlotEEEEES8_EEbRKNS1_IT_EERKNS1_IT0_EE, symObjAddr: 0x3E37C, symBinAddr: 0x100040504, symSize: 0x60 }
  - { offsetInCU: 0x5230C, offset: 0x5230C, size: 0x8, addend: 0x0, symName: __ZNSt3__112__to_addressB7v160006INS_16reverse_iteratorINS1_IPNS_5tupleIJ6Defect11DataEntryEQ5EqlotEEEEEEEvEENS_5decayIDTclsr19__to_address_helperIT_EE6__callclsr3stdE7declvalIRKSB_EEEEE4typeESD_, symObjAddr: 0x3E3DC, symBinAddr: 0x100040564, symSize: 0x24 }
  - { offsetInCU: 0x5236C, offset: 0x5236C, size: 0x8, addend: 0x0, symName: __ZNSt3__14prevB7v160006INS_16reverse_iteratorIPNS_5tupleIJ6Defect11DataEntryEQ5EqlotEEEEEEENS_9enable_ifIXsr25__is_cpp17_input_iteratorIT_EE5valueESA_E4typeESA_NS_15iterator_traitsISA_E15difference_typeE, symObjAddr: 0x3E4D8, symBinAddr: 0x100040660, symSize: 0x60 }
  - { offsetInCU: 0x523AF, offset: 0x523AF, size: 0x8, addend: 0x0, symName: __ZNSt3__19__advanceB7v160006INS_16reverse_iteratorIPNS_5tupleIJ6Defect11DataEntryEQ5EqlotEEEEEEEvRT_NS_15iterator_traitsIS9_E15difference_typeENS_26random_access_iterator_tagE, symObjAddr: 0x3E588, symBinAddr: 0x100040710, symSize: 0x2C }
  - { offsetInCU: 0x523F9, offset: 0x523F9, size: 0x8, addend: 0x0, symName: __ZNSt3__1eqB7v160006ERKNS_25__hash_map_const_iteratorINS_21__hash_const_iteratorIPNS_11__hash_nodeINS_17__hash_value_typeINS_12basic_stringIcNS_11char_traitsIcEENS_9allocatorIcEEEE11DataEntryEQEEPvEEEEEESI_, symObjAddr: 0x3E844, symBinAddr: 0x1000409CC, symSize: 0x30 }
  - { offsetInCU: 0x52437, offset: 0x52437, size: 0x8, addend: 0x0, symName: __ZNSt3__120__throw_out_of_rangeB7v160006EPKc, symObjAddr: 0x3E874, symBinAddr: 0x1000409FC, symSize: 0x64 }
  - { offsetInCU: 0x524C7, offset: 0x524C7, size: 0x8, addend: 0x0, symName: __ZNSt3__1eqB7v160006ERKNS_25__hash_map_const_iteratorINS_21__hash_const_iteratorIPNS_11__hash_nodeINS_17__hash_value_typeINS_12basic_stringIcNS_11char_traitsIcEENS_9allocatorIcEEEE5EqlotEEPvEEEEEESI_, symObjAddr: 0x3E9DC, symBinAddr: 0x100040B64, symSize: 0x30 }
  - { offsetInCU: 0x5256A, offset: 0x5256A, size: 0x8, addend: 0x0, symName: __ZNSt3__119__debug_db_insert_cB7v160006INS_13unordered_mapINS_12basic_stringIcNS_11char_traitsIcEENS_9allocatorIcEEEE8InlineTRNS_4hashIS7_EENS_8equal_toIS7_EENS5_INS_4pairIKS7_S8_EEEEEEEEvPT_, symObjAddr: 0x3EB78, symBinAddr: 0x100040D00, symSize: 0x10 }
  - { offsetInCU: 0x5259B, offset: 0x5259B, size: 0x8, addend: 0x0, symName: __ZNSt3__118__debug_db_erase_cB7v160006INS_12__hash_tableINS_17__hash_value_typeINS_12basic_stringIcNS_11char_traitsIcEENS_9allocatorIcEEEE8InlineTREENS_22__unordered_map_hasherIS8_SA_NS_4hashIS8_EENS_8equal_toIS8_EELb1EEENS_21__unordered_map_equalIS8_SA_SF_SD_Lb1EEENS6_ISA_EEEEEEvPT_, symObjAddr: 0x3F2B0, symBinAddr: 0x100041438, symSize: 0x10 }
  - { offsetInCU: 0x525FF, offset: 0x525FF, size: 0x8, addend: 0x0, symName: __ZNSt3__110destroy_atB7v160006INS_4pairIKNS_12basic_stringIcNS_11char_traitsIcEENS_9allocatorIcEEEE8InlineTREELi0EEEvPT_, symObjAddr: 0x3F404, symBinAddr: 0x10004158C, symSize: 0x24 }
  - { offsetInCU: 0x52636, offset: 0x52636, size: 0x8, addend: 0x0, symName: __ZNSt3__112__destroy_atB7v160006INS_4pairIKNS_12basic_stringIcNS_11char_traitsIcEENS_9allocatorIcEEEE8InlineTREELi0EEEvPT_, symObjAddr: 0x3F428, symBinAddr: 0x1000415B0, symSize: 0x24 }
  - { offsetInCU: 0x5266D, offset: 0x5266D, size: 0x8, addend: 0x0, symName: __ZNSt3__17launderB7v160006INS_4pairIKNS_12basic_stringIcNS_11char_traitsIcEENS_9allocatorIcEEEE8InlineTREEEEPT_SC_, symObjAddr: 0x3F4D4, symBinAddr: 0x10004165C, symSize: 0x24 }
  - { offsetInCU: 0x526A5, offset: 0x526A5, size: 0x8, addend: 0x0, symName: __ZNSt3__19__launderB7v160006INS_4pairIKNS_12basic_stringIcNS_11char_traitsIcEENS_9allocatorIcEEEE8InlineTREEEEPT_SC_, symObjAddr: 0x3F4F8, symBinAddr: 0x100041680, symSize: 0x14 }
  - { offsetInCU: 0x526DB, offset: 0x526DB, size: 0x8, addend: 0x0, symName: __ZNSt3__1neB7v160006ERKNS_19__hash_map_iteratorINS_15__hash_iteratorIPNS_11__hash_nodeINS_17__hash_value_typeINS_12basic_stringIcNS_11char_traitsIcEENS_9allocatorIcEEEE8InlineTREEPvEEEEEESI_, symObjAddr: 0x3F988, symBinAddr: 0x100041B10, symSize: 0x30 }
  - { offsetInCU: 0x52718, offset: 0x52718, size: 0x8, addend: 0x0, symName: __ZNSt3__119__debug_db_insert_cB7v160006INS_6vectorI8InlineTRNS_9allocatorIS2_EEEEEEvPT_, symObjAddr: 0x3FD3C, symBinAddr: 0x100041EC4, symSize: 0x10 }
  - { offsetInCU: 0x52749, offset: 0x52749, size: 0x8, addend: 0x0, symName: __ZNSt3__17launderB7v160006IKNS_4pairIKNS_12basic_stringIcNS_11char_traitsIcEENS_9allocatorIcEEEE8InlineTREEEEPT_SD_, symObjAddr: 0x402FC, symBinAddr: 0x100042484, symSize: 0x24 }
  - { offsetInCU: 0x52781, offset: 0x52781, size: 0x8, addend: 0x0, symName: __ZNSt3__19__launderB7v160006IKNS_4pairIKNS_12basic_stringIcNS_11char_traitsIcEENS_9allocatorIcEEEE8InlineTREEEEPT_SD_, symObjAddr: 0x40320, symBinAddr: 0x1000424A8, symSize: 0x14 }
  - { offsetInCU: 0x527B7, offset: 0x527B7, size: 0x8, addend: 0x0, symName: __ZNSt3__1neB7v160006ERKNS_15__hash_iteratorIPNS_11__hash_nodeINS_17__hash_value_typeINS_12basic_stringIcNS_11char_traitsIcEENS_9allocatorIcEEEE8InlineTREEPvEEEESG_, symObjAddr: 0x40378, symBinAddr: 0x100042500, symSize: 0x34 }
  - { offsetInCU: 0x527F5, offset: 0x527F5, size: 0x8, addend: 0x0, symName: __ZNSt3__1eqB7v160006ERKNS_15__hash_iteratorIPNS_11__hash_nodeINS_17__hash_value_typeINS_12basic_stringIcNS_11char_traitsIcEENS_9allocatorIcEEEE8InlineTREEPvEEEESG_, symObjAddr: 0x403AC, symBinAddr: 0x100042534, symSize: 0x30 }
  - { offsetInCU: 0x528DC, offset: 0x528DC, size: 0x8, addend: 0x0, symName: __ZNSt3__112construct_atB7v160006INS_4pairIKNS_12basic_stringIcNS_11char_traitsIcEENS_9allocatorIcEEEE8InlineTREEJRKNS_21piecewise_construct_tENS_5tupleIJRS8_EEENSE_IJEEEEPSA_EEPT_SK_DpOT0_, symObjAddr: 0x40E9C, symBinAddr: 0x100043024, symSize: 0x50 }
  - { offsetInCU: 0x52974, offset: 0x52974, size: 0x8, addend: 0x0, symName: __ZNSt3__125__debug_db_invalidate_allB7v160006INS_12__hash_tableINS_17__hash_value_typeINS_12basic_stringIcNS_11char_traitsIcEENS_9allocatorIcEEEE8InlineTREENS_22__unordered_map_hasherIS8_SA_NS_4hashIS8_EENS_8equal_toIS8_EELb1EEENS_21__unordered_map_equalIS8_SA_SF_SD_Lb1EEENS6_ISA_EEEEEEvPT_, symObjAddr: 0x415B0, symBinAddr: 0x100043738, symSize: 0x10 }
  - { offsetInCU: 0x529A5, offset: 0x529A5, size: 0x8, addend: 0x0, symName: __ZNSt3__112construct_atB7v160006I8InlineTRJRKS1_EPS1_EEPT_S6_DpOT0_, symObjAddr: 0x41B3C, symBinAddr: 0x100043CC4, symSize: 0x3C }
  - { offsetInCU: 0x52A17, offset: 0x52A17, size: 0x8, addend: 0x0, symName: __ZNSt3__1neB7v160006ERKNS_25__hash_map_const_iteratorINS_21__hash_const_iteratorIPNS_11__hash_nodeINS_17__hash_value_typeINS_12basic_stringIcNS_11char_traitsIcEENS_9allocatorIcEEEE8InlineTREEPvEEEEEESI_, symObjAddr: 0x421B0, symBinAddr: 0x100044338, symSize: 0x30 }
  - { offsetInCU: 0x52A54, offset: 0x52A54, size: 0x8, addend: 0x0, symName: __ZNSt3__119__debug_db_insert_cB7v160006INS_6vectorINS_5tupleIJ8InlineTR11DataEntryEQ5EqlotEEENS_9allocatorIS6_EEEEEEvPT_, symObjAddr: 0x42354, symBinAddr: 0x1000444DC, symSize: 0x10 }
  - { offsetInCU: 0x52A85, offset: 0x52A85, size: 0x8, addend: 0x0, symName: __ZNSt3__1neB7v160006ERKNS_21__hash_const_iteratorIPNS_11__hash_nodeINS_17__hash_value_typeINS_12basic_stringIcNS_11char_traitsIcEENS_9allocatorIcEEEE8InlineTREEPvEEEESG_, symObjAddr: 0x42588, symBinAddr: 0x100044710, symSize: 0x34 }
  - { offsetInCU: 0x52AC3, offset: 0x52AC3, size: 0x8, addend: 0x0, symName: __ZNSt3__1eqB7v160006ERKNS_21__hash_const_iteratorIPNS_11__hash_nodeINS_17__hash_value_typeINS_12basic_stringIcNS_11char_traitsIcEENS_9allocatorIcEEEE8InlineTREEPvEEEESG_, symObjAddr: 0x425BC, symBinAddr: 0x100044744, symSize: 0x30 }
  - { offsetInCU: 0x52B59, offset: 0x52B59, size: 0x8, addend: 0x0, symName: __ZNSt3__112construct_atB7v160006INS_5tupleIJ8InlineTR11DataEntryEQ5EqlotEEEJRKS2_RKS3_RKS4_EPS5_EEPT_SE_DpOT0_, symObjAddr: 0x42928, symBinAddr: 0x100044AB0, symSize: 0x4C }
  - { offsetInCU: 0x52C10, offset: 0x52C10, size: 0x8, addend: 0x0, symName: __ZNSt3__119__allocate_at_leastB7v160006INS_9allocatorINS_5tupleIJ8InlineTR11DataEntryEQ5EqlotEEEEEEENS_19__allocation_resultINS_16allocator_traitsIT_E7pointerEEERSA_m, symObjAddr: 0x42F94, symBinAddr: 0x10004511C, symSize: 0x40 }
  - { offsetInCU: 0x52C53, offset: 0x52C53, size: 0x8, addend: 0x0, symName: __ZNSt3__142__uninitialized_allocator_move_if_noexceptB7v160006INS_9allocatorINS_5tupleIJ8InlineTR11DataEntryEQ5EqlotEEEEENS_16reverse_iteratorIPS6_EESA_SA_EET2_RT_T0_T1_SB_, symObjAddr: 0x4314C, symBinAddr: 0x1000452D4, symSize: 0x12C }
  - { offsetInCU: 0x52CF4, offset: 0x52CF4, size: 0x8, addend: 0x0, symName: __ZNSt3__14swapB7v160006IPNS_5tupleIJ8InlineTR11DataEntryEQ5EqlotEEEEENS_9enable_ifIXaasr21is_move_constructibleIT_EE5valuesr18is_move_assignableIS8_EE5valueEvE4typeERS8_SB_, symObjAddr: 0x432C4, symBinAddr: 0x10004544C, symSize: 0x3C }
  - { offsetInCU: 0x52D44, offset: 0x52D44, size: 0x8, addend: 0x0, symName: __ZNSt3__125__debug_db_invalidate_allB7v160006INS_6vectorINS_5tupleIJ8InlineTR11DataEntryEQ5EqlotEEENS_9allocatorIS6_EEEEEEvPT_, symObjAddr: 0x433C8, symBinAddr: 0x100045550, symSize: 0x10 }
  - { offsetInCU: 0x52D75, offset: 0x52D75, size: 0x8, addend: 0x0, symName: __ZNSt3__122__make_exception_guardB7v160006INS_29_AllocatorDestroyRangeReverseINS_9allocatorINS_5tupleIJ8InlineTR11DataEntryEQ5EqlotEEEEENS_16reverse_iteratorIPS7_EEEEEENS_28__exception_guard_exceptionsIT_EESE_, symObjAddr: 0x433D8, symBinAddr: 0x100045560, symSize: 0x4C }
  - { offsetInCU: 0x52DAB, offset: 0x52DAB, size: 0x8, addend: 0x0, symName: __ZNSt3__1neB7v160006IPNS_5tupleIJ8InlineTR11DataEntryEQ5EqlotEEES6_EEbRKNS_16reverse_iteratorIT_EERKNS7_IT0_EE, symObjAddr: 0x43468, symBinAddr: 0x1000455F0, symSize: 0x48 }
  - { offsetInCU: 0x52DF7, offset: 0x52DF7, size: 0x8, addend: 0x0, symName: __ZNSt3__112__to_addressB7v160006INS_16reverse_iteratorIPNS_5tupleIJ8InlineTR11DataEntryEQ5EqlotEEEEEvEENS_5decayIDTclsr19__to_address_helperIT_EE6__callclsr3stdE7declvalIRKSA_EEEEE4typeESC_, symObjAddr: 0x434E0, symBinAddr: 0x100045668, symSize: 0x24 }
  - { offsetInCU: 0x52E2D, offset: 0x52E2D, size: 0x8, addend: 0x0, symName: __ZNSt3__112construct_atB7v160006INS_5tupleIJ8InlineTR11DataEntryEQ5EqlotEEEJS5_EPS5_EEPT_S8_DpOT0_, symObjAddr: 0x43630, symBinAddr: 0x1000457B8, symSize: 0x3C }
  - { offsetInCU: 0x52EC9, offset: 0x52EC9, size: 0x8, addend: 0x0, symName: __ZNSt3__14prevB7v160006IPNS_5tupleIJ8InlineTR11DataEntryEQ5EqlotEEEEENS_9enable_ifIXsr25__is_cpp17_input_iteratorIT_EE5valueES8_E4typeES8_NS_15iterator_traitsIS8_E15difference_typeE, symObjAddr: 0x437FC, symBinAddr: 0x100045984, symSize: 0x50 }
  - { offsetInCU: 0x52F0C, offset: 0x52F0C, size: 0x8, addend: 0x0, symName: __ZNSt3__19__advanceB7v160006IPNS_5tupleIJ8InlineTR11DataEntryEQ5EqlotEEEEEvRT_NS_15iterator_traitsIS7_E15difference_typeENS_26random_access_iterator_tagE, symObjAddr: 0x4389C, symBinAddr: 0x100045A24, symSize: 0x30 }
  - { offsetInCU: 0x52F57, offset: 0x52F57, size: 0x8, addend: 0x0, symName: __ZNSt3__119__allocator_destroyB7v160006INS_9allocatorINS_5tupleIJ8InlineTR11DataEntryEQ5EqlotEEEEENS_16reverse_iteratorINS8_IPS6_EEEESB_EEvRT_T0_T1_, symObjAddr: 0x439D0, symBinAddr: 0x100045B58, symSize: 0x70 }
  - { offsetInCU: 0x52FBC, offset: 0x52FBC, size: 0x8, addend: 0x0, symName: __ZNSt3__1neB7v160006INS_16reverse_iteratorIPNS_5tupleIJ8InlineTR11DataEntryEQ5EqlotEEEEES8_EEbRKNS1_IT_EERKNS1_IT0_EE, symObjAddr: 0x43A7C, symBinAddr: 0x100045C04, symSize: 0x60 }
  - { offsetInCU: 0x53008, offset: 0x53008, size: 0x8, addend: 0x0, symName: __ZNSt3__112__to_addressB7v160006INS_16reverse_iteratorINS1_IPNS_5tupleIJ8InlineTR11DataEntryEQ5EqlotEEEEEEEvEENS_5decayIDTclsr19__to_address_helperIT_EE6__callclsr3stdE7declvalIRKSB_EEEEE4typeESD_, symObjAddr: 0x43ADC, symBinAddr: 0x100045C64, symSize: 0x24 }
  - { offsetInCU: 0x53068, offset: 0x53068, size: 0x8, addend: 0x0, symName: __ZNSt3__14prevB7v160006INS_16reverse_iteratorIPNS_5tupleIJ8InlineTR11DataEntryEQ5EqlotEEEEEEENS_9enable_ifIXsr25__is_cpp17_input_iteratorIT_EE5valueESA_E4typeESA_NS_15iterator_traitsISA_E15difference_typeE, symObjAddr: 0x43BD8, symBinAddr: 0x100045D60, symSize: 0x60 }
  - { offsetInCU: 0x530AB, offset: 0x530AB, size: 0x8, addend: 0x0, symName: __ZNSt3__19__advanceB7v160006INS_16reverse_iteratorIPNS_5tupleIJ8InlineTR11DataEntryEQ5EqlotEEEEEEEvRT_NS_15iterator_traitsIS9_E15difference_typeENS_26random_access_iterator_tagE, symObjAddr: 0x43C88, symBinAddr: 0x100045E10, symSize: 0x2C }
  - { offsetInCU: 0x530F5, offset: 0x530F5, size: 0x8, addend: 0x0, symName: __ZNSt3__119__debug_db_insert_cB7v160006INS_13unordered_mapINS_12basic_stringIcNS_11char_traitsIcEENS_9allocatorIcEEEE3WATNS_4hashIS7_EENS_8equal_toIS7_EENS5_INS_4pairIKS7_S8_EEEEEEEEvPT_, symObjAddr: 0x43FCC, symBinAddr: 0x100046154, symSize: 0x10 }
  - { offsetInCU: 0x53126, offset: 0x53126, size: 0x8, addend: 0x0, symName: __ZNSt3__118__debug_db_erase_cB7v160006INS_12__hash_tableINS_17__hash_value_typeINS_12basic_stringIcNS_11char_traitsIcEENS_9allocatorIcEEEE3WATEENS_22__unordered_map_hasherIS8_SA_NS_4hashIS8_EENS_8equal_toIS8_EELb1EEENS_21__unordered_map_equalIS8_SA_SF_SD_Lb1EEENS6_ISA_EEEEEEvPT_, symObjAddr: 0x44704, symBinAddr: 0x10004688C, symSize: 0x10 }
  - { offsetInCU: 0x5318A, offset: 0x5318A, size: 0x8, addend: 0x0, symName: __ZNSt3__110destroy_atB7v160006INS_4pairIKNS_12basic_stringIcNS_11char_traitsIcEENS_9allocatorIcEEEE3WATEELi0EEEvPT_, symObjAddr: 0x44858, symBinAddr: 0x1000469E0, symSize: 0x24 }
  - { offsetInCU: 0x531C1, offset: 0x531C1, size: 0x8, addend: 0x0, symName: __ZNSt3__112__destroy_atB7v160006INS_4pairIKNS_12basic_stringIcNS_11char_traitsIcEENS_9allocatorIcEEEE3WATEELi0EEEvPT_, symObjAddr: 0x4487C, symBinAddr: 0x100046A04, symSize: 0x24 }
  - { offsetInCU: 0x531F8, offset: 0x531F8, size: 0x8, addend: 0x0, symName: __ZNSt3__17launderB7v160006INS_4pairIKNS_12basic_stringIcNS_11char_traitsIcEENS_9allocatorIcEEEE3WATEEEEPT_SC_, symObjAddr: 0x44928, symBinAddr: 0x100046AB0, symSize: 0x24 }
  - { offsetInCU: 0x53230, offset: 0x53230, size: 0x8, addend: 0x0, symName: __ZNSt3__19__launderB7v160006INS_4pairIKNS_12basic_stringIcNS_11char_traitsIcEENS_9allocatorIcEEEE3WATEEEEPT_SC_, symObjAddr: 0x4494C, symBinAddr: 0x100046AD4, symSize: 0x14 }
  - { offsetInCU: 0x53266, offset: 0x53266, size: 0x8, addend: 0x0, symName: __ZNSt3__1neB7v160006ERKNS_19__hash_map_iteratorINS_15__hash_iteratorIPNS_11__hash_nodeINS_17__hash_value_typeINS_12basic_stringIcNS_11char_traitsIcEENS_9allocatorIcEEEE3WATEEPvEEEEEESI_, symObjAddr: 0x44DD8, symBinAddr: 0x100046F60, symSize: 0x30 }
  - { offsetInCU: 0x532A3, offset: 0x532A3, size: 0x8, addend: 0x0, symName: __ZNSt3__119__debug_db_insert_cB7v160006INS_6vectorI3WATNS_9allocatorIS2_EEEEEEvPT_, symObjAddr: 0x4519C, symBinAddr: 0x100047324, symSize: 0x10 }
  - { offsetInCU: 0x532D4, offset: 0x532D4, size: 0x8, addend: 0x0, symName: __ZNSt3__17launderB7v160006IKNS_4pairIKNS_12basic_stringIcNS_11char_traitsIcEENS_9allocatorIcEEEE3WATEEEEPT_SD_, symObjAddr: 0x4575C, symBinAddr: 0x1000478E4, symSize: 0x24 }
  - { offsetInCU: 0x5330C, offset: 0x5330C, size: 0x8, addend: 0x0, symName: __ZNSt3__19__launderB7v160006IKNS_4pairIKNS_12basic_stringIcNS_11char_traitsIcEENS_9allocatorIcEEEE3WATEEEEPT_SD_, symObjAddr: 0x45780, symBinAddr: 0x100047908, symSize: 0x14 }
  - { offsetInCU: 0x53342, offset: 0x53342, size: 0x8, addend: 0x0, symName: __ZNSt3__1neB7v160006ERKNS_15__hash_iteratorIPNS_11__hash_nodeINS_17__hash_value_typeINS_12basic_stringIcNS_11char_traitsIcEENS_9allocatorIcEEEE3WATEEPvEEEESG_, symObjAddr: 0x457D8, symBinAddr: 0x100047960, symSize: 0x34 }
  - { offsetInCU: 0x53380, offset: 0x53380, size: 0x8, addend: 0x0, symName: __ZNSt3__1eqB7v160006ERKNS_15__hash_iteratorIPNS_11__hash_nodeINS_17__hash_value_typeINS_12basic_stringIcNS_11char_traitsIcEENS_9allocatorIcEEEE3WATEEPvEEEESG_, symObjAddr: 0x4580C, symBinAddr: 0x100047994, symSize: 0x30 }
  - { offsetInCU: 0x53467, offset: 0x53467, size: 0x8, addend: 0x0, symName: __ZNSt3__112construct_atB7v160006INS_4pairIKNS_12basic_stringIcNS_11char_traitsIcEENS_9allocatorIcEEEE3WATEEJRKNS_21piecewise_construct_tENS_5tupleIJRS8_EEENSE_IJEEEEPSA_EEPT_SK_DpOT0_, symObjAddr: 0x462F8, symBinAddr: 0x100048480, symSize: 0x50 }
  - { offsetInCU: 0x534FF, offset: 0x534FF, size: 0x8, addend: 0x0, symName: __ZNSt3__125__debug_db_invalidate_allB7v160006INS_12__hash_tableINS_17__hash_value_typeINS_12basic_stringIcNS_11char_traitsIcEENS_9allocatorIcEEEE3WATEENS_22__unordered_map_hasherIS8_SA_NS_4hashIS8_EENS_8equal_toIS8_EELb1EEENS_21__unordered_map_equalIS8_SA_SF_SD_Lb1EEENS6_ISA_EEEEEEvPT_, symObjAddr: 0x469F0, symBinAddr: 0x100048B78, symSize: 0x10 }
  - { offsetInCU: 0x53530, offset: 0x53530, size: 0x8, addend: 0x0, symName: __ZNSt3__112construct_atB7v160006I3WATJRKS1_EPS1_EEPT_S6_DpOT0_, symObjAddr: 0x46F7C, symBinAddr: 0x100049104, symSize: 0x3C }
  - { offsetInCU: 0x535A2, offset: 0x535A2, size: 0x8, addend: 0x0, symName: __ZNSt3__1neB7v160006ERKNS_25__hash_map_const_iteratorINS_21__hash_const_iteratorIPNS_11__hash_nodeINS_17__hash_value_typeINS_12basic_stringIcNS_11char_traitsIcEENS_9allocatorIcEEEE3WATEEPvEEEEEESI_, symObjAddr: 0x47598, symBinAddr: 0x100049720, symSize: 0x30 }
  - { offsetInCU: 0x535DF, offset: 0x535DF, size: 0x8, addend: 0x0, symName: __ZNSt3__119__debug_db_insert_cB7v160006INS_6vectorINS_5tupleIJ3WAT8InlineTR11DataEntryEQ5EqlotEEENS_9allocatorIS7_EEEEEEvPT_, symObjAddr: 0x47804, symBinAddr: 0x10004998C, symSize: 0x10 }
  - { offsetInCU: 0x53610, offset: 0x53610, size: 0x8, addend: 0x0, symName: __ZNSt3__1neB7v160006ERKNS_21__hash_const_iteratorIPNS_11__hash_nodeINS_17__hash_value_typeINS_12basic_stringIcNS_11char_traitsIcEENS_9allocatorIcEEEE3WATEEPvEEEESG_, symObjAddr: 0x47A38, symBinAddr: 0x100049BC0, symSize: 0x34 }
  - { offsetInCU: 0x5364E, offset: 0x5364E, size: 0x8, addend: 0x0, symName: __ZNSt3__1eqB7v160006ERKNS_21__hash_const_iteratorIPNS_11__hash_nodeINS_17__hash_value_typeINS_12basic_stringIcNS_11char_traitsIcEENS_9allocatorIcEEEE3WATEEPvEEEESG_, symObjAddr: 0x47A6C, symBinAddr: 0x100049BF4, symSize: 0x30 }
  - { offsetInCU: 0x536E4, offset: 0x536E4, size: 0x8, addend: 0x0, symName: __ZNSt3__112construct_atB7v160006INS_5tupleIJ3WAT8InlineTR11DataEntryEQ5EqlotEEEJRKS2_RKS3_RKS4_RKS5_EPS6_EEPT_SH_DpOT0_, symObjAddr: 0x4806C, symBinAddr: 0x10004A1F4, symSize: 0x54 }
  - { offsetInCU: 0x537B3, offset: 0x537B3, size: 0x8, addend: 0x0, symName: __ZNSt3__119__allocate_at_leastB7v160006INS_9allocatorINS_5tupleIJ3WAT8InlineTR11DataEntryEQ5EqlotEEEEEEENS_19__allocation_resultINS_16allocator_traitsIT_E7pointerEEERSB_m, symObjAddr: 0x487CC, symBinAddr: 0x10004A954, symSize: 0x40 }
  - { offsetInCU: 0x537F6, offset: 0x537F6, size: 0x8, addend: 0x0, symName: __ZNSt3__142__uninitialized_allocator_move_if_noexceptB7v160006INS_9allocatorINS_5tupleIJ3WAT8InlineTR11DataEntryEQ5EqlotEEEEENS_16reverse_iteratorIPS7_EESB_SB_EET2_RT_T0_T1_SC_, symObjAddr: 0x48984, symBinAddr: 0x10004AB0C, symSize: 0x12C }
  - { offsetInCU: 0x53897, offset: 0x53897, size: 0x8, addend: 0x0, symName: __ZNSt3__14swapB7v160006IPNS_5tupleIJ3WAT8InlineTR11DataEntryEQ5EqlotEEEEENS_9enable_ifIXaasr21is_move_constructibleIT_EE5valuesr18is_move_assignableIS9_EE5valueEvE4typeERS9_SC_, symObjAddr: 0x48AFC, symBinAddr: 0x10004AC84, symSize: 0x3C }
  - { offsetInCU: 0x538E7, offset: 0x538E7, size: 0x8, addend: 0x0, symName: __ZNSt3__125__debug_db_invalidate_allB7v160006INS_6vectorINS_5tupleIJ3WAT8InlineTR11DataEntryEQ5EqlotEEENS_9allocatorIS7_EEEEEEvPT_, symObjAddr: 0x48C00, symBinAddr: 0x10004AD88, symSize: 0x10 }
  - { offsetInCU: 0x53918, offset: 0x53918, size: 0x8, addend: 0x0, symName: __ZNSt3__122__make_exception_guardB7v160006INS_29_AllocatorDestroyRangeReverseINS_9allocatorINS_5tupleIJ3WAT8InlineTR11DataEntryEQ5EqlotEEEEENS_16reverse_iteratorIPS8_EEEEEENS_28__exception_guard_exceptionsIT_EESF_, symObjAddr: 0x48C10, symBinAddr: 0x10004AD98, symSize: 0x4C }
  - { offsetInCU: 0x5394E, offset: 0x5394E, size: 0x8, addend: 0x0, symName: __ZNSt3__1neB7v160006IPNS_5tupleIJ3WAT8InlineTR11DataEntryEQ5EqlotEEES7_EEbRKNS_16reverse_iteratorIT_EERKNS8_IT0_EE, symObjAddr: 0x48CA0, symBinAddr: 0x10004AE28, symSize: 0x48 }
  - { offsetInCU: 0x5399A, offset: 0x5399A, size: 0x8, addend: 0x0, symName: __ZNSt3__112__to_addressB7v160006INS_16reverse_iteratorIPNS_5tupleIJ3WAT8InlineTR11DataEntryEQ5EqlotEEEEEvEENS_5decayIDTclsr19__to_address_helperIT_EE6__callclsr3stdE7declvalIRKSB_EEEEE4typeESD_, symObjAddr: 0x48D18, symBinAddr: 0x10004AEA0, symSize: 0x24 }
  - { offsetInCU: 0x539D0, offset: 0x539D0, size: 0x8, addend: 0x0, symName: __ZNSt3__112construct_atB7v160006INS_5tupleIJ3WAT8InlineTR11DataEntryEQ5EqlotEEEJS6_EPS6_EEPT_S9_DpOT0_, symObjAddr: 0x48E68, symBinAddr: 0x10004AFF0, symSize: 0x3C }
  - { offsetInCU: 0x53A6C, offset: 0x53A6C, size: 0x8, addend: 0x0, symName: __ZNSt3__14prevB7v160006IPNS_5tupleIJ3WAT8InlineTR11DataEntryEQ5EqlotEEEEENS_9enable_ifIXsr25__is_cpp17_input_iteratorIT_EE5valueES9_E4typeES9_NS_15iterator_traitsIS9_E15difference_typeE, symObjAddr: 0x490E4, symBinAddr: 0x10004B26C, symSize: 0x50 }
  - { offsetInCU: 0x53AAF, offset: 0x53AAF, size: 0x8, addend: 0x0, symName: __ZNSt3__19__advanceB7v160006IPNS_5tupleIJ3WAT8InlineTR11DataEntryEQ5EqlotEEEEEvRT_NS_15iterator_traitsIS8_E15difference_typeENS_26random_access_iterator_tagE, symObjAddr: 0x49184, symBinAddr: 0x10004B30C, symSize: 0x30 }
  - { offsetInCU: 0x53AFA, offset: 0x53AFA, size: 0x8, addend: 0x0, symName: __ZNSt3__119__allocator_destroyB7v160006INS_9allocatorINS_5tupleIJ3WAT8InlineTR11DataEntryEQ5EqlotEEEEENS_16reverse_iteratorINS9_IPS7_EEEESC_EEvRT_T0_T1_, symObjAddr: 0x492B8, symBinAddr: 0x10004B440, symSize: 0x70 }
  - { offsetInCU: 0x53B5F, offset: 0x53B5F, size: 0x8, addend: 0x0, symName: __ZNSt3__1neB7v160006INS_16reverse_iteratorIPNS_5tupleIJ3WAT8InlineTR11DataEntryEQ5EqlotEEEEES9_EEbRKNS1_IT_EERKNS1_IT0_EE, symObjAddr: 0x49364, symBinAddr: 0x10004B4EC, symSize: 0x60 }
  - { offsetInCU: 0x53BAB, offset: 0x53BAB, size: 0x8, addend: 0x0, symName: __ZNSt3__112__to_addressB7v160006INS_16reverse_iteratorINS1_IPNS_5tupleIJ3WAT8InlineTR11DataEntryEQ5EqlotEEEEEEEvEENS_5decayIDTclsr19__to_address_helperIT_EE6__callclsr3stdE7declvalIRKSC_EEEEE4typeESE_, symObjAddr: 0x493C4, symBinAddr: 0x10004B54C, symSize: 0x24 }
  - { offsetInCU: 0x53C0B, offset: 0x53C0B, size: 0x8, addend: 0x0, symName: __ZNSt3__14prevB7v160006INS_16reverse_iteratorIPNS_5tupleIJ3WAT8InlineTR11DataEntryEQ5EqlotEEEEEEENS_9enable_ifIXsr25__is_cpp17_input_iteratorIT_EE5valueESB_E4typeESB_NS_15iterator_traitsISB_E15difference_typeE, symObjAddr: 0x494C0, symBinAddr: 0x10004B648, symSize: 0x60 }
  - { offsetInCU: 0x53C4E, offset: 0x53C4E, size: 0x8, addend: 0x0, symName: __ZNSt3__19__advanceB7v160006INS_16reverse_iteratorIPNS_5tupleIJ3WAT8InlineTR11DataEntryEQ5EqlotEEEEEEEvRT_NS_15iterator_traitsISA_E15difference_typeENS_26random_access_iterator_tagE, symObjAddr: 0x49570, symBinAddr: 0x10004B6F8, symSize: 0x2C }
  - { offsetInCU: 0x53C98, offset: 0x53C98, size: 0x8, addend: 0x0, symName: __ZNSt3__1eqB7v160006ERKNS_25__hash_map_const_iteratorINS_21__hash_const_iteratorIPNS_11__hash_nodeINS_17__hash_value_typeINS_12basic_stringIcNS_11char_traitsIcEENS_9allocatorIcEEEE8InlineTREEPvEEEEEESI_, symObjAddr: 0x4982C, symBinAddr: 0x10004B9B4, symSize: 0x30 }
  - { offsetInCU: 0x55256, offset: 0x55256, size: 0x8, addend: 0x0, symName: __ZSt28__throw_bad_array_new_lengthB7v160006v, symObjAddr: 0x8D44, symBinAddr: 0x10000AECC, symSize: 0x34 }
  - { offsetInCU: 0x55A92, offset: 0x55A92, size: 0x8, addend: 0x0, symName: __ZL8UEDA_MaP, symObjAddr: 0x2D8938, symBinAddr: 0x100078028, symSize: 0x0 }
  - { offsetInCU: 0x56003, offset: 0x56003, size: 0x8, addend: 0x0, symName: __ZL21inline_TK_DefaultTile, symObjAddr: 0x2D8960, symBinAddr: 0x100078050, symSize: 0x0 }
  - { offsetInCU: 0x561F5, offset: 0x561F5, size: 0x8, addend: 0x0, symName: __ZL19cmpwaferDefaultTile, symObjAddr: 0x2D8978, symBinAddr: 0x100078068, symSize: 0x0 }
  - { offsetInCU: 0x5620E, offset: 0x5620E, size: 0x8, addend: 0x0, symName: __ZL19runsheetDefaultTile, symObjAddr: 0x2D8990, symBinAddr: 0x100078080, symSize: 0x0 }
  - { offsetInCU: 0x56227, offset: 0x56227, size: 0x8, addend: 0x0, symName: __ZL17defectDefaultTile, symObjAddr: 0x2D89A8, symBinAddr: 0x100078098, symSize: 0x0 }
  - { offsetInCU: 0x56240, offset: 0x56240, size: 0x8, addend: 0x0, symName: __ZL16eqlotDefaultTile, symObjAddr: 0x2D89C0, symBinAddr: 0x1000780B0, symSize: 0x0 }
  - { offsetInCU: 0x56259, offset: 0x56259, size: 0x8, addend: 0x0, symName: __ZL15watDefaultTitle, symObjAddr: 0x2D89D8, symBinAddr: 0x1000780C8, symSize: 0x0 }
  - { offsetInCU: 0x56272, offset: 0x56272, size: 0x8, addend: 0x0, symName: __ZL13watDefaultMap, symObjAddr: 0x2D89F0, symBinAddr: 0x1000780E0, symSize: 0x0 }
  - { offsetInCU: 0x567E3, offset: 0x567E3, size: 0x8, addend: 0x0, symName: __ZL8existMap, symObjAddr: 0x2D8A18, symBinAddr: 0x100078108, symSize: 0x0 }
  - { offsetInCU: 0x567FC, offset: 0x567FC, size: 0x8, addend: 0x0, symName: __ZL12pTitlevecwat, symObjAddr: 0x2D8A40, symBinAddr: 0x100078130, symSize: 0x0 }
  - { offsetInCU: 0x56815, offset: 0x56815, size: 0x8, addend: 0x0, symName: __ZL15pTitlevecinline, symObjAddr: 0x2D8A58, symBinAddr: 0x100078148, symSize: 0x0 }
  - { offsetInCU: 0x5682E, offset: 0x5682E, size: 0x8, addend: 0x0, symName: __ZL15pTitlevecdefect, symObjAddr: 0x2D8A70, symBinAddr: 0x100078160, symSize: 0x0 }
  - { offsetInCU: 0x5684C, offset: 0x5684C, size: 0x8, addend: 0x0, symName: __ZN5EigenL4lastE, symObjAddr: 0x2D8A88, symBinAddr: 0x100078178, symSize: 0x0 }
  - { offsetInCU: 0x56D1E, offset: 0x56D1E, size: 0x8, addend: 0x0, symName: __ZN5EigenL6lastp1E, symObjAddr: 0x2D8A89, symBinAddr: 0x100078179, symSize: 0x0 }
  - { offsetInCU: 0x56D37, offset: 0x56D37, size: 0x8, addend: 0x0, symName: __ZN5EigenL3allE, symObjAddr: 0x2D8A8C, symBinAddr: 0x10007817C, symSize: 0x0 }
  - { offsetInCU: 0x56D51, offset: 0x56D51, size: 0x8, addend: 0x0, symName: __ZN5EigenL3fixILi1EEE, symObjAddr: 0x2D8A8B, symBinAddr: 0x10007817B, symSize: 0x0 }
  - { offsetInCU: 0x56E56, offset: 0x56E56, size: 0x8, addend: 0x0, symName: __ZL10keytypeMap, symObjAddr: 0x2D8A90, symBinAddr: 0x100078180, symSize: 0x0 }
  - { offsetInCU: 0x56E70, offset: 0x56E70, size: 0x8, addend: 0x0, symName: _excludeValues, symObjAddr: 0x2D8AB8, symBinAddr: 0x100078298, symSize: 0x0 }
  - { offsetInCU: 0x57AD4, offset: 0x57AD4, size: 0x8, addend: 0x0, symName: __ZNSt3__16vectorIiNS_9allocatorIiEEE26__swap_out_circular_bufferERNS_14__split_bufferIiRS2_EE, symObjAddr: 0xA5D4, symBinAddr: 0x10000C75C, symSize: 0x118 }
  - { offsetInCU: 0x57D18, offset: 0x57D18, size: 0x8, addend: 0x0, symName: __ZNSt3__16vectorINS_4pairINS_12basic_stringIcNS_11char_traitsIcEENS_9allocatorIcEEEEiEENS5_IS8_EEE26__swap_out_circular_bufferERNS_14__split_bufferIS8_RS9_EE, symObjAddr: 0xC548, symBinAddr: 0x10000E6D0, symSize: 0x118 }
  - { offsetInCU: 0x583EE, offset: 0x583EE, size: 0x8, addend: 0x0, symName: __ZNSt3__16vectorI6DefectNS_9allocatorIS1_EEE26__swap_out_circular_bufferERNS_14__split_bufferIS1_RS3_EE, symObjAddr: 0x12E04, symBinAddr: 0x100014F8C, symSize: 0x118 }
  - { offsetInCU: 0x58A99, offset: 0x58A99, size: 0x8, addend: 0x0, symName: __ZNSt3__16vectorI11DataEntryEQNS_9allocatorIS1_EEE26__swap_out_circular_bufferERNS_14__split_bufferIS1_RS3_EE, symObjAddr: 0x14850, symBinAddr: 0x1000169D8, symSize: 0x118 }
  - { offsetInCU: 0x591D5, offset: 0x591D5, size: 0x8, addend: 0x0, symName: __ZNSt3__16vectorI5EqlotNS_9allocatorIS1_EEE26__swap_out_circular_bufferERNS_14__split_bufferIS1_RS3_EE, symObjAddr: 0x16708, symBinAddr: 0x100018890, symSize: 0x118 }
  - { offsetInCU: 0x59788, offset: 0x59788, size: 0x8, addend: 0x0, symName: __ZNSt3__16vectorI8InlineTRNS_9allocatorIS1_EEE26__swap_out_circular_bufferERNS_14__split_bufferIS1_RS3_EE, symObjAddr: 0x18154, symBinAddr: 0x10001A2DC, symSize: 0x118 }
  - { offsetInCU: 0x59F8D, offset: 0x59F8D, size: 0x8, addend: 0x0, symName: __ZNSt3__16vectorI3WATNS_9allocatorIS1_EEE26__swap_out_circular_bufferERNS_14__split_bufferIS1_RS3_EE, symObjAddr: 0x19A84, symBinAddr: 0x10001BC0C, symSize: 0x118 }
  - { offsetInCU: 0x5ADA3, offset: 0x5ADA3, size: 0x8, addend: 0x0, symName: __ZNSt3__16vectorIdNS_9allocatorIdEEE26__swap_out_circular_bufferERNS_14__split_bufferIdRS2_EE, symObjAddr: 0x28C7C, symBinAddr: 0x10002AE04, symSize: 0x118 }
  - { offsetInCU: 0x5AF0D, offset: 0x5AF0D, size: 0x8, addend: 0x0, symName: __ZNSt3__16vectorINS_12basic_stringIcNS_11char_traitsIcEENS_9allocatorIcEEEENS4_IS6_EEE26__swap_out_circular_bufferERNS_14__split_bufferIS6_RS7_EE, symObjAddr: 0x2DED0, symBinAddr: 0x100030058, symSize: 0x118 }
  - { offsetInCU: 0x5BD67, offset: 0x5BD67, size: 0x8, addend: 0x0, symName: __ZNSt3__16vectorINS_5tupleIJ6Defect11DataEntryEQ5EqlotEEENS_9allocatorIS5_EEE26__swap_out_circular_bufferERNS_14__split_bufferIS5_RS7_EE, symObjAddr: 0x3D4C8, symBinAddr: 0x10003F650, symSize: 0x118 }
  - { offsetInCU: 0x5C2A7, offset: 0x5C2A7, size: 0x8, addend: 0x0, symName: __ZNSt3__16vectorINS_5tupleIJ8InlineTR11DataEntryEQ5EqlotEEENS_9allocatorIS5_EEE26__swap_out_circular_bufferERNS_14__split_bufferIS5_RS7_EE, symObjAddr: 0x42C30, symBinAddr: 0x100044DB8, symSize: 0x118 }
  - { offsetInCU: 0x5C7D6, offset: 0x5C7D6, size: 0x8, addend: 0x0, symName: __ZNSt3__16vectorINS_5tupleIJ3WAT8InlineTR11DataEntryEQ5EqlotEEENS_9allocatorIS6_EEE26__swap_out_circular_bufferERNS_14__split_bufferIS6_RS8_EE, symObjAddr: 0x48468, symBinAddr: 0x10004A5F0, symSize: 0x118 }
  - { offsetInCU: 0x5EA7A, offset: 0x5EA7A, size: 0x8, addend: 0x0, symName: __ZNSt3__14pairIKNS_12basic_stringIcNS_11char_traitsIcEENS_9allocatorIcEEEEbEC1B7v160006IRA4_KcbLPv0EEEOT_OT0_, symObjAddr: 0x0, symBinAddr: 0x100002188, symSize: 0x3C }
  - { offsetInCU: 0x5EAF1, offset: 0x5EAF1, size: 0x8, addend: 0x0, symName: __ZNSt3__14pairIKNS_12basic_stringIcNS_11char_traitsIcEENS_9allocatorIcEEEEbEC1B7v160006IRA8_KcbLPv0EEEOT_OT0_, symObjAddr: 0x3C, symBinAddr: 0x1000021C4, symSize: 0x3C }
  - { offsetInCU: 0x5EB4F, offset: 0x5EB4F, size: 0x8, addend: 0x0, symName: __ZNSt3__14pairIKNS_12basic_stringIcNS_11char_traitsIcEENS_9allocatorIcEEEEbED1Ev, symObjAddr: 0x78, symBinAddr: 0x100002200, symSize: 0x2C }
  - { offsetInCU: 0x5EB7B, offset: 0x5EB7B, size: 0x8, addend: 0x0, symName: __ZNSt3__113unordered_mapINS_12basic_stringIcNS_11char_traitsIcEENS_9allocatorIcEEEEbNS_4hashIS6_EENS_8equal_toIS6_EENS4_INS_4pairIKS6_bEEEEEC1ESt16initializer_listISD_E, symObjAddr: 0xA4, symBinAddr: 0x10000222C, symSize: 0x3C }
  - { offsetInCU: 0x5EBB6, offset: 0x5EBB6, size: 0x8, addend: 0x0, symName: __ZNSt3__113unordered_mapINS_12basic_stringIcNS_11char_traitsIcEENS_9allocatorIcEEEEbNS_4hashIS6_EENS_8equal_toIS6_EENS4_INS_4pairIKS6_bEEEEED1B7v160006Ev, symObjAddr: 0xE0, symBinAddr: 0x100002268, symSize: 0x2C }
  - { offsetInCU: 0x5EBF9, offset: 0x5EBF9, size: 0x8, addend: 0x0, symName: __ZNSt3__14pairIKNS_12basic_stringIcNS_11char_traitsIcEENS_9allocatorIcEEEES6_EC1B7v160006IRA4_KcRA3_SA_LPv0EEEOT_OT0_, symObjAddr: 0x10C, symBinAddr: 0x100002294, symSize: 0x3C }
  - { offsetInCU: 0x5EC70, offset: 0x5EC70, size: 0x8, addend: 0x0, symName: __ZNSt3__14pairIKNS_12basic_stringIcNS_11char_traitsIcEENS_9allocatorIcEEEES6_EC1B7v160006IRA7_KcRA8_SA_LPv0EEEOT_OT0_, symObjAddr: 0x148, symBinAddr: 0x1000022D0, symSize: 0x3C }
  - { offsetInCU: 0x5ECE7, offset: 0x5ECE7, size: 0x8, addend: 0x0, symName: __ZNSt3__14pairIKNS_12basic_stringIcNS_11char_traitsIcEENS_9allocatorIcEEEES6_EC1B7v160006IRA9_KcRA3_SA_LPv0EEEOT_OT0_, symObjAddr: 0x184, symBinAddr: 0x10000230C, symSize: 0x3C }
  - { offsetInCU: 0x5ED45, offset: 0x5ED45, size: 0x8, addend: 0x0, symName: __ZNSt3__14pairIKNS_12basic_stringIcNS_11char_traitsIcEENS_9allocatorIcEEEES6_EC1B7v160006IRA7_KcRA4_SA_LPv0EEEOT_OT0_, symObjAddr: 0x1C0, symBinAddr: 0x100002348, symSize: 0x3C }
  - { offsetInCU: 0x5EDBC, offset: 0x5EDBC, size: 0x8, addend: 0x0, symName: __ZNSt3__14pairIKNS_12basic_stringIcNS_11char_traitsIcEENS_9allocatorIcEEEES6_EC1B7v160006IRA7_KcRA13_SA_LPv0EEEOT_OT0_, symObjAddr: 0x1FC, symBinAddr: 0x100002384, symSize: 0x3C }
  - { offsetInCU: 0x5EE33, offset: 0x5EE33, size: 0x8, addend: 0x0, symName: __ZNSt3__14pairIKNS_12basic_stringIcNS_11char_traitsIcEENS_9allocatorIcEEEES6_EC1B7v160006IRA7_KcRA10_SA_LPv0EEEOT_OT0_, symObjAddr: 0x238, symBinAddr: 0x1000023C0, symSize: 0x3C }
  - { offsetInCU: 0x5EE91, offset: 0x5EE91, size: 0x8, addend: 0x0, symName: __ZNSt3__14pairIKNS_12basic_stringIcNS_11char_traitsIcEENS_9allocatorIcEEEES6_ED1Ev, symObjAddr: 0x274, symBinAddr: 0x1000023FC, symSize: 0x2C }
  - { offsetInCU: 0x5EEBD, offset: 0x5EEBD, size: 0x8, addend: 0x0, symName: __ZNSt3__113unordered_mapINS_12basic_stringIcNS_11char_traitsIcEENS_9allocatorIcEEEES6_NS_4hashIS6_EENS_8equal_toIS6_EENS4_INS_4pairIKS6_S6_EEEEEC1ESt16initializer_listISD_E, symObjAddr: 0x2A0, symBinAddr: 0x100002428, symSize: 0x3C }
  - { offsetInCU: 0x5EEF8, offset: 0x5EEF8, size: 0x8, addend: 0x0, symName: __ZNSt3__113unordered_mapINS_12basic_stringIcNS_11char_traitsIcEENS_9allocatorIcEEEES6_NS_4hashIS6_EENS_8equal_toIS6_EENS4_INS_4pairIKS6_S6_EEEEED1B7v160006Ev, symObjAddr: 0x2DC, symBinAddr: 0x100002464, symSize: 0x2C }
  - { offsetInCU: 0x5EF28, offset: 0x5EF28, size: 0x8, addend: 0x0, symName: __ZNSt3__112basic_stringIcNS_11char_traitsIcEENS_9allocatorIcEEEC1B7v160006IDnEEPKc, symObjAddr: 0x308, symBinAddr: 0x100002490, symSize: 0x34 }
  - { offsetInCU: 0x5EF66, offset: 0x5EF66, size: 0x8, addend: 0x0, symName: __ZNSt3__16vectorINS_12basic_stringIcNS_11char_traitsIcEENS_9allocatorIcEEEENS4_IS6_EEEC1B7v160006ESt16initializer_listIS6_E, symObjAddr: 0x33C, symBinAddr: 0x1000024C4, symSize: 0x3C }
  - { offsetInCU: 0x5EFA1, offset: 0x5EFA1, size: 0x8, addend: 0x0, symName: __ZNSt3__16vectorINS_12basic_stringIcNS_11char_traitsIcEENS_9allocatorIcEEEENS4_IS6_EEED1B7v160006Ev, symObjAddr: 0x378, symBinAddr: 0x100002500, symSize: 0x2C }
  - { offsetInCU: 0x5EFCB, offset: 0x5EFCB, size: 0x8, addend: 0x0, symName: __ZNSt3__14pairIKNS_12basic_stringIcNS_11char_traitsIcEENS_9allocatorIcEEEENS_6vectorIS6_NS4_IS6_EEEEEC1B7v160006IRA4_KcRSA_LPv0EEEOT_OT0_, symObjAddr: 0x3A4, symBinAddr: 0x10000252C, symSize: 0x3C }
  - { offsetInCU: 0x5F029, offset: 0x5F029, size: 0x8, addend: 0x0, symName: __ZNSt3__14pairIKNS_12basic_stringIcNS_11char_traitsIcEENS_9allocatorIcEEEENS_6vectorIS6_NS4_IS6_EEEEEC1B7v160006IRA7_KcRSA_LPv0EEEOT_OT0_, symObjAddr: 0x3E0, symBinAddr: 0x100002568, symSize: 0x3C }
  - { offsetInCU: 0x5F087, offset: 0x5F087, size: 0x8, addend: 0x0, symName: __ZNSt3__14pairIKNS_12basic_stringIcNS_11char_traitsIcEENS_9allocatorIcEEEENS_6vectorIS6_NS4_IS6_EEEEEC1B7v160006IRA9_KcRSA_LPv0EEEOT_OT0_, symObjAddr: 0x41C, symBinAddr: 0x1000025A4, symSize: 0x3C }
  - { offsetInCU: 0x5F0E5, offset: 0x5F0E5, size: 0x8, addend: 0x0, symName: __ZNSt3__14pairIKNS_12basic_stringIcNS_11char_traitsIcEENS_9allocatorIcEEEENS_6vectorIS6_NS4_IS6_EEEEED1Ev, symObjAddr: 0x458, symBinAddr: 0x1000025E0, symSize: 0x2C }
  - { offsetInCU: 0x5F111, offset: 0x5F111, size: 0x8, addend: 0x0, symName: __ZNSt3__113unordered_mapINS_12basic_stringIcNS_11char_traitsIcEENS_9allocatorIcEEEENS_6vectorIS6_NS4_IS6_EEEENS_4hashIS6_EENS_8equal_toIS6_EENS4_INS_4pairIKS6_S9_EEEEEC1ESt16initializer_listISG_E, symObjAddr: 0x484, symBinAddr: 0x10000260C, symSize: 0x3C }
  - { offsetInCU: 0x5F14C, offset: 0x5F14C, size: 0x8, addend: 0x0, symName: __ZNSt3__113unordered_mapINS_12basic_stringIcNS_11char_traitsIcEENS_9allocatorIcEEEENS_6vectorIS6_NS4_IS6_EEEENS_4hashIS6_EENS_8equal_toIS6_EENS4_INS_4pairIKS6_S9_EEEEED1B7v160006Ev, symObjAddr: 0x4C0, symBinAddr: 0x100002648, symSize: 0x2C }
  - { offsetInCU: 0x5F176, offset: 0x5F176, size: 0x8, addend: 0x0, symName: __ZNSt3__14pairIKNS_12basic_stringIcNS_11char_traitsIcEENS_9allocatorIcEEEEbEC1B7v160006IRA7_KcbLPv0EEEOT_OT0_, symObjAddr: 0x4EC, symBinAddr: 0x100002674, symSize: 0x3C }
  - { offsetInCU: 0x5F1D3, offset: 0x5F1D3, size: 0x8, addend: 0x0, symName: __Z11setCaseTypeRKNSt3__112basic_stringIcNS_11char_traitsIcEENS_9allocatorIcEEEEb, symObjAddr: 0x528, symBinAddr: 0x1000026B0, symSize: 0xC8 }
  - { offsetInCU: 0x5F218, offset: 0x5F218, size: 0x8, addend: 0x0, symName: __ZNSt3__113unordered_mapINS_12basic_stringIcNS_11char_traitsIcEENS_9allocatorIcEEEEbNS_4hashIS6_EENS_8equal_toIS6_EENS4_INS_4pairIKS6_bEEEEE4findB7v160006ERSC_, symObjAddr: 0x5F0, symBinAddr: 0x100002778, symSize: 0x40 }
  - { offsetInCU: 0x5F24D, offset: 0x5F24D, size: 0x8, addend: 0x0, symName: __ZNSt3__113unordered_mapINS_12basic_stringIcNS_11char_traitsIcEENS_9allocatorIcEEEEbNS_4hashIS6_EENS_8equal_toIS6_EENS4_INS_4pairIKS6_bEEEEE3endB7v160006Ev, symObjAddr: 0x660, symBinAddr: 0x1000027E8, symSize: 0x38 }
  - { offsetInCU: 0x5F273, offset: 0x5F273, size: 0x8, addend: 0x0, symName: __ZNKSt3__119__hash_map_iteratorINS_15__hash_iteratorIPNS_11__hash_nodeINS_17__hash_value_typeINS_12basic_stringIcNS_11char_traitsIcEENS_9allocatorIcEEEEbEEPvEEEEEptB7v160006Ev, symObjAddr: 0x698, symBinAddr: 0x100002820, symSize: 0x2C }
  - { offsetInCU: 0x5F299, offset: 0x5F299, size: 0x8, addend: 0x0, symName: __ZNSt3__113basic_ostreamIcNS_11char_traitsIcEEElsB7v160006EPFRS3_S4_E, symObjAddr: 0x758, symBinAddr: 0x1000028E0, symSize: 0x2C }
  - { offsetInCU: 0x5F2CC, offset: 0x5F2CC, size: 0x8, addend: 0x0, symName: __Z12handleStringRNSt3__112basic_stringIcNS_11char_traitsIcEENS_9allocatorIcEEEE, symObjAddr: 0x7DC, symBinAddr: 0x100002964, symSize: 0x54 }
  - { offsetInCU: 0x5F2F5, offset: 0x5F2F5, size: 0x8, addend: 0x0, symName: __ZNKSt3__112basic_stringIcNS_11char_traitsIcEENS_9allocatorIcEEE5emptyB7v160006Ev, symObjAddr: 0x830, symBinAddr: 0x1000029B8, symSize: 0x30 }
  - { offsetInCU: 0x5F31B, offset: 0x5F31B, size: 0x8, addend: 0x0, symName: __ZNSt3__112basic_stringIcNS_11char_traitsIcEENS_9allocatorIcEEE4backB7v160006Ev, symObjAddr: 0x860, symBinAddr: 0x1000029E8, symSize: 0x48 }
  - { offsetInCU: 0x5F341, offset: 0x5F341, size: 0x8, addend: 0x0, symName: __ZNSt3__112basic_stringIcNS_11char_traitsIcEENS_9allocatorIcEEE8pop_backB7v160006Ev, symObjAddr: 0x8A8, symBinAddr: 0x100002A30, symSize: 0x38 }
  - { offsetInCU: 0x5F368, offset: 0x5F368, size: 0x8, addend: 0x0, symName: __Z24readHeader_Count_ReapeatRNSt3__16vectorIiNS_9allocatorIiEEEERNS_12basic_stringIcNS_11char_traitsIcEENS1_IcEEEERNS_13unordered_mapIS9_iNS_4hashIS9_EENS_8equal_toIS9_EENS1_INS_4pairIKS9_iEEEEEESA_Ri, symObjAddr: 0x8E0, symBinAddr: 0x100002A68, symSize: 0xAC }
  - { offsetInCU: 0x5F483, offset: 0x5F483, size: 0x8, addend: 0x0, symName: __ZNSt3__113unordered_mapINS_12basic_stringIcNS_11char_traitsIcEENS_9allocatorIcEEEEiNS_4hashIS6_EENS_8equal_toIS6_EENS4_INS_4pairIKS6_iEEEEE4findB7v160006ERSC_, symObjAddr: 0x98C, symBinAddr: 0x100002B14, symSize: 0x40 }
  - { offsetInCU: 0x5F4B8, offset: 0x5F4B8, size: 0x8, addend: 0x0, symName: __ZNSt3__113unordered_mapINS_12basic_stringIcNS_11char_traitsIcEENS_9allocatorIcEEEEiNS_4hashIS6_EENS_8equal_toIS6_EENS4_INS_4pairIKS6_iEEEEE3endB7v160006Ev, symObjAddr: 0x9FC, symBinAddr: 0x100002B84, symSize: 0x38 }
  - { offsetInCU: 0x5F4DE, offset: 0x5F4DE, size: 0x8, addend: 0x0, symName: __ZNSt3__16vectorIiNS_9allocatorIiEEE9push_backB7v160006ERKi, symObjAddr: 0xA34, symBinAddr: 0x100002BBC, symSize: 0x6C }
  - { offsetInCU: 0x5F515, offset: 0x5F515, size: 0x8, addend: 0x0, symName: __ZNSt3__113unordered_mapINS_12basic_stringIcNS_11char_traitsIcEENS_9allocatorIcEEEEiNS_4hashIS6_EENS_8equal_toIS6_EENS4_INS_4pairIKS6_iEEEEEixERSC_, symObjAddr: 0xAA0, symBinAddr: 0x100002C28, symSize: 0x80 }
  - { offsetInCU: 0x5F54B, offset: 0x5F54B, size: 0x8, addend: 0x0, symName: __Z17judgeDatafiletypeRNSt3__113unordered_mapINS_12basic_stringIcNS_11char_traitsIcEENS_9allocatorIcEEEEiNS_4hashIS6_EENS_8equal_toIS6_EENS4_INS_4pairIKS6_iEEEEEE, symObjAddr: 0xB20, symBinAddr: 0x100002CA8, symSize: 0x40C }
  - { offsetInCU: 0x5F587, offset: 0x5F587, size: 0x8, addend: 0x0, symName: __ZNSt3__112basic_stringIcNS_11char_traitsIcEENS_9allocatorIcEEEC1B7v160006Ev, symObjAddr: 0xF2C, symBinAddr: 0x1000030B4, symSize: 0x2C }
  - { offsetInCU: 0x5F5B1, offset: 0x5F5B1, size: 0x8, addend: 0x0, symName: __ZNSt3__113unordered_mapINS_12basic_stringIcNS_11char_traitsIcEENS_9allocatorIcEEEEiNS_4hashIS6_EENS_8equal_toIS6_EENS4_INS_4pairIKS6_iEEEEEixEOS6_, symObjAddr: 0xF58, symBinAddr: 0x1000030E0, symSize: 0x80 }
  - { offsetInCU: 0x5F5E8, offset: 0x5F5E8, size: 0x8, addend: 0x0, symName: __ZNSt3__112basic_stringIcNS_11char_traitsIcEENS_9allocatorIcEEEaSB7v160006EPKc, symObjAddr: 0xFD8, symBinAddr: 0x100003160, symSize: 0x2C }
  - { offsetInCU: 0x5F61C, offset: 0x5F61C, size: 0x8, addend: 0x0, symName: __Z15defineColumnMapRNSt3__16vectorINS_4pairINS_12basic_stringIcNS_11char_traitsIcEENS_9allocatorIcEEEEiEENS5_IS8_EEEES7_NS0_IiNS5_IiEEEES7_RNS_13unordered_mapIS7_iNS_4hashIS7_EENS_8equal_toIS7_EENS5_INS1_IKS7_iEEEEEE, symObjAddr: 0x1004, symBinAddr: 0x10000318C, symSize: 0x240 }
  - { offsetInCU: 0x5F706, offset: 0x5F706, size: 0x8, addend: 0x0, symName: __ZNSt3__113unordered_mapINS_12basic_stringIcNS_11char_traitsIcEENS_9allocatorIcEEEENS_6vectorIS6_NS4_IS6_EEEENS_4hashIS6_EENS_8equal_toIS6_EENS4_INS_4pairIKS6_S9_EEEEEixERSF_, symObjAddr: 0x1244, symBinAddr: 0x1000033CC, symSize: 0x80 }
  - { offsetInCU: 0x5F73D, offset: 0x5F73D, size: 0x8, addend: 0x0, symName: __ZNSt3__16vectorINS_12basic_stringIcNS_11char_traitsIcEENS_9allocatorIcEEEENS4_IS6_EEEC1ERKS8_, symObjAddr: 0x12C4, symBinAddr: 0x10000344C, symSize: 0x34 }
  - { offsetInCU: 0x5F778, offset: 0x5F778, size: 0x8, addend: 0x0, symName: __ZNSt3__16vectorINS_12basic_stringIcNS_11char_traitsIcEENS_9allocatorIcEEEENS4_IS6_EEE5beginB7v160006Ev, symObjAddr: 0x12F8, symBinAddr: 0x100003480, symSize: 0x30 }
  - { offsetInCU: 0x5F7A0, offset: 0x5F7A0, size: 0x8, addend: 0x0, symName: __ZNSt3__16vectorINS_12basic_stringIcNS_11char_traitsIcEENS_9allocatorIcEEEENS4_IS6_EEE3endB7v160006Ev, symObjAddr: 0x1328, symBinAddr: 0x1000034B0, symSize: 0x30 }
  - { offsetInCU: 0x5F7C8, offset: 0x5F7C8, size: 0x8, addend: 0x0, symName: __ZNKSt3__111__wrap_iterIPNS_12basic_stringIcNS_11char_traitsIcEENS_9allocatorIcEEEEEdeB7v160006Ev, symObjAddr: 0x138C, symBinAddr: 0x100003514, symSize: 0x18 }
  - { offsetInCU: 0x5F7EE, offset: 0x5F7EE, size: 0x8, addend: 0x0, symName: __ZNKSt3__16vectorIiNS_9allocatorIiEEE4sizeB7v160006Ev, symObjAddr: 0x14EC, symBinAddr: 0x100003674, symSize: 0x28 }
  - { offsetInCU: 0x5F814, offset: 0x5F814, size: 0x8, addend: 0x0, symName: __ZNKSt3__16vectorIiNS_9allocatorIiEEE5emptyB7v160006Ev, symObjAddr: 0x1514, symBinAddr: 0x10000369C, symSize: 0x28 }
  - { offsetInCU: 0x5F83A, offset: 0x5F83A, size: 0x8, addend: 0x0, symName: __ZNSt3__16vectorINS_4pairINS_12basic_stringIcNS_11char_traitsIcEENS_9allocatorIcEEEEiEENS5_IS8_EEE9push_backB7v160006EOS8_, symObjAddr: 0x153C, symBinAddr: 0x1000036C4, symSize: 0x6C }
  - { offsetInCU: 0x5F877, offset: 0x5F877, size: 0x8, addend: 0x0, symName: __ZNSt3__14pairINS_12basic_stringIcNS_11char_traitsIcEENS_9allocatorIcEEEEiEC1B7v160006IRS6_iLPv0EEEOT_OT0_, symObjAddr: 0x15A8, symBinAddr: 0x100003730, symSize: 0x3C }
  - { offsetInCU: 0x5F8D5, offset: 0x5F8D5, size: 0x8, addend: 0x0, symName: __ZNSt3__14pairINS_12basic_stringIcNS_11char_traitsIcEENS_9allocatorIcEEEEiED1Ev, symObjAddr: 0x15E4, symBinAddr: 0x10000376C, symSize: 0x2C }
  - { offsetInCU: 0x5F901, offset: 0x5F901, size: 0x8, addend: 0x0, symName: __ZNSt3__16vectorIiNS_9allocatorIiEEE8pop_backEv, symObjAddr: 0x1610, symBinAddr: 0x100003798, symSize: 0x2C }
  - { offsetInCU: 0x5F929, offset: 0x5F929, size: 0x8, addend: 0x0, symName: __ZNSt3__14pairINS_12basic_stringIcNS_11char_traitsIcEENS_9allocatorIcEEEEiEC1B7v160006IRS6_RiLPv0EEEOT_OT0_, symObjAddr: 0x163C, symBinAddr: 0x1000037C4, symSize: 0x3C }
  - { offsetInCU: 0x5F987, offset: 0x5F987, size: 0x8, addend: 0x0, symName: __ZNSt3__111__wrap_iterIPNS_12basic_stringIcNS_11char_traitsIcEENS_9allocatorIcEEEEEppB7v160006Ev, symObjAddr: 0x1678, symBinAddr: 0x100003800, symSize: 0x20 }
  - { offsetInCU: 0x5F9AC, offset: 0x5F9AC, size: 0x8, addend: 0x0, symName: __Z25handle_sort_remove_uniqueRNSt3__16vectorINS_4pairINS_12basic_stringIcNS_11char_traitsIcEENS_9allocatorIcEEEEiEENS5_IS8_EEEE, symObjAddr: 0x1698, symBinAddr: 0x100003820, symSize: 0xC0 }
  - { offsetInCU: 0x5FA15, offset: 0x5FA15, size: 0x8, addend: 0x0, symName: __ZNSt3__16vectorINS_4pairINS_12basic_stringIcNS_11char_traitsIcEENS_9allocatorIcEEEEiEENS5_IS8_EEE5beginB7v160006Ev, symObjAddr: 0x1798, symBinAddr: 0x100003920, symSize: 0x30 }
  - { offsetInCU: 0x5FA3D, offset: 0x5FA3D, size: 0x8, addend: 0x0, symName: __ZNSt3__16vectorINS_4pairINS_12basic_stringIcNS_11char_traitsIcEENS_9allocatorIcEEEEiEENS5_IS8_EEE3endB7v160006Ev, symObjAddr: 0x17C8, symBinAddr: 0x100003950, symSize: 0x30 }
  - { offsetInCU: 0x5FA65, offset: 0x5FA65, size: 0x8, addend: 0x0, symName: __ZNSt3__16vectorINS_4pairINS_12basic_stringIcNS_11char_traitsIcEENS_9allocatorIcEEEEiEENS5_IS8_EEE5eraseENS_11__wrap_iterIPKS8_EESE_, symObjAddr: 0x183C, symBinAddr: 0x1000039C4, symSize: 0xE0 }
  - { offsetInCU: 0x5FAC6, offset: 0x5FAC6, size: 0x8, addend: 0x0, symName: __ZNSt3__111__wrap_iterIPKNS_4pairINS_12basic_stringIcNS_11char_traitsIcEENS_9allocatorIcEEEEiEEEC1B7v160006IPS8_EERKNS0_IT_EEPNS_9enable_ifIXsr14is_convertibleISE_SA_EE5valueEvE4typeE, symObjAddr: 0x191C, symBinAddr: 0x100003AA4, symSize: 0x3C }
  - { offsetInCU: 0x5FB11, offset: 0x5FB11, size: 0x8, addend: 0x0, symName: __Z16readMonitorTitleRKNSt3__16vectorINS_12basic_stringIcNS_11char_traitsIcEENS_9allocatorIcEEEENS4_IS6_EEEE, symObjAddr: 0x1958, symBinAddr: 0x100003AE0, symSize: 0x104 }
  - { offsetInCU: 0x5FB8B, offset: 0x5FB8B, size: 0x8, addend: 0x0, symName: __ZNKSt3__16vectorINS_12basic_stringIcNS_11char_traitsIcEENS_9allocatorIcEEEENS4_IS6_EEE5beginB7v160006Ev, symObjAddr: 0x1A5C, symBinAddr: 0x100003BE4, symSize: 0x30 }
  - { offsetInCU: 0x5FBB3, offset: 0x5FBB3, size: 0x8, addend: 0x0, symName: __ZNKSt3__16vectorINS_12basic_stringIcNS_11char_traitsIcEENS_9allocatorIcEEEENS4_IS6_EEE3endB7v160006Ev, symObjAddr: 0x1A8C, symBinAddr: 0x100003C14, symSize: 0x30 }
  - { offsetInCU: 0x5FBDB, offset: 0x5FBDB, size: 0x8, addend: 0x0, symName: __ZNKSt3__111__wrap_iterIPKNS_12basic_stringIcNS_11char_traitsIcEENS_9allocatorIcEEEEEdeB7v160006Ev, symObjAddr: 0x1AF0, symBinAddr: 0x100003C78, symSize: 0x18 }
  - { offsetInCU: 0x5FC01, offset: 0x5FC01, size: 0x8, addend: 0x0, symName: __ZNKSt3__16vectorINS_12basic_stringIcNS_11char_traitsIcEENS_9allocatorIcEEEENS4_IS6_EEE6cbeginB7v160006Ev, symObjAddr: 0x1B08, symBinAddr: 0x100003C90, symSize: 0x2C }
  - { offsetInCU: 0x5FC27, offset: 0x5FC27, size: 0x8, addend: 0x0, symName: __ZNSt3__111__wrap_iterIPKNS_12basic_stringIcNS_11char_traitsIcEENS_9allocatorIcEEEEEppB7v160006Ev, symObjAddr: 0x1B34, symBinAddr: 0x100003CBC, symSize: 0x20 }
  - { offsetInCU: 0x5FC4C, offset: 0x5FC4C, size: 0x8, addend: 0x0, symName: __Z9writeFileRNSt3__114basic_ofstreamIcNS_11char_traitsIcEEEERNS_6vectorINS_5tupleIJ8InlineTR11DataEntryEQ5EqlotEEENS_9allocatorISA_EEEE, symObjAddr: 0x1B88, symBinAddr: 0x100003D10, symSize: 0x360 }
  - { offsetInCU: 0x5FD0B, offset: 0x5FD0B, size: 0x8, addend: 0x0, symName: __ZNSt3__16vectorINS_5tupleIJ8InlineTR11DataEntryEQ5EqlotEEENS_9allocatorIS5_EEE5beginB7v160006Ev, symObjAddr: 0x1EE8, symBinAddr: 0x100004070, symSize: 0x30 }
  - { offsetInCU: 0x5FD33, offset: 0x5FD33, size: 0x8, addend: 0x0, symName: __ZNSt3__16vectorINS_5tupleIJ8InlineTR11DataEntryEQ5EqlotEEENS_9allocatorIS5_EEE3endB7v160006Ev, symObjAddr: 0x1F18, symBinAddr: 0x1000040A0, symSize: 0x30 }
  - { offsetInCU: 0x5FD5B, offset: 0x5FD5B, size: 0x8, addend: 0x0, symName: __ZNKSt3__111__wrap_iterIPNS_5tupleIJ8InlineTR11DataEntryEQ5EqlotEEEEdeB7v160006Ev, symObjAddr: 0x1F7C, symBinAddr: 0x100004104, symSize: 0x18 }
  - { offsetInCU: 0x5FD81, offset: 0x5FD81, size: 0x8, addend: 0x0, symName: __ZNSt3__16vectorINS0_IdNS_9allocatorIdEEEENS1_IS3_EEEixB7v160006Em, symObjAddr: 0x2008, symBinAddr: 0x100004190, symSize: 0x2C }
  - { offsetInCU: 0x5FDB8, offset: 0x5FDB8, size: 0x8, addend: 0x0, symName: __ZNSt3__16vectorIdNS_9allocatorIdEEEixB7v160006Em, symObjAddr: 0x2034, symBinAddr: 0x1000041BC, symSize: 0x24 }
  - { offsetInCU: 0x5FDEF, offset: 0x5FDEF, size: 0x8, addend: 0x0, symName: __ZNSt3__16vectorINS0_IdNS_9allocatorIdEEEENS1_IS3_EEED1B7v160006Ev, symObjAddr: 0x2058, symBinAddr: 0x1000041E0, symSize: 0x2C }
  - { offsetInCU: 0x5FE19, offset: 0x5FE19, size: 0x8, addend: 0x0, symName: __ZNSt3__111__wrap_iterIPNS_5tupleIJ8InlineTR11DataEntryEQ5EqlotEEEEppB7v160006Ev, symObjAddr: 0x2084, symBinAddr: 0x10000420C, symSize: 0x20 }
  - { offsetInCU: 0x5FEE2, offset: 0x5FEE2, size: 0x8, addend: 0x0, symName: __ZNSt3__114basic_ofstreamIcNS_11char_traitsIcEEE5closeEv, symObjAddr: 0x20A4, symBinAddr: 0x10000422C, symSize: 0x58 }
  - { offsetInCU: 0x5FF0A, offset: 0x5FF0A, size: 0x8, addend: 0x0, symName: __Z10writeFile1RNSt3__114basic_ofstreamIcNS_11char_traitsIcEEEERNS_6vectorINS_5tupleIJ3WAT11DataEntryEQ8InlineTR5EqlotEEENS_9allocatorISB_EEEE, symObjAddr: 0x20FC, symBinAddr: 0x100004284, symSize: 0x324 }
  - { offsetInCU: 0x6015A, offset: 0x6015A, size: 0x8, addend: 0x0, symName: __ZNSt3__16vectorINS_5tupleIJ3WAT11DataEntryEQ8InlineTR5EqlotEEENS_9allocatorIS6_EEE5beginB7v160006Ev, symObjAddr: 0x2420, symBinAddr: 0x1000045A8, symSize: 0x30 }
  - { offsetInCU: 0x60182, offset: 0x60182, size: 0x8, addend: 0x0, symName: __ZNSt3__16vectorINS_5tupleIJ3WAT11DataEntryEQ8InlineTR5EqlotEEENS_9allocatorIS6_EEE3endB7v160006Ev, symObjAddr: 0x2450, symBinAddr: 0x1000045D8, symSize: 0x30 }
  - { offsetInCU: 0x601AA, offset: 0x601AA, size: 0x8, addend: 0x0, symName: __ZNKSt3__111__wrap_iterIPNS_5tupleIJ3WAT11DataEntryEQ8InlineTR5EqlotEEEEdeB7v160006Ev, symObjAddr: 0x24B4, symBinAddr: 0x10000463C, symSize: 0x18 }
  - { offsetInCU: 0x601D0, offset: 0x601D0, size: 0x8, addend: 0x0, symName: __ZNSt3__111__wrap_iterIPNS_5tupleIJ3WAT11DataEntryEQ8InlineTR5EqlotEEEEppB7v160006Ev, symObjAddr: 0x2568, symBinAddr: 0x1000046F0, symSize: 0x20 }
  - { offsetInCU: 0x601F6, offset: 0x601F6, size: 0x8, addend: 0x0, symName: __Z10writeFile6RNSt3__114basic_ofstreamIcNS_11char_traitsIcEEEERNS_6vectorINS_5tupleIJ6Defect11DataEntryEQ5EqlotEEENS_9allocatorISA_EEEE, symObjAddr: 0x2588, symBinAddr: 0x100004710, symSize: 0x300 }
  - { offsetInCU: 0x602B8, offset: 0x602B8, size: 0x8, addend: 0x0, symName: __ZNSt3__16vectorINS_5tupleIJ6Defect11DataEntryEQ5EqlotEEENS_9allocatorIS5_EEE5beginB7v160006Ev, symObjAddr: 0x2888, symBinAddr: 0x100004A10, symSize: 0x30 }
  - { offsetInCU: 0x602E0, offset: 0x602E0, size: 0x8, addend: 0x0, symName: __ZNSt3__16vectorINS_5tupleIJ6Defect11DataEntryEQ5EqlotEEENS_9allocatorIS5_EEE3endB7v160006Ev, symObjAddr: 0x28B8, symBinAddr: 0x100004A40, symSize: 0x30 }
  - { offsetInCU: 0x60308, offset: 0x60308, size: 0x8, addend: 0x0, symName: __ZNKSt3__111__wrap_iterIPNS_5tupleIJ6Defect11DataEntryEQ5EqlotEEEEdeB7v160006Ev, symObjAddr: 0x291C, symBinAddr: 0x100004AA4, symSize: 0x18 }
  - { offsetInCU: 0x6032E, offset: 0x6032E, size: 0x8, addend: 0x0, symName: __ZNSt3__111__wrap_iterIPNS_5tupleIJ6Defect11DataEntryEQ5EqlotEEEEppB7v160006Ev, symObjAddr: 0x29A8, symBinAddr: 0x100004B30, symSize: 0x20 }
  - { offsetInCU: 0x60354, offset: 0x60354, size: 0x8, addend: 0x0, symName: __Z10writeFile7RNSt3__114basic_ofstreamIcNS_11char_traitsIcEEEERNS_6vectorINS_5tupleIJ8InlineTR11DataEntryEQ5EqlotEEENS_9allocatorISA_EEEE, symObjAddr: 0x29C8, symBinAddr: 0x100004B50, symSize: 0x360 }
  - { offsetInCU: 0x60416, offset: 0x60416, size: 0x8, addend: 0x0, symName: __Z10writeFile8RNSt3__114basic_ofstreamIcNS_11char_traitsIcEEEERNS_6vectorINS_5tupleIJ3WAT8InlineTR11DataEntryEQ5EqlotEEENS_9allocatorISB_EEEE, symObjAddr: 0x2D28, symBinAddr: 0x100004EB0, symSize: 0x2C0 }
  - { offsetInCU: 0x604E8, offset: 0x604E8, size: 0x8, addend: 0x0, symName: __ZNSt3__16vectorINS_5tupleIJ3WAT8InlineTR11DataEntryEQ5EqlotEEENS_9allocatorIS6_EEE5beginB7v160006Ev, symObjAddr: 0x2FE8, symBinAddr: 0x100005170, symSize: 0x30 }
  - { offsetInCU: 0x60510, offset: 0x60510, size: 0x8, addend: 0x0, symName: __ZNSt3__16vectorINS_5tupleIJ3WAT8InlineTR11DataEntryEQ5EqlotEEENS_9allocatorIS6_EEE3endB7v160006Ev, symObjAddr: 0x3018, symBinAddr: 0x1000051A0, symSize: 0x30 }
  - { offsetInCU: 0x60538, offset: 0x60538, size: 0x8, addend: 0x0, symName: __ZNKSt3__111__wrap_iterIPNS_5tupleIJ3WAT8InlineTR11DataEntryEQ5EqlotEEEEdeB7v160006Ev, symObjAddr: 0x307C, symBinAddr: 0x100005204, symSize: 0x18 }
  - { offsetInCU: 0x6055E, offset: 0x6055E, size: 0x8, addend: 0x0, symName: __ZNSt3__111__wrap_iterIPNS_5tupleIJ3WAT8InlineTR11DataEntryEQ5EqlotEEEEppB7v160006Ev, symObjAddr: 0x3130, symBinAddr: 0x1000052B8, symSize: 0x20 }
  - { offsetInCU: 0x60584, offset: 0x60584, size: 0x8, addend: 0x0, symName: __ZN5Eigen8symbolic10SymbolExprINS_8internal17symbolic_last_tagEEC1Ev, symObjAddr: 0x3150, symBinAddr: 0x1000052D8, symSize: 0x2C }
  - { offsetInCU: 0x605AE, offset: 0x605AE, size: 0x8, addend: 0x0, symName: __ZNK5Eigen8symbolic8BaseExprINS0_10SymbolExprINS_8internal17symbolic_last_tagEEEEplILi1EEENS0_7AddExprIS5_NS0_9ValueExprINS3_8FixedIntIXT_EEEEEEESB_, symObjAddr: 0x317C, symBinAddr: 0x100005304, symSize: 0x48 }
  - { offsetInCU: 0x605E9, offset: 0x605E9, size: 0x8, addend: 0x0, symName: __ZNK5Eigen8internal8FixedIntILi1EEclEv, symObjAddr: 0x31C4, symBinAddr: 0x10000534C, symSize: 0x10 }
  - { offsetInCU: 0x6060F, offset: 0x6060F, size: 0x8, addend: 0x0, symName: __ZN5Eigen8internal5all_tC1Ev, symObjAddr: 0x31D4, symBinAddr: 0x10000535C, symSize: 0x2C }
  - { offsetInCU: 0x6066B, offset: 0x6066B, size: 0x8, addend: 0x0, symName: __ZNSt3__14pairIKNS_12basic_stringIcNS_11char_traitsIcEENS_9allocatorIcEEEES6_EC1B7v160006IRA16_KcRA11_SA_LPv0EEEOT_OT0_, symObjAddr: 0x3200, symBinAddr: 0x100005388, symSize: 0x3C }
  - { offsetInCU: 0x606E2, offset: 0x606E2, size: 0x8, addend: 0x0, symName: __ZNSt3__14pairIKNS_12basic_stringIcNS_11char_traitsIcEENS_9allocatorIcEEEES6_EC1B7v160006IRA12_KcRA7_SA_LPv0EEEOT_OT0_, symObjAddr: 0x323C, symBinAddr: 0x1000053C4, symSize: 0x3C }
  - { offsetInCU: 0x60740, offset: 0x60740, size: 0x8, addend: 0x0, symName: __ZNSt3__16vectorIdNS_9allocatorIdEEEC1B7v160006ESt16initializer_listIdE, symObjAddr: 0x3278, symBinAddr: 0x100005400, symSize: 0x3C }
  - { offsetInCU: 0x6077B, offset: 0x6077B, size: 0x8, addend: 0x0, symName: __ZNSt3__16vectorIdNS_9allocatorIdEEED1B7v160006Ev, symObjAddr: 0x32B4, symBinAddr: 0x10000543C, symSize: 0x2C }
  - { offsetInCU: 0x607A5, offset: 0x607A5, size: 0x8, addend: 0x0, symName: _main, symObjAddr: 0x32E0, symBinAddr: 0x100005468, symSize: 0xBB4 }
  - { offsetInCU: 0x60A3E, offset: 0x60A3E, size: 0x8, addend: 0x0, symName: __Z22calculateMeanAndStdDevIdEvRNSt3__16vectorIT_NS0_9allocatorIS2_EEEES6_RdS7_, symObjAddr: 0x3E94, symBinAddr: 0x10000601C, symSize: 0x25C }
  - { offsetInCU: 0x60C3D, offset: 0x60C3D, size: 0x8, addend: 0x0, symName: __ZNSt3__113unordered_mapINS_12basic_stringIcNS_11char_traitsIcEENS_9allocatorIcEEEE6DefectNS_4hashIS6_EENS_8equal_toIS6_EENS4_INS_4pairIKS6_S7_EEEEEC1B7v160006Ev, symObjAddr: 0x40F0, symBinAddr: 0x100006278, symSize: 0x2C }
  - { offsetInCU: 0x60C66, offset: 0x60C66, size: 0x8, addend: 0x0, symName: __Z7readCSVI6DefectENSt3__16vectorIT_NS1_9allocatorIS3_EEEERKNS1_12basic_stringIcNS1_11char_traitsIcEENS4_IcEEEERNS1_13unordered_mapISB_S3_NS1_4hashISB_EENS1_8equal_toISB_EENS4_INS1_4pairISC_S3_EEEEEERKi, symObjAddr: 0x411C, symBinAddr: 0x1000062A4, symSize: 0x858 }
  - { offsetInCU: 0x60E1C, offset: 0x60E1C, size: 0x8, addend: 0x0, symName: __ZNSt3__16vectorI6DefectNS_9allocatorIS1_EEE5clearB7v160006Ev, symObjAddr: 0x4974, symBinAddr: 0x100006AFC, symSize: 0x54 }
  - { offsetInCU: 0x60E51, offset: 0x60E51, size: 0x8, addend: 0x0, symName: __ZNSt3__16vectorI6DefectNS_9allocatorIS1_EEE13shrink_to_fitEv, symObjAddr: 0x49C8, symBinAddr: 0x100006B50, symSize: 0xF0 }
  - { offsetInCU: 0x60F71, offset: 0x60F71, size: 0x8, addend: 0x0, symName: __ZNSt3__113unordered_mapINS_12basic_stringIcNS_11char_traitsIcEENS_9allocatorIcEEEE11DataEntryEQNS_4hashIS6_EENS_8equal_toIS6_EENS4_INS_4pairIKS6_S7_EEEEEC1B7v160006Ev, symObjAddr: 0x4AB8, symBinAddr: 0x100006C40, symSize: 0x2C }
  - { offsetInCU: 0x60F9A, offset: 0x60F9A, size: 0x8, addend: 0x0, symName: __Z7readCSVI11DataEntryEQENSt3__16vectorIT_NS1_9allocatorIS3_EEEERKNS1_12basic_stringIcNS1_11char_traitsIcEENS4_IcEEEERNS1_13unordered_mapISB_S3_NS1_4hashISB_EENS1_8equal_toISB_EENS4_INS1_4pairISC_S3_EEEEEERKi, symObjAddr: 0x4AE4, symBinAddr: 0x100006C6C, symSize: 0x858 }
  - { offsetInCU: 0x61150, offset: 0x61150, size: 0x8, addend: 0x0, symName: __ZNSt3__16vectorI11DataEntryEQNS_9allocatorIS1_EEE5clearB7v160006Ev, symObjAddr: 0x533C, symBinAddr: 0x1000074C4, symSize: 0x54 }
  - { offsetInCU: 0x61185, offset: 0x61185, size: 0x8, addend: 0x0, symName: __ZNSt3__16vectorI11DataEntryEQNS_9allocatorIS1_EEE13shrink_to_fitEv, symObjAddr: 0x5390, symBinAddr: 0x100007518, symSize: 0xF0 }
  - { offsetInCU: 0x612A5, offset: 0x612A5, size: 0x8, addend: 0x0, symName: __ZNSt3__113unordered_mapINS_12basic_stringIcNS_11char_traitsIcEENS_9allocatorIcEEEE5EqlotNS_4hashIS6_EENS_8equal_toIS6_EENS4_INS_4pairIKS6_S7_EEEEEC1B7v160006Ev, symObjAddr: 0x5480, symBinAddr: 0x100007608, symSize: 0x2C }
  - { offsetInCU: 0x612CE, offset: 0x612CE, size: 0x8, addend: 0x0, symName: __Z7readCSVI5EqlotENSt3__16vectorIT_NS1_9allocatorIS3_EEEERKNS1_12basic_stringIcNS1_11char_traitsIcEENS4_IcEEEERNS1_13unordered_mapISB_S3_NS1_4hashISB_EENS1_8equal_toISB_EENS4_INS1_4pairISC_S3_EEEEEERKi, symObjAddr: 0x54AC, symBinAddr: 0x100007634, symSize: 0x858 }
  - { offsetInCU: 0x61484, offset: 0x61484, size: 0x8, addend: 0x0, symName: __ZNSt3__16vectorI5EqlotNS_9allocatorIS1_EEE5clearB7v160006Ev, symObjAddr: 0x5D04, symBinAddr: 0x100007E8C, symSize: 0x54 }
  - { offsetInCU: 0x614B9, offset: 0x614B9, size: 0x8, addend: 0x0, symName: __ZNSt3__16vectorI5EqlotNS_9allocatorIS1_EEE13shrink_to_fitEv, symObjAddr: 0x5D58, symBinAddr: 0x100007EE0, symSize: 0xF0 }
  - { offsetInCU: 0x61504, offset: 0x61504, size: 0x8, addend: 0x0, symName: __Z6lookupI6Defect11DataEntryEQ5EqlotENSt3__16vectorINS3_5tupleIJT_T0_T1_EEENS3_9allocatorIS9_EEEERKNS3_13unordered_mapINS3_12basic_stringIcNS3_11char_traitsIcEENSA_IcEEEES6_NS3_4hashISI_EENS3_8equal_toISI_EENSA_INS3_4pairIKSI_S6_EEEEEERKNSD_ISI_S7_SK_SM_NSA_INSN_ISO_S7_EEEEEERKNSD_ISI_S8_SK_SM_NSA_INSN_ISO_S8_EEEEEERKi, symObjAddr: 0x5E48, symBinAddr: 0x100007FD0, symSize: 0x268 }
  - { offsetInCU: 0x615F6, offset: 0x615F6, size: 0x8, addend: 0x0, symName: __ZNSt3__114basic_ofstreamIcNS_11char_traitsIcEEEC1EPKcj, symObjAddr: 0x60B0, symBinAddr: 0x100008238, symSize: 0x16C }
  - { offsetInCU: 0x61714, offset: 0x61714, size: 0x8, addend: 0x0, symName: __ZNSt3__113unordered_mapINS_12basic_stringIcNS_11char_traitsIcEENS_9allocatorIcEEEE8InlineTRNS_4hashIS6_EENS_8equal_toIS6_EENS4_INS_4pairIKS6_S7_EEEEEC1B7v160006Ev, symObjAddr: 0x621C, symBinAddr: 0x1000083A4, symSize: 0x2C }
  - { offsetInCU: 0x6173D, offset: 0x6173D, size: 0x8, addend: 0x0, symName: __Z7readCSVI8InlineTRENSt3__16vectorIT_NS1_9allocatorIS3_EEEERKNS1_12basic_stringIcNS1_11char_traitsIcEENS4_IcEEEERNS1_13unordered_mapISB_S3_NS1_4hashISB_EENS1_8equal_toISB_EENS4_INS1_4pairISC_S3_EEEEEERKi, symObjAddr: 0x6248, symBinAddr: 0x1000083D0, symSize: 0x858 }
  - { offsetInCU: 0x618F3, offset: 0x618F3, size: 0x8, addend: 0x0, symName: __ZNSt3__16vectorI8InlineTRNS_9allocatorIS1_EEE5clearB7v160006Ev, symObjAddr: 0x6AA0, symBinAddr: 0x100008C28, symSize: 0x54 }
  - { offsetInCU: 0x61928, offset: 0x61928, size: 0x8, addend: 0x0, symName: __ZNSt3__16vectorI8InlineTRNS_9allocatorIS1_EEE13shrink_to_fitEv, symObjAddr: 0x6AF4, symBinAddr: 0x100008C7C, symSize: 0xF0 }
  - { offsetInCU: 0x61973, offset: 0x61973, size: 0x8, addend: 0x0, symName: __Z6lookupI8InlineTR11DataEntryEQ5EqlotENSt3__16vectorINS3_5tupleIJT_T0_T1_EEENS3_9allocatorIS9_EEEERKNS3_13unordered_mapINS3_12basic_stringIcNS3_11char_traitsIcEENSA_IcEEEES6_NS3_4hashISI_EENS3_8equal_toISI_EENSA_INS3_4pairIKSI_S6_EEEEEERKNSD_ISI_S7_SK_SM_NSA_INSN_ISO_S7_EEEEEERKNSD_ISI_S8_SK_SM_NSA_INSN_ISO_S8_EEEEEERKi, symObjAddr: 0x6BE4, symBinAddr: 0x100008D6C, symSize: 0x268 }
  - { offsetInCU: 0x61B39, offset: 0x61B39, size: 0x8, addend: 0x0, symName: __ZNSt3__113unordered_mapINS_12basic_stringIcNS_11char_traitsIcEENS_9allocatorIcEEEE3WATNS_4hashIS6_EENS_8equal_toIS6_EENS4_INS_4pairIKS6_S7_EEEEEC1B7v160006Ev, symObjAddr: 0x6E4C, symBinAddr: 0x100008FD4, symSize: 0x2C }
  - { offsetInCU: 0x61B62, offset: 0x61B62, size: 0x8, addend: 0x0, symName: __Z7readCSVI3WATENSt3__16vectorIT_NS1_9allocatorIS3_EEEERKNS1_12basic_stringIcNS1_11char_traitsIcEENS4_IcEEEERNS1_13unordered_mapISB_S3_NS1_4hashISB_EENS1_8equal_toISB_EENS4_INS1_4pairISC_S3_EEEEEERKi, symObjAddr: 0x6E78, symBinAddr: 0x100009000, symSize: 0x858 }
  - { offsetInCU: 0x61D18, offset: 0x61D18, size: 0x8, addend: 0x0, symName: __ZNSt3__16vectorI3WATNS_9allocatorIS1_EEE5clearB7v160006Ev, symObjAddr: 0x76D0, symBinAddr: 0x100009858, symSize: 0x54 }
  - { offsetInCU: 0x61D4D, offset: 0x61D4D, size: 0x8, addend: 0x0, symName: __ZNSt3__16vectorI3WATNS_9allocatorIS1_EEE13shrink_to_fitEv, symObjAddr: 0x7724, symBinAddr: 0x1000098AC, symSize: 0xF0 }
  - { offsetInCU: 0x61D98, offset: 0x61D98, size: 0x8, addend: 0x0, symName: __Z6lookupI3WAT8InlineTR11DataEntryEQ5EqlotENSt3__16vectorINS4_5tupleIJT_T0_T1_T2_EEENS4_9allocatorISB_EEEERKNS4_13unordered_mapINS4_12basic_stringIcNS4_11char_traitsIcEENSC_IcEEEES7_NS4_4hashISK_EENS4_8equal_toISK_EENSC_INS4_4pairIKSK_S7_EEEEEERKNSF_ISK_S8_SM_SO_NSC_INSP_ISQ_S8_EEEEEERKNSF_ISK_S9_SM_SO_NSC_INSP_ISQ_S9_EEEEEERKNSF_ISK_SA_SM_SO_NSC_INSP_ISQ_SA_EEEEEERKi, symObjAddr: 0x7814, symBinAddr: 0x10000999C, symSize: 0x31C }
  - { offsetInCU: 0x61EA7, offset: 0x61EA7, size: 0x8, addend: 0x0, symName: __ZNSt3__114basic_ofstreamIcNS_11char_traitsIcEEED1Ev, symObjAddr: 0x7BB0, symBinAddr: 0x100009D38, symSize: 0x40 }
  - { offsetInCU: 0x61ED4, offset: 0x61ED4, size: 0x8, addend: 0x0, symName: __ZNSt3__16vectorINS_5tupleIJ3WAT8InlineTR11DataEntryEQ5EqlotEEENS_9allocatorIS6_EEED1B7v160006Ev, symObjAddr: 0x7BF0, symBinAddr: 0x100009D78, symSize: 0x2C }
  - { offsetInCU: 0x61EFE, offset: 0x61EFE, size: 0x8, addend: 0x0, symName: __ZNSt3__16vectorI5EqlotNS_9allocatorIS1_EEED1B7v160006Ev, symObjAddr: 0x7C1C, symBinAddr: 0x100009DA4, symSize: 0x2C }
  - { offsetInCU: 0x61F28, offset: 0x61F28, size: 0x8, addend: 0x0, symName: __ZNSt3__113unordered_mapINS_12basic_stringIcNS_11char_traitsIcEENS_9allocatorIcEEEE5EqlotNS_4hashIS6_EENS_8equal_toIS6_EENS4_INS_4pairIKS6_S7_EEEEED1B7v160006Ev, symObjAddr: 0x7C48, symBinAddr: 0x100009DD0, symSize: 0x2C }
  - { offsetInCU: 0x61F52, offset: 0x61F52, size: 0x8, addend: 0x0, symName: __ZNSt3__16vectorI11DataEntryEQNS_9allocatorIS1_EEED1B7v160006Ev, symObjAddr: 0x7C74, symBinAddr: 0x100009DFC, symSize: 0x2C }
  - { offsetInCU: 0x61F7C, offset: 0x61F7C, size: 0x8, addend: 0x0, symName: __ZNSt3__113unordered_mapINS_12basic_stringIcNS_11char_traitsIcEENS_9allocatorIcEEEE11DataEntryEQNS_4hashIS6_EENS_8equal_toIS6_EENS4_INS_4pairIKS6_S7_EEEEED1B7v160006Ev, symObjAddr: 0x7CA0, symBinAddr: 0x100009E28, symSize: 0x2C }
  - { offsetInCU: 0x61FA6, offset: 0x61FA6, size: 0x8, addend: 0x0, symName: __ZNSt3__16vectorI8InlineTRNS_9allocatorIS1_EEED1B7v160006Ev, symObjAddr: 0x7CCC, symBinAddr: 0x100009E54, symSize: 0x2C }
  - { offsetInCU: 0x61FD0, offset: 0x61FD0, size: 0x8, addend: 0x0, symName: __ZNSt3__113unordered_mapINS_12basic_stringIcNS_11char_traitsIcEENS_9allocatorIcEEEE8InlineTRNS_4hashIS6_EENS_8equal_toIS6_EENS4_INS_4pairIKS6_S7_EEEEED1B7v160006Ev, symObjAddr: 0x7CF8, symBinAddr: 0x100009E80, symSize: 0x2C }
  - { offsetInCU: 0x61FFA, offset: 0x61FFA, size: 0x8, addend: 0x0, symName: __ZNSt3__16vectorI3WATNS_9allocatorIS1_EEED1B7v160006Ev, symObjAddr: 0x7D24, symBinAddr: 0x100009EAC, symSize: 0x2C }
  - { offsetInCU: 0x62024, offset: 0x62024, size: 0x8, addend: 0x0, symName: __ZNSt3__113unordered_mapINS_12basic_stringIcNS_11char_traitsIcEENS_9allocatorIcEEEE3WATNS_4hashIS6_EENS_8equal_toIS6_EENS4_INS_4pairIKS6_S7_EEEEED1B7v160006Ev, symObjAddr: 0x7D50, symBinAddr: 0x100009ED8, symSize: 0x2C }
  - { offsetInCU: 0x6204E, offset: 0x6204E, size: 0x8, addend: 0x0, symName: __ZNSt3__16vectorINS_5tupleIJ8InlineTR11DataEntryEQ5EqlotEEENS_9allocatorIS5_EEED1B7v160006Ev, symObjAddr: 0x7D7C, symBinAddr: 0x100009F04, symSize: 0x2C }
  - { offsetInCU: 0x62078, offset: 0x62078, size: 0x8, addend: 0x0, symName: __ZNSt3__16vectorINS_5tupleIJ6Defect11DataEntryEQ5EqlotEEENS_9allocatorIS5_EEED1B7v160006Ev, symObjAddr: 0x7DA8, symBinAddr: 0x100009F30, symSize: 0x2C }
  - { offsetInCU: 0x620A2, offset: 0x620A2, size: 0x8, addend: 0x0, symName: __ZNSt3__16vectorI6DefectNS_9allocatorIS1_EEED1B7v160006Ev, symObjAddr: 0x7DD4, symBinAddr: 0x100009F5C, symSize: 0x2C }
  - { offsetInCU: 0x620CC, offset: 0x620CC, size: 0x8, addend: 0x0, symName: __ZNSt3__113unordered_mapINS_12basic_stringIcNS_11char_traitsIcEENS_9allocatorIcEEEE6DefectNS_4hashIS6_EENS_8equal_toIS6_EENS4_INS_4pairIKS6_S7_EEEEED1B7v160006Ev, symObjAddr: 0x7E00, symBinAddr: 0x100009F88, symSize: 0x2C }
  - { offsetInCU: 0x620F6, offset: 0x620F6, size: 0x8, addend: 0x0, symName: __ZN5Eigen8internal8FixedIntILi1EEC1Ev, symObjAddr: 0x7E2C, symBinAddr: 0x100009FB4, symSize: 0x2C }
  - { offsetInCU: 0x62120, offset: 0x62120, size: 0x8, addend: 0x0, symName: __ZNSt3__14pairIKNS_12basic_stringIcNS_11char_traitsIcEENS_9allocatorIcEEEEbEC2B7v160006IRA4_KcbLPv0EEEOT_OT0_, symObjAddr: 0x7E58, symBinAddr: 0x100009FE0, symSize: 0x48 }
  - { offsetInCU: 0x6217E, offset: 0x6217E, size: 0x8, addend: 0x0, symName: __ZNSt3__14pairIKNS_12basic_stringIcNS_11char_traitsIcEENS_9allocatorIcEEEEbEC2B7v160006IRA8_KcbLPv0EEEOT_OT0_, symObjAddr: 0x7EA0, symBinAddr: 0x10000A028, symSize: 0x48 }
  - { offsetInCU: 0x621DC, offset: 0x621DC, size: 0x8, addend: 0x0, symName: __ZNSt3__14pairIKNS_12basic_stringIcNS_11char_traitsIcEENS_9allocatorIcEEEEbED2Ev, symObjAddr: 0x7EE8, symBinAddr: 0x10000A070, symSize: 0x2C }
  - { offsetInCU: 0x62208, offset: 0x62208, size: 0x8, addend: 0x0, symName: __ZNSt3__14pairIKNS_12basic_stringIcNS_11char_traitsIcEENS_9allocatorIcEEEES6_EC2B7v160006IRA4_KcRA3_SA_LPv0EEEOT_OT0_, symObjAddr: 0x7F14, symBinAddr: 0x10000A09C, symSize: 0x70 }
  - { offsetInCU: 0x62266, offset: 0x62266, size: 0x8, addend: 0x0, symName: __ZNSt3__14pairIKNS_12basic_stringIcNS_11char_traitsIcEENS_9allocatorIcEEEES6_EC2B7v160006IRA7_KcRA8_SA_LPv0EEEOT_OT0_, symObjAddr: 0x7F84, symBinAddr: 0x10000A10C, symSize: 0x70 }
  - { offsetInCU: 0x622C4, offset: 0x622C4, size: 0x8, addend: 0x0, symName: __ZNSt3__14pairIKNS_12basic_stringIcNS_11char_traitsIcEENS_9allocatorIcEEEES6_EC2B7v160006IRA9_KcRA3_SA_LPv0EEEOT_OT0_, symObjAddr: 0x7FF4, symBinAddr: 0x10000A17C, symSize: 0x70 }
  - { offsetInCU: 0x62322, offset: 0x62322, size: 0x8, addend: 0x0, symName: __ZNSt3__14pairIKNS_12basic_stringIcNS_11char_traitsIcEENS_9allocatorIcEEEES6_EC2B7v160006IRA7_KcRA4_SA_LPv0EEEOT_OT0_, symObjAddr: 0x8064, symBinAddr: 0x10000A1EC, symSize: 0x70 }
  - { offsetInCU: 0x62380, offset: 0x62380, size: 0x8, addend: 0x0, symName: __ZNSt3__14pairIKNS_12basic_stringIcNS_11char_traitsIcEENS_9allocatorIcEEEES6_EC2B7v160006IRA7_KcRA13_SA_LPv0EEEOT_OT0_, symObjAddr: 0x80D4, symBinAddr: 0x10000A25C, symSize: 0x70 }
  - { offsetInCU: 0x623DE, offset: 0x623DE, size: 0x8, addend: 0x0, symName: __ZNSt3__14pairIKNS_12basic_stringIcNS_11char_traitsIcEENS_9allocatorIcEEEES6_EC2B7v160006IRA7_KcRA10_SA_LPv0EEEOT_OT0_, symObjAddr: 0x8144, symBinAddr: 0x10000A2CC, symSize: 0x70 }
  - { offsetInCU: 0x6243C, offset: 0x6243C, size: 0x8, addend: 0x0, symName: __ZNSt3__14pairIKNS_12basic_stringIcNS_11char_traitsIcEENS_9allocatorIcEEEES6_ED2Ev, symObjAddr: 0x81B4, symBinAddr: 0x10000A33C, symSize: 0x38 }
  - { offsetInCU: 0x62468, offset: 0x62468, size: 0x8, addend: 0x0, symName: __ZNSt3__112basic_stringIcNS_11char_traitsIcEENS_9allocatorIcEEEC2B7v160006IDnEEPKc, symObjAddr: 0x81EC, symBinAddr: 0x10000A374, symSize: 0x60 }
  - { offsetInCU: 0x624AC, offset: 0x624AC, size: 0x8, addend: 0x0, symName: __ZNSt3__117__compressed_pairINS_12basic_stringIcNS_11char_traitsIcEENS_9allocatorIcEEE5__repES5_EC1B7v160006INS_18__default_init_tagESA_EEOT_OT0_, symObjAddr: 0x824C, symBinAddr: 0x10000A3D4, symSize: 0x3C }
  - { offsetInCU: 0x62504, offset: 0x62504, size: 0x8, addend: 0x0, symName: __ZNSt3__111char_traitsIcE6lengthEPKc, symObjAddr: 0x8288, symBinAddr: 0x10000A410, symSize: 0x34 }
  - { offsetInCU: 0x62527, offset: 0x62527, size: 0x8, addend: 0x0, symName: __ZNSt3__117__compressed_pairINS_12basic_stringIcNS_11char_traitsIcEENS_9allocatorIcEEE5__repES5_EC2B7v160006INS_18__default_init_tagESA_EEOT_OT0_, symObjAddr: 0x82CC, symBinAddr: 0x10000A454, symSize: 0x3C }
  - { offsetInCU: 0x6257F, offset: 0x6257F, size: 0x8, addend: 0x0, symName: __ZNSt3__122__compressed_pair_elemINS_12basic_stringIcNS_11char_traitsIcEENS_9allocatorIcEEE5__repELi0ELb0EEC2B7v160006ENS_18__default_init_tagE, symObjAddr: 0x8308, symBinAddr: 0x10000A490, symSize: 0x14 }
  - { offsetInCU: 0x625B4, offset: 0x625B4, size: 0x8, addend: 0x0, symName: __ZNSt3__122__compressed_pair_elemINS_9allocatorIcEELi1ELb1EEC2B7v160006ENS_18__default_init_tagE, symObjAddr: 0x831C, symBinAddr: 0x10000A4A4, symSize: 0x2C }
  - { offsetInCU: 0x625E9, offset: 0x625E9, size: 0x8, addend: 0x0, symName: __ZNSt3__19allocatorIcEC2B7v160006Ev, symObjAddr: 0x8348, symBinAddr: 0x10000A4D0, symSize: 0x2C }
  - { offsetInCU: 0x62613, offset: 0x62613, size: 0x8, addend: 0x0, symName: __ZNSt3__116__non_trivial_ifILb1ENS_9allocatorIcEEEC2B7v160006Ev, symObjAddr: 0x8374, symBinAddr: 0x10000A4FC, symSize: 0x14 }
  - { offsetInCU: 0x6263D, offset: 0x6263D, size: 0x8, addend: 0x0, symName: __ZNSt3__16vectorINS_12basic_stringIcNS_11char_traitsIcEENS_9allocatorIcEEEENS4_IS6_EEEC2B7v160006ESt16initializer_listIS6_E, symObjAddr: 0x83B8, symBinAddr: 0x10000A540, symSize: 0x124 }
  - { offsetInCU: 0x62694, offset: 0x62694, size: 0x8, addend: 0x0, symName: __ZNSt3__117__compressed_pairIPNS_12basic_stringIcNS_11char_traitsIcEENS_9allocatorIcEEEENS4_IS6_EEEC1B7v160006IDnNS_18__default_init_tagEEEOT_OT0_, symObjAddr: 0x84DC, symBinAddr: 0x10000A664, symSize: 0x3C }
  - { offsetInCU: 0x626EC, offset: 0x626EC, size: 0x8, addend: 0x0, symName: __ZNSt3__16vectorINS_12basic_stringIcNS_11char_traitsIcEENS_9allocatorIcEEEENS4_IS6_EEE16__destroy_vectorC1ERS8_, symObjAddr: 0x8558, symBinAddr: 0x10000A6E0, symSize: 0x34 }
  - { offsetInCU: 0x62725, offset: 0x62725, size: 0x8, addend: 0x0, symName: __ZNKSt16initializer_listINSt3__112basic_stringIcNS0_11char_traitsIcEENS0_9allocatorIcEEEEE4sizeB7v160006Ev, symObjAddr: 0x859C, symBinAddr: 0x10000A724, symSize: 0x18 }
  - { offsetInCU: 0x6274B, offset: 0x6274B, size: 0x8, addend: 0x0, symName: __ZNSt3__16vectorINS_12basic_stringIcNS_11char_traitsIcEENS_9allocatorIcEEEENS4_IS6_EEE11__vallocateB7v160006Em, symObjAddr: 0x85B4, symBinAddr: 0x10000A73C, symSize: 0xB4 }
  - { offsetInCU: 0x6278F, offset: 0x6278F, size: 0x8, addend: 0x0, symName: __ZNSt3__16vectorINS_12basic_stringIcNS_11char_traitsIcEENS_9allocatorIcEEEENS4_IS6_EEE18__construct_at_endIPKS6_Li0EEEvT_SC_m, symObjAddr: 0x8668, symBinAddr: 0x10000A7F0, symSize: 0x8C }
  - { offsetInCU: 0x62802, offset: 0x62802, size: 0x8, addend: 0x0, symName: __ZNKSt16initializer_listINSt3__112basic_stringIcNS0_11char_traitsIcEENS0_9allocatorIcEEEEE5beginB7v160006Ev, symObjAddr: 0x86F4, symBinAddr: 0x10000A87C, symSize: 0x18 }
  - { offsetInCU: 0x62828, offset: 0x62828, size: 0x8, addend: 0x0, symName: __ZNKSt16initializer_listINSt3__112basic_stringIcNS0_11char_traitsIcEENS0_9allocatorIcEEEEE3endB7v160006Ev, symObjAddr: 0x870C, symBinAddr: 0x10000A894, symSize: 0x28 }
  - { offsetInCU: 0x6284E, offset: 0x6284E, size: 0x8, addend: 0x0, symName: __ZNSt3__128__exception_guard_exceptionsINS_6vectorINS_12basic_stringIcNS_11char_traitsIcEENS_9allocatorIcEEEENS5_IS7_EEE16__destroy_vectorEE10__completeB7v160006Ev, symObjAddr: 0x8734, symBinAddr: 0x10000A8BC, symSize: 0x1C }
  - { offsetInCU: 0x62874, offset: 0x62874, size: 0x8, addend: 0x0, symName: __ZNSt3__128__exception_guard_exceptionsINS_6vectorINS_12basic_stringIcNS_11char_traitsIcEENS_9allocatorIcEEEENS5_IS7_EEE16__destroy_vectorEED1B7v160006Ev, symObjAddr: 0x8750, symBinAddr: 0x10000A8D8, symSize: 0x2C }
  - { offsetInCU: 0x6289E, offset: 0x6289E, size: 0x8, addend: 0x0, symName: __ZNSt3__117__compressed_pairIPNS_12basic_stringIcNS_11char_traitsIcEENS_9allocatorIcEEEENS4_IS6_EEEC2B7v160006IDnNS_18__default_init_tagEEEOT_OT0_, symObjAddr: 0x877C, symBinAddr: 0x10000A904, symSize: 0x40 }
  - { offsetInCU: 0x628F6, offset: 0x628F6, size: 0x8, addend: 0x0, symName: __ZNSt3__122__compressed_pair_elemIPNS_12basic_stringIcNS_11char_traitsIcEENS_9allocatorIcEEEELi0ELb0EEC2B7v160006IDnvEEOT_, symObjAddr: 0x87BC, symBinAddr: 0x10000A944, symSize: 0x1C }
  - { offsetInCU: 0x62938, offset: 0x62938, size: 0x8, addend: 0x0, symName: __ZNSt3__122__compressed_pair_elemINS_9allocatorINS_12basic_stringIcNS_11char_traitsIcEENS1_IcEEEEEELi1ELb1EEC2B7v160006ENS_18__default_init_tagE, symObjAddr: 0x87D8, symBinAddr: 0x10000A960, symSize: 0x2C }
  - { offsetInCU: 0x6296D, offset: 0x6296D, size: 0x8, addend: 0x0, symName: __ZNSt3__19allocatorINS_12basic_stringIcNS_11char_traitsIcEENS0_IcEEEEEC2B7v160006Ev, symObjAddr: 0x8804, symBinAddr: 0x10000A98C, symSize: 0x2C }
  - { offsetInCU: 0x62997, offset: 0x62997, size: 0x8, addend: 0x0, symName: __ZNSt3__116__non_trivial_ifILb1ENS_9allocatorINS_12basic_stringIcNS_11char_traitsIcEENS1_IcEEEEEEEC2B7v160006Ev, symObjAddr: 0x8830, symBinAddr: 0x10000A9B8, symSize: 0x14 }
  - { offsetInCU: 0x629C1, offset: 0x629C1, size: 0x8, addend: 0x0, symName: __ZNSt3__128__exception_guard_exceptionsINS_6vectorINS_12basic_stringIcNS_11char_traitsIcEENS_9allocatorIcEEEENS5_IS7_EEE16__destroy_vectorEEC1B7v160006ESA_, symObjAddr: 0x8844, symBinAddr: 0x10000A9CC, symSize: 0x34 }
  - { offsetInCU: 0x629F9, offset: 0x629F9, size: 0x8, addend: 0x0, symName: __ZNSt3__128__exception_guard_exceptionsINS_6vectorINS_12basic_stringIcNS_11char_traitsIcEENS_9allocatorIcEEEENS5_IS7_EEE16__destroy_vectorEEC2B7v160006ESA_, symObjAddr: 0x8878, symBinAddr: 0x10000AA00, symSize: 0x24 }
  - { offsetInCU: 0x62A31, offset: 0x62A31, size: 0x8, addend: 0x0, symName: __ZNSt3__16vectorINS_12basic_stringIcNS_11char_traitsIcEENS_9allocatorIcEEEENS4_IS6_EEE16__destroy_vectorC2ERS8_, symObjAddr: 0x889C, symBinAddr: 0x10000AA24, symSize: 0x20 }
  - { offsetInCU: 0x62A6A, offset: 0x62A6A, size: 0x8, addend: 0x0, symName: __ZNKSt3__16vectorINS_12basic_stringIcNS_11char_traitsIcEENS_9allocatorIcEEEENS4_IS6_EEE8max_sizeEv, symObjAddr: 0x88BC, symBinAddr: 0x10000AA44, symSize: 0x60 }
  - { offsetInCU: 0x62A92, offset: 0x62A92, size: 0x8, addend: 0x0, symName: __ZNKSt3__16vectorINS_12basic_stringIcNS_11char_traitsIcEENS_9allocatorIcEEEENS4_IS6_EEE20__throw_length_errorB7v160006Ev, symObjAddr: 0x891C, symBinAddr: 0x10000AAA4, symSize: 0x1C }
  - { offsetInCU: 0x62AB8, offset: 0x62AB8, size: 0x8, addend: 0x0, symName: __ZNSt3__16vectorINS_12basic_stringIcNS_11char_traitsIcEENS_9allocatorIcEEEENS4_IS6_EEE7__allocB7v160006Ev, symObjAddr: 0x8978, symBinAddr: 0x10000AB00, symSize: 0x28 }
  - { offsetInCU: 0x62ADE, offset: 0x62ADE, size: 0x8, addend: 0x0, symName: __ZNSt3__16vectorINS_12basic_stringIcNS_11char_traitsIcEENS_9allocatorIcEEEENS4_IS6_EEE9__end_capB7v160006Ev, symObjAddr: 0x89A0, symBinAddr: 0x10000AB28, symSize: 0x28 }
  - { offsetInCU: 0x62B04, offset: 0x62B04, size: 0x8, addend: 0x0, symName: __ZNKSt3__16vectorINS_12basic_stringIcNS_11char_traitsIcEENS_9allocatorIcEEEENS4_IS6_EEE14__annotate_newB7v160006Em, symObjAddr: 0x89C8, symBinAddr: 0x10000AB50, symSize: 0xC8 }
  - { offsetInCU: 0x62B44, offset: 0x62B44, size: 0x8, addend: 0x0, symName: __ZNSt3__116allocator_traitsINS_9allocatorINS_12basic_stringIcNS_11char_traitsIcEENS1_IcEEEEEEE8max_sizeB7v160006IS7_vvEEmRKS7_, symObjAddr: 0x8ABC, symBinAddr: 0x10000AC44, symSize: 0x28 }
  - { offsetInCU: 0x62B70, offset: 0x62B70, size: 0x8, addend: 0x0, symName: __ZNKSt3__16vectorINS_12basic_stringIcNS_11char_traitsIcEENS_9allocatorIcEEEENS4_IS6_EEE7__allocB7v160006Ev, symObjAddr: 0x8AE4, symBinAddr: 0x10000AC6C, symSize: 0x28 }
  - { offsetInCU: 0x62B96, offset: 0x62B96, size: 0x8, addend: 0x0, symName: __ZNSt3__114numeric_limitsIlE3maxB7v160006Ev, symObjAddr: 0x8B0C, symBinAddr: 0x10000AC94, symSize: 0x14 }
  - { offsetInCU: 0x62BB5, offset: 0x62BB5, size: 0x8, addend: 0x0, symName: __ZNKSt3__16__lessImmEclB7v160006ERKmS3_, symObjAddr: 0x8B74, symBinAddr: 0x10000ACFC, symSize: 0x34 }
  - { offsetInCU: 0x62BF7, offset: 0x62BF7, size: 0x8, addend: 0x0, symName: __ZNSt3__114numeric_limitsImE3maxB7v160006Ev, symObjAddr: 0x8BA8, symBinAddr: 0x10000AD30, symSize: 0x14 }
  - { offsetInCU: 0x62C0B, offset: 0x62C0B, size: 0x8, addend: 0x0, symName: __ZNSt3__123__libcpp_numeric_limitsImLb1EE3maxB7v160006Ev, symObjAddr: 0x8BBC, symBinAddr: 0x10000AD44, symSize: 0x8 }
  - { offsetInCU: 0x62C1F, offset: 0x62C1F, size: 0x8, addend: 0x0, symName: __ZNKSt3__117__compressed_pairIPNS_12basic_stringIcNS_11char_traitsIcEENS_9allocatorIcEEEENS4_IS6_EEE6secondB7v160006Ev, symObjAddr: 0x8BC4, symBinAddr: 0x10000AD4C, symSize: 0x24 }
  - { offsetInCU: 0x62C45, offset: 0x62C45, size: 0x8, addend: 0x0, symName: __ZNKSt3__122__compressed_pair_elemINS_9allocatorINS_12basic_stringIcNS_11char_traitsIcEENS1_IcEEEEEELi1ELb1EE5__getB7v160006Ev, symObjAddr: 0x8BE8, symBinAddr: 0x10000AD70, symSize: 0x14 }
  - { offsetInCU: 0x62C6B, offset: 0x62C6B, size: 0x8, addend: 0x0, symName: __ZNSt3__123__libcpp_numeric_limitsIlLb1EE3maxB7v160006Ev, symObjAddr: 0x8BFC, symBinAddr: 0x10000AD84, symSize: 0x8 }
  - { offsetInCU: 0x62C7F, offset: 0x62C7F, size: 0x8, addend: 0x0, symName: __ZNSt12length_errorC1B7v160006EPKc, symObjAddr: 0x8C68, symBinAddr: 0x10000ADF0, symSize: 0x34 }
  - { offsetInCU: 0x62CB7, offset: 0x62CB7, size: 0x8, addend: 0x0, symName: __ZNSt12length_errorC2B7v160006EPKc, symObjAddr: 0x8C9C, symBinAddr: 0x10000AE24, symSize: 0x4C }
  - { offsetInCU: 0x62CEF, offset: 0x62CEF, size: 0x8, addend: 0x0, symName: __ZNSt3__19allocatorINS_12basic_stringIcNS_11char_traitsIcEENS0_IcEEEEE8allocateB7v160006Em, symObjAddr: 0x8CE8, symBinAddr: 0x10000AE70, symSize: 0x5C }
  - { offsetInCU: 0x62D23, offset: 0x62D23, size: 0x8, addend: 0x0, symName: __ZNSt3__117__compressed_pairIPNS_12basic_stringIcNS_11char_traitsIcEENS_9allocatorIcEEEENS4_IS6_EEE6secondB7v160006Ev, symObjAddr: 0x8E48, symBinAddr: 0x10000AFD0, symSize: 0x24 }
  - { offsetInCU: 0x62D49, offset: 0x62D49, size: 0x8, addend: 0x0, symName: __ZNSt3__122__compressed_pair_elemINS_9allocatorINS_12basic_stringIcNS_11char_traitsIcEENS1_IcEEEEEELi1ELb1EE5__getB7v160006Ev, symObjAddr: 0x8E6C, symBinAddr: 0x10000AFF4, symSize: 0x14 }
  - { offsetInCU: 0x62D6F, offset: 0x62D6F, size: 0x8, addend: 0x0, symName: __ZNSt3__117__compressed_pairIPNS_12basic_stringIcNS_11char_traitsIcEENS_9allocatorIcEEEENS4_IS6_EEE5firstB7v160006Ev, symObjAddr: 0x8E80, symBinAddr: 0x10000B008, symSize: 0x24 }
  - { offsetInCU: 0x62D95, offset: 0x62D95, size: 0x8, addend: 0x0, symName: __ZNSt3__122__compressed_pair_elemIPNS_12basic_stringIcNS_11char_traitsIcEENS_9allocatorIcEEEELi0ELb0EE5__getB7v160006Ev, symObjAddr: 0x8EA4, symBinAddr: 0x10000B02C, symSize: 0x14 }
  - { offsetInCU: 0x62DBB, offset: 0x62DBB, size: 0x8, addend: 0x0, symName: __ZNKSt3__16vectorINS_12basic_stringIcNS_11char_traitsIcEENS_9allocatorIcEEEENS4_IS6_EEE31__annotate_contiguous_containerB7v160006EPKvSA_SA_SA_, symObjAddr: 0x8EB8, symBinAddr: 0x10000B040, symSize: 0x20 }
  - { offsetInCU: 0x62E11, offset: 0x62E11, size: 0x8, addend: 0x0, symName: __ZNKSt3__16vectorINS_12basic_stringIcNS_11char_traitsIcEENS_9allocatorIcEEEENS4_IS6_EEE4dataB7v160006Ev, symObjAddr: 0x8ED8, symBinAddr: 0x10000B060, symSize: 0x28 }
  - { offsetInCU: 0x62E37, offset: 0x62E37, size: 0x8, addend: 0x0, symName: __ZNKSt3__16vectorINS_12basic_stringIcNS_11char_traitsIcEENS_9allocatorIcEEEENS4_IS6_EEE8capacityB7v160006Ev, symObjAddr: 0x8F00, symBinAddr: 0x10000B088, symSize: 0x40 }
  - { offsetInCU: 0x62E5D, offset: 0x62E5D, size: 0x8, addend: 0x0, symName: __ZNKSt3__16vectorINS_12basic_stringIcNS_11char_traitsIcEENS_9allocatorIcEEEENS4_IS6_EEE9__end_capB7v160006Ev, symObjAddr: 0x8F54, symBinAddr: 0x10000B0DC, symSize: 0x28 }
  - { offsetInCU: 0x62E83, offset: 0x62E83, size: 0x8, addend: 0x0, symName: __ZNKSt3__117__compressed_pairIPNS_12basic_stringIcNS_11char_traitsIcEENS_9allocatorIcEEEENS4_IS6_EEE5firstB7v160006Ev, symObjAddr: 0x8F7C, symBinAddr: 0x10000B104, symSize: 0x24 }
  - { offsetInCU: 0x62EA9, offset: 0x62EA9, size: 0x8, addend: 0x0, symName: __ZNKSt3__122__compressed_pair_elemIPNS_12basic_stringIcNS_11char_traitsIcEENS_9allocatorIcEEEELi0ELb0EE5__getB7v160006Ev, symObjAddr: 0x8FA0, symBinAddr: 0x10000B128, symSize: 0x14 }
  - { offsetInCU: 0x62EEB, offset: 0x62EEB, size: 0x8, addend: 0x0, symName: __ZNSt3__16vectorINS_12basic_stringIcNS_11char_traitsIcEENS_9allocatorIcEEEENS4_IS6_EEE21_ConstructTransactionC1B7v160006ERS8_m, symObjAddr: 0x8FB4, symBinAddr: 0x10000B13C, symSize: 0x3C }
  - { offsetInCU: 0x62F33, offset: 0x62F33, size: 0x8, addend: 0x0, symName: __ZNSt3__16vectorINS_12basic_stringIcNS_11char_traitsIcEENS_9allocatorIcEEEENS4_IS6_EEE21_ConstructTransactionD1B7v160006Ev, symObjAddr: 0x90E4, symBinAddr: 0x10000B26C, symSize: 0x2C }
  - { offsetInCU: 0x62F5D, offset: 0x62F5D, size: 0x8, addend: 0x0, symName: __ZNSt3__16vectorINS_12basic_stringIcNS_11char_traitsIcEENS_9allocatorIcEEEENS4_IS6_EEE21_ConstructTransactionC2B7v160006ERS8_m, symObjAddr: 0x9110, symBinAddr: 0x10000B298, symSize: 0x4C }
  - { offsetInCU: 0x62FA5, offset: 0x62FA5, size: 0x8, addend: 0x0, symName: __ZNSt3__129_AllocatorDestroyRangeReverseINS_9allocatorINS_12basic_stringIcNS_11char_traitsIcEENS1_IcEEEEEEPS6_EC1B7v160006ERS7_RS8_SB_, symObjAddr: 0x91A8, symBinAddr: 0x10000B330, symSize: 0x44 }
  - { offsetInCU: 0x62FFC, offset: 0x62FFC, size: 0x8, addend: 0x0, symName: __ZNSt3__116allocator_traitsINS_9allocatorINS_12basic_stringIcNS_11char_traitsIcEENS1_IcEEEEEEE9constructB7v160006IS6_JRKS6_EvvEEvRS7_PT_DpOT0_, symObjAddr: 0x91EC, symBinAddr: 0x10000B374, symSize: 0x30 }
  - { offsetInCU: 0x63051, offset: 0x63051, size: 0x8, addend: 0x0, symName: __ZNSt3__128__exception_guard_exceptionsINS_29_AllocatorDestroyRangeReverseINS_9allocatorINS_12basic_stringIcNS_11char_traitsIcEENS2_IcEEEEEEPS7_EEE10__completeB7v160006Ev, symObjAddr: 0x921C, symBinAddr: 0x10000B3A4, symSize: 0x1C }
  - { offsetInCU: 0x63077, offset: 0x63077, size: 0x8, addend: 0x0, symName: __ZNSt3__128__exception_guard_exceptionsINS_29_AllocatorDestroyRangeReverseINS_9allocatorINS_12basic_stringIcNS_11char_traitsIcEENS2_IcEEEEEEPS7_EEED1B7v160006Ev, symObjAddr: 0x9238, symBinAddr: 0x10000B3C0, symSize: 0x2C }
  - { offsetInCU: 0x630A1, offset: 0x630A1, size: 0x8, addend: 0x0, symName: __ZNSt3__128__exception_guard_exceptionsINS_29_AllocatorDestroyRangeReverseINS_9allocatorINS_12basic_stringIcNS_11char_traitsIcEENS2_IcEEEEEEPS7_EEEC1B7v160006ESA_, symObjAddr: 0x9264, symBinAddr: 0x10000B3EC, symSize: 0x34 }
  - { offsetInCU: 0x630DA, offset: 0x630DA, size: 0x8, addend: 0x0, symName: __ZNSt3__128__exception_guard_exceptionsINS_29_AllocatorDestroyRangeReverseINS_9allocatorINS_12basic_stringIcNS_11char_traitsIcEENS2_IcEEEEEEPS7_EEEC2B7v160006ESA_, symObjAddr: 0x9298, symBinAddr: 0x10000B420, symSize: 0x30 }
  - { offsetInCU: 0x63113, offset: 0x63113, size: 0x8, addend: 0x0, symName: __ZNSt3__129_AllocatorDestroyRangeReverseINS_9allocatorINS_12basic_stringIcNS_11char_traitsIcEENS1_IcEEEEEEPS6_EC2B7v160006ERS7_RS8_SB_, symObjAddr: 0x92C8, symBinAddr: 0x10000B450, symSize: 0x38 }
  - { offsetInCU: 0x6316A, offset: 0x6316A, size: 0x8, addend: 0x0, symName: __ZNSt3__128__exception_guard_exceptionsINS_29_AllocatorDestroyRangeReverseINS_9allocatorINS_12basic_stringIcNS_11char_traitsIcEENS2_IcEEEEEEPS7_EEED2B7v160006Ev, symObjAddr: 0x933C, symBinAddr: 0x10000B4C4, symSize: 0x50 }
  - { offsetInCU: 0x63194, offset: 0x63194, size: 0x8, addend: 0x0, symName: __ZNKSt3__129_AllocatorDestroyRangeReverseINS_9allocatorINS_12basic_stringIcNS_11char_traitsIcEENS1_IcEEEEEEPS6_EclB7v160006Ev, symObjAddr: 0x938C, symBinAddr: 0x10000B514, symSize: 0x68 }
  - { offsetInCU: 0x631BA, offset: 0x631BA, size: 0x8, addend: 0x0, symName: __ZNSt3__116reverse_iteratorIPNS_12basic_stringIcNS_11char_traitsIcEENS_9allocatorIcEEEEEC1B7v160006ES7_, symObjAddr: 0x9464, symBinAddr: 0x10000B5EC, symSize: 0x34 }
  - { offsetInCU: 0x631F2, offset: 0x631F2, size: 0x8, addend: 0x0, symName: __ZNSt3__116allocator_traitsINS_9allocatorINS_12basic_stringIcNS_11char_traitsIcEENS1_IcEEEEEEE7destroyB7v160006IS6_vvEEvRS7_PT_, symObjAddr: 0x94E0, symBinAddr: 0x10000B668, symSize: 0x28 }
  - { offsetInCU: 0x6322D, offset: 0x6322D, size: 0x8, addend: 0x0, symName: __ZNSt3__116reverse_iteratorIPNS_12basic_stringIcNS_11char_traitsIcEENS_9allocatorIcEEEEEppB7v160006Ev, symObjAddr: 0x952C, symBinAddr: 0x10000B6B4, symSize: 0x20 }
  - { offsetInCU: 0x63253, offset: 0x63253, size: 0x8, addend: 0x0, symName: __ZNKSt3__116reverse_iteratorIPNS_12basic_stringIcNS_11char_traitsIcEENS_9allocatorIcEEEEE4baseB7v160006Ev, symObjAddr: 0x954C, symBinAddr: 0x10000B6D4, symSize: 0x18 }
  - { offsetInCU: 0x6327F, offset: 0x6327F, size: 0x8, addend: 0x0, symName: __ZNSt3__119__to_address_helperINS_16reverse_iteratorIPNS_12basic_stringIcNS_11char_traitsIcEENS_9allocatorIcEEEEEEvE6__callB7v160006ERKS9_, symObjAddr: 0x95AC, symBinAddr: 0x10000B734, symSize: 0x38 }
  - { offsetInCU: 0x632A2, offset: 0x632A2, size: 0x8, addend: 0x0, symName: __ZNKSt3__116reverse_iteratorIPNS_12basic_stringIcNS_11char_traitsIcEENS_9allocatorIcEEEEEptB7v160006Ev, symObjAddr: 0x95E4, symBinAddr: 0x10000B76C, symSize: 0x2C }
  - { offsetInCU: 0x632C8, offset: 0x632C8, size: 0x8, addend: 0x0, symName: __ZNSt3__116reverse_iteratorIPNS_12basic_stringIcNS_11char_traitsIcEENS_9allocatorIcEEEEEC2B7v160006ES7_, symObjAddr: 0x96F4, symBinAddr: 0x10000B87C, symSize: 0x28 }
  - { offsetInCU: 0x63300, offset: 0x63300, size: 0x8, addend: 0x0, symName: __ZNSt3__16vectorINS_12basic_stringIcNS_11char_traitsIcEENS_9allocatorIcEEEENS4_IS6_EEE21_ConstructTransactionD2B7v160006Ev, symObjAddr: 0x971C, symBinAddr: 0x10000B8A4, symSize: 0x20 }
  - { offsetInCU: 0x6332A, offset: 0x6332A, size: 0x8, addend: 0x0, symName: __ZNSt3__128__exception_guard_exceptionsINS_6vectorINS_12basic_stringIcNS_11char_traitsIcEENS_9allocatorIcEEEENS5_IS7_EEE16__destroy_vectorEED2B7v160006Ev, symObjAddr: 0x973C, symBinAddr: 0x10000B8C4, symSize: 0x50 }
  - { offsetInCU: 0x63354, offset: 0x63354, size: 0x8, addend: 0x0, symName: __ZNSt3__16vectorINS_12basic_stringIcNS_11char_traitsIcEENS_9allocatorIcEEEENS4_IS6_EEE16__destroy_vectorclB7v160006Ev, symObjAddr: 0x978C, symBinAddr: 0x10000B914, symSize: 0x9C }
  - { offsetInCU: 0x6337A, offset: 0x6337A, size: 0x8, addend: 0x0, symName: __ZNKSt3__16vectorINS_12basic_stringIcNS_11char_traitsIcEENS_9allocatorIcEEEENS4_IS6_EEE17__annotate_deleteB7v160006Ev, symObjAddr: 0x9828, symBinAddr: 0x10000B9B0, symSize: 0xD4 }
  - { offsetInCU: 0x633A0, offset: 0x633A0, size: 0x8, addend: 0x0, symName: __ZNSt3__16vectorINS_12basic_stringIcNS_11char_traitsIcEENS_9allocatorIcEEEENS4_IS6_EEE7__clearB7v160006Ev, symObjAddr: 0x990C, symBinAddr: 0x10000BA94, symSize: 0x28 }
  - { offsetInCU: 0x633C6, offset: 0x633C6, size: 0x8, addend: 0x0, symName: __ZNSt3__116allocator_traitsINS_9allocatorINS_12basic_stringIcNS_11char_traitsIcEENS1_IcEEEEEEE10deallocateB7v160006ERS7_PS6_m, symObjAddr: 0x9934, symBinAddr: 0x10000BABC, symSize: 0x34 }
  - { offsetInCU: 0x63408, offset: 0x63408, size: 0x8, addend: 0x0, symName: __ZNKSt3__16vectorINS_12basic_stringIcNS_11char_traitsIcEENS_9allocatorIcEEEENS4_IS6_EEE4sizeB7v160006Ev, symObjAddr: 0x9968, symBinAddr: 0x10000BAF0, symSize: 0x28 }
  - { offsetInCU: 0x6342E, offset: 0x6342E, size: 0x8, addend: 0x0, symName: __ZNSt3__16vectorINS_12basic_stringIcNS_11char_traitsIcEENS_9allocatorIcEEEENS4_IS6_EEE22__base_destruct_at_endB7v160006EPS6_, symObjAddr: 0x9990, symBinAddr: 0x10000BB18, symSize: 0x8C }
  - { offsetInCU: 0x63472, offset: 0x63472, size: 0x8, addend: 0x0, symName: __ZNSt3__19allocatorINS_12basic_stringIcNS_11char_traitsIcEENS0_IcEEEEE10deallocateB7v160006EPS5_m, symObjAddr: 0x9A1C, symBinAddr: 0x10000BBA4, symSize: 0x44 }
  - { offsetInCU: 0x634B4, offset: 0x634B4, size: 0x8, addend: 0x0, symName: __ZNSt3__16vectorINS_12basic_stringIcNS_11char_traitsIcEENS_9allocatorIcEEEENS4_IS6_EEED2B7v160006Ev, symObjAddr: 0x9B68, symBinAddr: 0x10000BCF0, symSize: 0x44 }
  - { offsetInCU: 0x634DE, offset: 0x634DE, size: 0x8, addend: 0x0, symName: __ZNSt3__14pairIKNS_12basic_stringIcNS_11char_traitsIcEENS_9allocatorIcEEEENS_6vectorIS6_NS4_IS6_EEEEEC2B7v160006IRA4_KcRSA_LPv0EEEOT_OT0_, symObjAddr: 0x9BAC, symBinAddr: 0x10000BD34, symSize: 0x70 }
  - { offsetInCU: 0x6353C, offset: 0x6353C, size: 0x8, addend: 0x0, symName: __ZNSt3__14pairIKNS_12basic_stringIcNS_11char_traitsIcEENS_9allocatorIcEEEENS_6vectorIS6_NS4_IS6_EEEEEC2B7v160006IRA7_KcRSA_LPv0EEEOT_OT0_, symObjAddr: 0x9C1C, symBinAddr: 0x10000BDA4, symSize: 0x70 }
  - { offsetInCU: 0x6359A, offset: 0x6359A, size: 0x8, addend: 0x0, symName: __ZNSt3__14pairIKNS_12basic_stringIcNS_11char_traitsIcEENS_9allocatorIcEEEENS_6vectorIS6_NS4_IS6_EEEEEC2B7v160006IRA9_KcRSA_LPv0EEEOT_OT0_, symObjAddr: 0x9C8C, symBinAddr: 0x10000BE14, symSize: 0x70 }
  - { offsetInCU: 0x635F8, offset: 0x635F8, size: 0x8, addend: 0x0, symName: __ZNSt3__14pairIKNS_12basic_stringIcNS_11char_traitsIcEENS_9allocatorIcEEEENS_6vectorIS6_NS4_IS6_EEEEED2Ev, symObjAddr: 0x9CFC, symBinAddr: 0x10000BE84, symSize: 0x38 }
  - { offsetInCU: 0x63624, offset: 0x63624, size: 0x8, addend: 0x0, symName: __ZNSt3__14pairIKNS_12basic_stringIcNS_11char_traitsIcEENS_9allocatorIcEEEEbEC2B7v160006IRA7_KcbLPv0EEEOT_OT0_, symObjAddr: 0x9D34, symBinAddr: 0x10000BEBC, symSize: 0x48 }
  - { offsetInCU: 0x63682, offset: 0x63682, size: 0x8, addend: 0x0, symName: __ZNKSt3__112basic_stringIcNS_11char_traitsIcEENS_9allocatorIcEEE4sizeB7v160006Ev, symObjAddr: 0x9D7C, symBinAddr: 0x10000BF04, symSize: 0x54 }
  - { offsetInCU: 0x636A8, offset: 0x636A8, size: 0x8, addend: 0x0, symName: __ZNKSt3__112basic_stringIcNS_11char_traitsIcEENS_9allocatorIcEEE9__is_longB7v160006Ev, symObjAddr: 0x9DD0, symBinAddr: 0x10000BF58, symSize: 0x38 }
  - { offsetInCU: 0x636CE, offset: 0x636CE, size: 0x8, addend: 0x0, symName: __ZNKSt3__112basic_stringIcNS_11char_traitsIcEENS_9allocatorIcEEE15__get_long_sizeB7v160006Ev, symObjAddr: 0x9E08, symBinAddr: 0x10000BF90, symSize: 0x28 }
  - { offsetInCU: 0x636F4, offset: 0x636F4, size: 0x8, addend: 0x0, symName: __ZNKSt3__112basic_stringIcNS_11char_traitsIcEENS_9allocatorIcEEE16__get_short_sizeB7v160006Ev, symObjAddr: 0x9E30, symBinAddr: 0x10000BFB8, symSize: 0x34 }
  - { offsetInCU: 0x6371A, offset: 0x6371A, size: 0x8, addend: 0x0, symName: __ZNKSt3__117__compressed_pairINS_12basic_stringIcNS_11char_traitsIcEENS_9allocatorIcEEE5__repES5_E5firstB7v160006Ev, symObjAddr: 0x9E64, symBinAddr: 0x10000BFEC, symSize: 0x24 }
  - { offsetInCU: 0x63740, offset: 0x63740, size: 0x8, addend: 0x0, symName: __ZNKSt3__122__compressed_pair_elemINS_12basic_stringIcNS_11char_traitsIcEENS_9allocatorIcEEE5__repELi0ELb0EE5__getB7v160006Ev, symObjAddr: 0x9E88, symBinAddr: 0x10000C010, symSize: 0x14 }
  - { offsetInCU: 0x63766, offset: 0x63766, size: 0x8, addend: 0x0, symName: __ZNSt3__112basic_stringIcNS_11char_traitsIcEENS_9allocatorIcEEE13__get_pointerB7v160006Ev, symObjAddr: 0x9E9C, symBinAddr: 0x10000C024, symSize: 0x54 }
  - { offsetInCU: 0x6378C, offset: 0x6378C, size: 0x8, addend: 0x0, symName: __ZNSt3__112basic_stringIcNS_11char_traitsIcEENS_9allocatorIcEEE18__get_long_pointerB7v160006Ev, symObjAddr: 0x9EF0, symBinAddr: 0x10000C078, symSize: 0x28 }
  - { offsetInCU: 0x637B2, offset: 0x637B2, size: 0x8, addend: 0x0, symName: __ZNSt3__112basic_stringIcNS_11char_traitsIcEENS_9allocatorIcEEE19__get_short_pointerB7v160006Ev, symObjAddr: 0x9F18, symBinAddr: 0x10000C0A0, symSize: 0x28 }
  - { offsetInCU: 0x637D8, offset: 0x637D8, size: 0x8, addend: 0x0, symName: __ZNSt3__117__compressed_pairINS_12basic_stringIcNS_11char_traitsIcEENS_9allocatorIcEEE5__repES5_E5firstB7v160006Ev, symObjAddr: 0x9F40, symBinAddr: 0x10000C0C8, symSize: 0x24 }
  - { offsetInCU: 0x637FE, offset: 0x637FE, size: 0x8, addend: 0x0, symName: __ZNSt3__122__compressed_pair_elemINS_12basic_stringIcNS_11char_traitsIcEENS_9allocatorIcEEE5__repELi0ELb0EE5__getB7v160006Ev, symObjAddr: 0x9F64, symBinAddr: 0x10000C0EC, symSize: 0x14 }
  - { offsetInCU: 0x63824, offset: 0x63824, size: 0x8, addend: 0x0, symName: __ZNSt3__114pointer_traitsIPcE10pointer_toB7v160006ERc, symObjAddr: 0x9F78, symBinAddr: 0x10000C100, symSize: 0x14 }
  - { offsetInCU: 0x63847, offset: 0x63847, size: 0x8, addend: 0x0, symName: __ZNSt3__112basic_stringIcNS_11char_traitsIcEENS_9allocatorIcEEE14__erase_to_endB7v160006Em, symObjAddr: 0x9F8C, symBinAddr: 0x10000C114, symSize: 0x40 }
  - { offsetInCU: 0x6387C, offset: 0x6387C, size: 0x8, addend: 0x0, symName: __ZNSt3__112basic_stringIcNS_11char_traitsIcEENS_9allocatorIcEEE19__null_terminate_atB7v160006EPcm, symObjAddr: 0x9FCC, symBinAddr: 0x10000C154, symSize: 0x5C }
  - { offsetInCU: 0x638C0, offset: 0x638C0, size: 0x8, addend: 0x0, symName: __ZNSt3__112basic_stringIcNS_11char_traitsIcEENS_9allocatorIcEEE10__set_sizeB7v160006Em, symObjAddr: 0xA03C, symBinAddr: 0x10000C1C4, symSize: 0x54 }
  - { offsetInCU: 0x638F5, offset: 0x638F5, size: 0x8, addend: 0x0, symName: __ZNSt3__112basic_stringIcNS_11char_traitsIcEENS_9allocatorIcEEE27__invalidate_iterators_pastB7v160006Em, symObjAddr: 0xA090, symBinAddr: 0x10000C218, symSize: 0x14 }
  - { offsetInCU: 0x6392C, offset: 0x6392C, size: 0x8, addend: 0x0, symName: __ZNSt3__111char_traitsIcE6assignERcRKc, symObjAddr: 0xA0A4, symBinAddr: 0x10000C22C, symSize: 0x24 }
  - { offsetInCU: 0x6395D, offset: 0x6395D, size: 0x8, addend: 0x0, symName: __ZNSt3__112basic_stringIcNS_11char_traitsIcEENS_9allocatorIcEEE15__set_long_sizeB7v160006Em, symObjAddr: 0xA0C8, symBinAddr: 0x10000C250, symSize: 0x38 }
  - { offsetInCU: 0x63992, offset: 0x63992, size: 0x8, addend: 0x0, symName: __ZNSt3__112basic_stringIcNS_11char_traitsIcEENS_9allocatorIcEEE16__set_short_sizeB7v160006Em, symObjAddr: 0xA100, symBinAddr: 0x10000C288, symSize: 0x78 }
  - { offsetInCU: 0x639C7, offset: 0x639C7, size: 0x8, addend: 0x0, symName: __ZNSt3__16vectorIiNS_9allocatorIiEEE9__end_capB7v160006Ev, symObjAddr: 0xA178, symBinAddr: 0x10000C300, symSize: 0x28 }
  - { offsetInCU: 0x639ED, offset: 0x639ED, size: 0x8, addend: 0x0, symName: __ZNSt3__16vectorIiNS_9allocatorIiEEE22__construct_one_at_endB7v160006IJRKiEEEvDpOT_, symObjAddr: 0xA1A0, symBinAddr: 0x10000C328, symSize: 0x90 }
  - { offsetInCU: 0x63A3C, offset: 0x63A3C, size: 0x8, addend: 0x0, symName: __ZNSt3__16vectorIiNS_9allocatorIiEEE21__push_back_slow_pathIRKiEEvOT_, symObjAddr: 0xA230, symBinAddr: 0x10000C3B8, symSize: 0xD8 }
  - { offsetInCU: 0x63A9A, offset: 0x63A9A, size: 0x8, addend: 0x0, symName: __ZNSt3__117__compressed_pairIPiNS_9allocatorIiEEE5firstB7v160006Ev, symObjAddr: 0xA308, symBinAddr: 0x10000C490, symSize: 0x24 }
  - { offsetInCU: 0x63AC0, offset: 0x63AC0, size: 0x8, addend: 0x0, symName: __ZNSt3__122__compressed_pair_elemIPiLi0ELb0EE5__getB7v160006Ev, symObjAddr: 0xA32C, symBinAddr: 0x10000C4B4, symSize: 0x14 }
  - { offsetInCU: 0x63B02, offset: 0x63B02, size: 0x8, addend: 0x0, symName: __ZNSt3__16vectorIiNS_9allocatorIiEEE21_ConstructTransactionC1B7v160006ERS3_m, symObjAddr: 0xA340, symBinAddr: 0x10000C4C8, symSize: 0x3C }
  - { offsetInCU: 0x63B4A, offset: 0x63B4A, size: 0x8, addend: 0x0, symName: __ZNSt3__116allocator_traitsINS_9allocatorIiEEE9constructB7v160006IiJRKiEvvEEvRS2_PT_DpOT0_, symObjAddr: 0xA37C, symBinAddr: 0x10000C504, symSize: 0x30 }
  - { offsetInCU: 0x63B9F, offset: 0x63B9F, size: 0x8, addend: 0x0, symName: __ZNSt3__16vectorIiNS_9allocatorIiEEE7__allocB7v160006Ev, symObjAddr: 0xA3AC, symBinAddr: 0x10000C534, symSize: 0x28 }
  - { offsetInCU: 0x63BC5, offset: 0x63BC5, size: 0x8, addend: 0x0, symName: __ZNSt3__16vectorIiNS_9allocatorIiEEE21_ConstructTransactionD1B7v160006Ev, symObjAddr: 0xA3E8, symBinAddr: 0x10000C570, symSize: 0x2C }
  - { offsetInCU: 0x63BEF, offset: 0x63BEF, size: 0x8, addend: 0x0, symName: __ZNSt3__16vectorIiNS_9allocatorIiEEE21_ConstructTransactionC2B7v160006ERS3_m, symObjAddr: 0xA414, symBinAddr: 0x10000C59C, symSize: 0x44 }
  - { offsetInCU: 0x63C37, offset: 0x63C37, size: 0x8, addend: 0x0, symName: __ZNSt3__117__compressed_pairIPiNS_9allocatorIiEEE6secondB7v160006Ev, symObjAddr: 0xA484, symBinAddr: 0x10000C60C, symSize: 0x24 }
  - { offsetInCU: 0x63C5D, offset: 0x63C5D, size: 0x8, addend: 0x0, symName: __ZNSt3__122__compressed_pair_elemINS_9allocatorIiEELi1ELb1EE5__getB7v160006Ev, symObjAddr: 0xA4A8, symBinAddr: 0x10000C630, symSize: 0x14 }
  - { offsetInCU: 0x63C83, offset: 0x63C83, size: 0x8, addend: 0x0, symName: __ZNSt3__16vectorIiNS_9allocatorIiEEE21_ConstructTransactionD2B7v160006Ev, symObjAddr: 0xA4BC, symBinAddr: 0x10000C644, symSize: 0x20 }
  - { offsetInCU: 0x63CAD, offset: 0x63CAD, size: 0x8, addend: 0x0, symName: __ZNKSt3__16vectorIiNS_9allocatorIiEEE11__recommendB7v160006Em, symObjAddr: 0xA4DC, symBinAddr: 0x10000C664, symSize: 0xB4 }
  - { offsetInCU: 0x63D02, offset: 0x63D02, size: 0x8, addend: 0x0, symName: __ZNSt3__114__split_bufferIiRNS_9allocatorIiEEEC1EmmS3_, symObjAddr: 0xA590, symBinAddr: 0x10000C718, symSize: 0x44 }
  - { offsetInCU: 0x63D58, offset: 0x63D58, size: 0x8, addend: 0x0, symName: __ZNSt3__114__split_bufferIiRNS_9allocatorIiEEED1Ev, symObjAddr: 0xA6EC, symBinAddr: 0x10000C874, symSize: 0x2C }
  - { offsetInCU: 0x63D84, offset: 0x63D84, size: 0x8, addend: 0x0, symName: __ZNKSt3__16vectorIiNS_9allocatorIiEEE8max_sizeEv, symObjAddr: 0xA718, symBinAddr: 0x10000C8A0, symSize: 0x60 }
  - { offsetInCU: 0x63DAC, offset: 0x63DAC, size: 0x8, addend: 0x0, symName: __ZNKSt3__16vectorIiNS_9allocatorIiEEE20__throw_length_errorB7v160006Ev, symObjAddr: 0xA778, symBinAddr: 0x10000C900, symSize: 0x1C }
  - { offsetInCU: 0x63DD2, offset: 0x63DD2, size: 0x8, addend: 0x0, symName: __ZNKSt3__16vectorIiNS_9allocatorIiEEE8capacityB7v160006Ev, symObjAddr: 0xA794, symBinAddr: 0x10000C91C, symSize: 0x40 }
  - { offsetInCU: 0x63E03, offset: 0x63E03, size: 0x8, addend: 0x0, symName: __ZNSt3__116allocator_traitsINS_9allocatorIiEEE8max_sizeB7v160006IS2_vvEEmRKS2_, symObjAddr: 0xA800, symBinAddr: 0x10000C988, symSize: 0x28 }
  - { offsetInCU: 0x63E2F, offset: 0x63E2F, size: 0x8, addend: 0x0, symName: __ZNKSt3__16vectorIiNS_9allocatorIiEEE7__allocB7v160006Ev, symObjAddr: 0xA828, symBinAddr: 0x10000C9B0, symSize: 0x28 }
  - { offsetInCU: 0x63E55, offset: 0x63E55, size: 0x8, addend: 0x0, symName: __ZNKSt3__117__compressed_pairIPiNS_9allocatorIiEEE6secondB7v160006Ev, symObjAddr: 0xA850, symBinAddr: 0x10000C9D8, symSize: 0x24 }
  - { offsetInCU: 0x63E7B, offset: 0x63E7B, size: 0x8, addend: 0x0, symName: __ZNKSt3__122__compressed_pair_elemINS_9allocatorIiEELi1ELb1EE5__getB7v160006Ev, symObjAddr: 0xA874, symBinAddr: 0x10000C9FC, symSize: 0x14 }
  - { offsetInCU: 0x63EA1, offset: 0x63EA1, size: 0x8, addend: 0x0, symName: __ZNKSt3__16vectorIiNS_9allocatorIiEEE9__end_capB7v160006Ev, symObjAddr: 0xA888, symBinAddr: 0x10000CA10, symSize: 0x28 }
  - { offsetInCU: 0x63EC7, offset: 0x63EC7, size: 0x8, addend: 0x0, symName: __ZNKSt3__117__compressed_pairIPiNS_9allocatorIiEEE5firstB7v160006Ev, symObjAddr: 0xA8B0, symBinAddr: 0x10000CA38, symSize: 0x24 }
  - { offsetInCU: 0x63EED, offset: 0x63EED, size: 0x8, addend: 0x0, symName: __ZNKSt3__122__compressed_pair_elemIPiLi0ELb0EE5__getB7v160006Ev, symObjAddr: 0xA8D4, symBinAddr: 0x10000CA5C, symSize: 0x14 }
  - { offsetInCU: 0x63F13, offset: 0x63F13, size: 0x8, addend: 0x0, symName: __ZNSt3__114__split_bufferIiRNS_9allocatorIiEEEC2EmmS3_, symObjAddr: 0xA93C, symBinAddr: 0x10000CAC4, symSize: 0xD4 }
  - { offsetInCU: 0x63F86, offset: 0x63F86, size: 0x8, addend: 0x0, symName: __ZNSt3__117__compressed_pairIPiRNS_9allocatorIiEEEC1B7v160006IDnS4_EEOT_OT0_, symObjAddr: 0xAA10, symBinAddr: 0x10000CB98, symSize: 0x3C }
  - { offsetInCU: 0x63FDE, offset: 0x63FDE, size: 0x8, addend: 0x0, symName: __ZNSt3__114__split_bufferIiRNS_9allocatorIiEEE7__allocB7v160006Ev, symObjAddr: 0xAA8C, symBinAddr: 0x10000CC14, symSize: 0x28 }
  - { offsetInCU: 0x64004, offset: 0x64004, size: 0x8, addend: 0x0, symName: __ZNSt3__114__split_bufferIiRNS_9allocatorIiEEE9__end_capB7v160006Ev, symObjAddr: 0xAAB4, symBinAddr: 0x10000CC3C, symSize: 0x28 }
  - { offsetInCU: 0x6402A, offset: 0x6402A, size: 0x8, addend: 0x0, symName: __ZNSt3__117__compressed_pairIPiRNS_9allocatorIiEEEC2B7v160006IDnS4_EEOT_OT0_, symObjAddr: 0xAADC, symBinAddr: 0x10000CC64, symSize: 0x48 }
  - { offsetInCU: 0x64082, offset: 0x64082, size: 0x8, addend: 0x0, symName: __ZNSt3__122__compressed_pair_elemIPiLi0ELb0EEC2B7v160006IDnvEEOT_, symObjAddr: 0xAB24, symBinAddr: 0x10000CCAC, symSize: 0x1C }
  - { offsetInCU: 0x640C4, offset: 0x640C4, size: 0x8, addend: 0x0, symName: __ZNSt3__122__compressed_pair_elemIRNS_9allocatorIiEELi1ELb0EEC2B7v160006IS3_vEEOT_, symObjAddr: 0xAB40, symBinAddr: 0x10000CCC8, symSize: 0x20 }
  - { offsetInCU: 0x64106, offset: 0x64106, size: 0x8, addend: 0x0, symName: __ZNSt3__19allocatorIiE8allocateB7v160006Em, symObjAddr: 0xAB60, symBinAddr: 0x10000CCE8, symSize: 0x58 }
  - { offsetInCU: 0x6413A, offset: 0x6413A, size: 0x8, addend: 0x0, symName: __ZNSt3__117__compressed_pairIPiRNS_9allocatorIiEEE6secondB7v160006Ev, symObjAddr: 0xABB8, symBinAddr: 0x10000CD40, symSize: 0x28 }
  - { offsetInCU: 0x64160, offset: 0x64160, size: 0x8, addend: 0x0, symName: __ZNSt3__122__compressed_pair_elemIRNS_9allocatorIiEELi1ELb0EE5__getB7v160006Ev, symObjAddr: 0xABE0, symBinAddr: 0x10000CD68, symSize: 0x18 }
  - { offsetInCU: 0x64186, offset: 0x64186, size: 0x8, addend: 0x0, symName: __ZNSt3__117__compressed_pairIPiRNS_9allocatorIiEEE5firstB7v160006Ev, symObjAddr: 0xABF8, symBinAddr: 0x10000CD80, symSize: 0x24 }
  - { offsetInCU: 0x641AC, offset: 0x641AC, size: 0x8, addend: 0x0, symName: __ZNKSt3__16vectorIiNS_9allocatorIiEEE17__annotate_deleteB7v160006Ev, symObjAddr: 0xAC1C, symBinAddr: 0x10000CDA4, symSize: 0xB8 }
  - { offsetInCU: 0x641D2, offset: 0x641D2, size: 0x8, addend: 0x0, symName: __ZNSt3__116reverse_iteratorIPiEC1B7v160006ES1_, symObjAddr: 0xAD4C, symBinAddr: 0x10000CED4, symSize: 0x34 }
  - { offsetInCU: 0x6420A, offset: 0x6420A, size: 0x8, addend: 0x0, symName: __ZNKSt3__116reverse_iteratorIPiE4baseB7v160006Ev, symObjAddr: 0xAD80, symBinAddr: 0x10000CF08, symSize: 0x18 }
  - { offsetInCU: 0x64230, offset: 0x64230, size: 0x8, addend: 0x0, symName: __ZNKSt3__16vectorIiNS_9allocatorIiEEE14__annotate_newB7v160006Em, symObjAddr: 0xADD4, symBinAddr: 0x10000CF5C, symSize: 0xAC }
  - { offsetInCU: 0x64265, offset: 0x64265, size: 0x8, addend: 0x0, symName: __ZNKSt3__16vectorIiNS_9allocatorIiEEE31__annotate_contiguous_containerB7v160006EPKvS5_S5_S5_, symObjAddr: 0xAE90, symBinAddr: 0x10000D018, symSize: 0x20 }
  - { offsetInCU: 0x642BB, offset: 0x642BB, size: 0x8, addend: 0x0, symName: __ZNKSt3__16vectorIiNS_9allocatorIiEEE4dataB7v160006Ev, symObjAddr: 0xAEB0, symBinAddr: 0x10000D038, symSize: 0x28 }
  - { offsetInCU: 0x64309, offset: 0x64309, size: 0x8, addend: 0x0, symName: __ZNKSt3__111__move_loopINS_17_ClassicAlgPolicyEEclB7v160006INS_16reverse_iteratorIPiEES6_S6_EENS_4pairIT_T1_EES8_T0_S9_, symObjAddr: 0xB190, symBinAddr: 0x10000D318, symSize: 0xA0 }
  - { offsetInCU: 0x64374, offset: 0x64374, size: 0x8, addend: 0x0, symName: __ZNSt3__119__unwrap_range_implINS_16reverse_iteratorIPiEES3_E8__unwrapB7v160006ES3_S3_, symObjAddr: 0xB37C, symBinAddr: 0x10000D504, symSize: 0x84 }
  - { offsetInCU: 0x643AB, offset: 0x643AB, size: 0x8, addend: 0x0, symName: __ZNSt3__14pairINS_16reverse_iteratorIPiEES3_EC1B7v160006IS3_S3_LPv0EEEOT_OT0_, symObjAddr: 0xB400, symBinAddr: 0x10000D588, symSize: 0x3C }
  - { offsetInCU: 0x64409, offset: 0x64409, size: 0x8, addend: 0x0, symName: __ZNSt3__14pairINS_16reverse_iteratorIPiEES3_EC2B7v160006IS3_S3_LPv0EEEOT_OT0_, symObjAddr: 0xB43C, symBinAddr: 0x10000D5C4, symSize: 0x34 }
  - { offsetInCU: 0x64467, offset: 0x64467, size: 0x8, addend: 0x0, symName: __ZNSt3__18_IterOpsINS_17_ClassicAlgPolicyEE11__iter_moveB7v160006IRNS_16reverse_iteratorIPiEEEENS_9enable_ifIXsr12is_referenceIDTdeclsr3stdE7declvalIRT_EEEEE5valueEDTclsr3stdE4movedeclsr3stdE7declvalISA_EEEEE4typeEOS9_, symObjAddr: 0xB4B8, symBinAddr: 0x10000D640, symSize: 0x28 }
  - { offsetInCU: 0x64493, offset: 0x64493, size: 0x8, addend: 0x0, symName: __ZNKSt3__116reverse_iteratorIPiEdeB7v160006Ev, symObjAddr: 0xB4E0, symBinAddr: 0x10000D668, symSize: 0x28 }
  - { offsetInCU: 0x644C7, offset: 0x644C7, size: 0x8, addend: 0x0, symName: __ZNSt3__116reverse_iteratorIPiEppB7v160006Ev, symObjAddr: 0xB508, symBinAddr: 0x10000D690, symSize: 0x20 }
  - { offsetInCU: 0x644ED, offset: 0x644ED, size: 0x8, addend: 0x0, symName: __ZNSt3__18_IterOpsINS_17_ClassicAlgPolicyEE25__validate_iter_referenceB7v160006IRNS_16reverse_iteratorIPiEEEEvv, symObjAddr: 0xB528, symBinAddr: 0x10000D6B0, symSize: 0x4 }
  - { offsetInCU: 0x6450B, offset: 0x6450B, size: 0x8, addend: 0x0, symName: __ZNSt3__118__unwrap_iter_implINS_16reverse_iteratorIPiEELb0EE8__unwrapB7v160006ES3_, symObjAddr: 0xB52C, symBinAddr: 0x10000D6B4, symSize: 0x24 }
  - { offsetInCU: 0x6452E, offset: 0x6452E, size: 0x8, addend: 0x0, symName: __ZNSt3__119__unwrap_range_implINS_16reverse_iteratorIPiEES3_E8__rewrapB7v160006ES3_S3_, symObjAddr: 0xB550, symBinAddr: 0x10000D6D8, symSize: 0x5C }
  - { offsetInCU: 0x6455F, offset: 0x6455F, size: 0x8, addend: 0x0, symName: __ZNSt3__118__unwrap_iter_implINS_16reverse_iteratorIPiEELb0EE8__rewrapB7v160006ES3_S3_, symObjAddr: 0xB5AC, symBinAddr: 0x10000D734, symSize: 0x2C }
  - { offsetInCU: 0x6458D, offset: 0x6458D, size: 0x8, addend: 0x0, symName: __ZNSt3__116reverse_iteratorIPiEC2B7v160006ES1_, symObjAddr: 0xB5D8, symBinAddr: 0x10000D760, symSize: 0x28 }
  - { offsetInCU: 0x645C5, offset: 0x645C5, size: 0x8, addend: 0x0, symName: __ZNSt3__114__split_bufferIiRNS_9allocatorIiEEED2Ev, symObjAddr: 0xB600, symBinAddr: 0x10000D788, symSize: 0x8C }
  - { offsetInCU: 0x645F1, offset: 0x645F1, size: 0x8, addend: 0x0, symName: __ZNSt3__114__split_bufferIiRNS_9allocatorIiEEE5clearB7v160006Ev, symObjAddr: 0xB68C, symBinAddr: 0x10000D814, symSize: 0x28 }
  - { offsetInCU: 0x64617, offset: 0x64617, size: 0x8, addend: 0x0, symName: __ZNSt3__116allocator_traitsINS_9allocatorIiEEE10deallocateB7v160006ERS2_Pim, symObjAddr: 0xB6B4, symBinAddr: 0x10000D83C, symSize: 0x34 }
  - { offsetInCU: 0x64659, offset: 0x64659, size: 0x8, addend: 0x0, symName: __ZNKSt3__114__split_bufferIiRNS_9allocatorIiEEE8capacityB7v160006Ev, symObjAddr: 0xB6E8, symBinAddr: 0x10000D870, symSize: 0x40 }
  - { offsetInCU: 0x6467F, offset: 0x6467F, size: 0x8, addend: 0x0, symName: __ZNSt3__114__split_bufferIiRNS_9allocatorIiEEE17__destruct_at_endB7v160006EPi, symObjAddr: 0xB728, symBinAddr: 0x10000D8B0, symSize: 0x2C }
  - { offsetInCU: 0x646B3, offset: 0x646B3, size: 0x8, addend: 0x0, symName: __ZNSt3__114__split_bufferIiRNS_9allocatorIiEEE17__destruct_at_endB7v160006EPiNS_17integral_constantIbLb0EEE, symObjAddr: 0xB754, symBinAddr: 0x10000D8DC, symSize: 0x80 }
  - { offsetInCU: 0x646F4, offset: 0x646F4, size: 0x8, addend: 0x0, symName: __ZNSt3__116allocator_traitsINS_9allocatorIiEEE7destroyB7v160006IivvEEvRS2_PT_, symObjAddr: 0xB7D4, symBinAddr: 0x10000D95C, symSize: 0x28 }
  - { offsetInCU: 0x6472F, offset: 0x6472F, size: 0x8, addend: 0x0, symName: __ZNSt3__19allocatorIiE10deallocateB7v160006EPim, symObjAddr: 0xB830, symBinAddr: 0x10000D9B8, symSize: 0x40 }
  - { offsetInCU: 0x64771, offset: 0x64771, size: 0x8, addend: 0x0, symName: __ZNKSt3__114__split_bufferIiRNS_9allocatorIiEEE9__end_capB7v160006Ev, symObjAddr: 0xB870, symBinAddr: 0x10000D9F8, symSize: 0x28 }
  - { offsetInCU: 0x64797, offset: 0x64797, size: 0x8, addend: 0x0, symName: __ZNKSt3__117__compressed_pairIPiRNS_9allocatorIiEEE5firstB7v160006Ev, symObjAddr: 0xB898, symBinAddr: 0x10000DA20, symSize: 0x24 }
  - { offsetInCU: 0x647BD, offset: 0x647BD, size: 0x8, addend: 0x0, symName: __ZNSt3__112basic_stringIcNS_11char_traitsIcEENS_9allocatorIcEEEC2B7v160006Ev, symObjAddr: 0xB8BC, symBinAddr: 0x10000DA44, symSize: 0x50 }
  - { offsetInCU: 0x647E7, offset: 0x647E7, size: 0x8, addend: 0x0, symName: __ZNSt3__112basic_stringIcNS_11char_traitsIcEENS_9allocatorIcEEE14__default_initB7v160006Ev, symObjAddr: 0xB90C, symBinAddr: 0x10000DA94, symSize: 0x40 }
  - { offsetInCU: 0x6480D, offset: 0x6480D, size: 0x8, addend: 0x0, symName: __ZNSt3__16vectorINS_12basic_stringIcNS_11char_traitsIcEENS_9allocatorIcEEEENS4_IS6_EEEC2ERKS8_, symObjAddr: 0xB94C, symBinAddr: 0x10000DAD4, symSize: 0x110 }
  - { offsetInCU: 0x6486C, offset: 0x6486C, size: 0x8, addend: 0x0, symName: __ZNSt3__116allocator_traitsINS_9allocatorINS_12basic_stringIcNS_11char_traitsIcEENS1_IcEEEEEEE37select_on_container_copy_constructionB7v160006IS7_vvEES7_RKS7_, symObjAddr: 0xBA5C, symBinAddr: 0x10000DBE4, symSize: 0x10 }
  - { offsetInCU: 0x648A1, offset: 0x648A1, size: 0x8, addend: 0x0, symName: __ZNSt3__117__compressed_pairIPNS_12basic_stringIcNS_11char_traitsIcEENS_9allocatorIcEEEENS4_IS6_EEEC1B7v160006IDnS8_EEOT_OT0_, symObjAddr: 0xBA6C, symBinAddr: 0x10000DBF4, symSize: 0x3C }
  - { offsetInCU: 0x648F9, offset: 0x648F9, size: 0x8, addend: 0x0, symName: __ZNSt3__16vectorINS_12basic_stringIcNS_11char_traitsIcEENS_9allocatorIcEEEENS4_IS6_EEE18__construct_at_endIPS6_Li0EEEvT_SB_m, symObjAddr: 0xBAA8, symBinAddr: 0x10000DC30, symSize: 0x8C }
  - { offsetInCU: 0x6496C, offset: 0x6496C, size: 0x8, addend: 0x0, symName: __ZNSt3__117__compressed_pairIPNS_12basic_stringIcNS_11char_traitsIcEENS_9allocatorIcEEEENS4_IS6_EEEC2B7v160006IDnS8_EEOT_OT0_, symObjAddr: 0xBB34, symBinAddr: 0x10000DCBC, symSize: 0x44 }
  - { offsetInCU: 0x649C4, offset: 0x649C4, size: 0x8, addend: 0x0, symName: __ZNSt3__122__compressed_pair_elemINS_9allocatorINS_12basic_stringIcNS_11char_traitsIcEENS1_IcEEEEEELi1ELb1EEC2B7v160006IS7_vEEOT_, symObjAddr: 0xBB78, symBinAddr: 0x10000DD00, symSize: 0x18 }
  - { offsetInCU: 0x64A06, offset: 0x64A06, size: 0x8, addend: 0x0, symName: __ZNSt3__116allocator_traitsINS_9allocatorINS_12basic_stringIcNS_11char_traitsIcEENS1_IcEEEEEEE9constructB7v160006IS6_JRS6_EvvEEvRS7_PT_DpOT0_, symObjAddr: 0xBC84, symBinAddr: 0x10000DE0C, symSize: 0x30 }
  - { offsetInCU: 0x64A5B, offset: 0x64A5B, size: 0x8, addend: 0x0, symName: __ZNSt3__16vectorINS_12basic_stringIcNS_11char_traitsIcEENS_9allocatorIcEEEENS4_IS6_EEE11__make_iterB7v160006EPS6_, symObjAddr: 0xBCF0, symBinAddr: 0x10000DE78, symSize: 0x34 }
  - { offsetInCU: 0x64A90, offset: 0x64A90, size: 0x8, addend: 0x0, symName: __ZNSt3__111__wrap_iterIPNS_12basic_stringIcNS_11char_traitsIcEENS_9allocatorIcEEEEEC1B7v160006EPKvS7_, symObjAddr: 0xBD24, symBinAddr: 0x10000DEAC, symSize: 0x3C }
  - { offsetInCU: 0x64AD6, offset: 0x64AD6, size: 0x8, addend: 0x0, symName: __ZNSt3__111__wrap_iterIPNS_12basic_stringIcNS_11char_traitsIcEENS_9allocatorIcEEEEEC2B7v160006EPKvS7_, symObjAddr: 0xBD60, symBinAddr: 0x10000DEE8, symSize: 0x24 }
  - { offsetInCU: 0x64B1C, offset: 0x64B1C, size: 0x8, addend: 0x0, symName: __ZNKSt3__111__wrap_iterIPNS_12basic_stringIcNS_11char_traitsIcEENS_9allocatorIcEEEEE4baseB7v160006Ev, symObjAddr: 0xBDCC, symBinAddr: 0x10000DF54, symSize: 0x18 }
  - { offsetInCU: 0x64B42, offset: 0x64B42, size: 0x8, addend: 0x0, symName: __ZNKSt3__112basic_stringIcNS_11char_traitsIcEENS_9allocatorIcEEE4dataB7v160006Ev, symObjAddr: 0xBDE4, symBinAddr: 0x10000DF6C, symSize: 0x28 }
  - { offsetInCU: 0x64B68, offset: 0x64B68, size: 0x8, addend: 0x0, symName: __ZNSt3__111char_traitsIcE7compareEPKcS3_m, symObjAddr: 0xBE0C, symBinAddr: 0x10000DF94, symSize: 0x6C }
  - { offsetInCU: 0x64BA7, offset: 0x64BA7, size: 0x8, addend: 0x0, symName: __ZNKSt3__112basic_stringIcNS_11char_traitsIcEENS_9allocatorIcEEE13__get_pointerB7v160006Ev, symObjAddr: 0xBE8C, symBinAddr: 0x10000E014, symSize: 0x54 }
  - { offsetInCU: 0x64BCD, offset: 0x64BCD, size: 0x8, addend: 0x0, symName: __ZNKSt3__112basic_stringIcNS_11char_traitsIcEENS_9allocatorIcEEE18__get_long_pointerB7v160006Ev, symObjAddr: 0xBEE0, symBinAddr: 0x10000E068, symSize: 0x28 }
  - { offsetInCU: 0x64BF3, offset: 0x64BF3, size: 0x8, addend: 0x0, symName: __ZNKSt3__112basic_stringIcNS_11char_traitsIcEENS_9allocatorIcEEE19__get_short_pointerB7v160006Ev, symObjAddr: 0xBF08, symBinAddr: 0x10000E090, symSize: 0x28 }
  - { offsetInCU: 0x64C19, offset: 0x64C19, size: 0x8, addend: 0x0, symName: __ZNSt3__114pointer_traitsIPKcE10pointer_toB7v160006ERS1_, symObjAddr: 0xBF30, symBinAddr: 0x10000E0B8, symSize: 0x14 }
  - { offsetInCU: 0x64C3C, offset: 0x64C3C, size: 0x8, addend: 0x0, symName: __ZNSt3__16vectorINS_4pairINS_12basic_stringIcNS_11char_traitsIcEENS_9allocatorIcEEEEiEENS5_IS8_EEE9__end_capB7v160006Ev, symObjAddr: 0xBF78, symBinAddr: 0x10000E100, symSize: 0x28 }
  - { offsetInCU: 0x64C62, offset: 0x64C62, size: 0x8, addend: 0x0, symName: __ZNSt3__16vectorINS_4pairINS_12basic_stringIcNS_11char_traitsIcEENS_9allocatorIcEEEEiEENS5_IS8_EEE22__construct_one_at_endB7v160006IJS8_EEEvDpOT_, symObjAddr: 0xBFA0, symBinAddr: 0x10000E128, symSize: 0x90 }
  - { offsetInCU: 0x64CB1, offset: 0x64CB1, size: 0x8, addend: 0x0, symName: __ZNSt3__16vectorINS_4pairINS_12basic_stringIcNS_11char_traitsIcEENS_9allocatorIcEEEEiEENS5_IS8_EEE21__push_back_slow_pathIS8_EEvOT_, symObjAddr: 0xC030, symBinAddr: 0x10000E1B8, symSize: 0xD8 }
  - { offsetInCU: 0x64D0F, offset: 0x64D0F, size: 0x8, addend: 0x0, symName: __ZNSt3__117__compressed_pairIPNS_4pairINS_12basic_stringIcNS_11char_traitsIcEENS_9allocatorIcEEEEiEENS5_IS8_EEE5firstB7v160006Ev, symObjAddr: 0xC108, symBinAddr: 0x10000E290, symSize: 0x24 }
  - { offsetInCU: 0x64D35, offset: 0x64D35, size: 0x8, addend: 0x0, symName: __ZNSt3__122__compressed_pair_elemIPNS_4pairINS_12basic_stringIcNS_11char_traitsIcEENS_9allocatorIcEEEEiEELi0ELb0EE5__getB7v160006Ev, symObjAddr: 0xC12C, symBinAddr: 0x10000E2B4, symSize: 0x14 }
  - { offsetInCU: 0x64D77, offset: 0x64D77, size: 0x8, addend: 0x0, symName: __ZNSt3__16vectorINS_4pairINS_12basic_stringIcNS_11char_traitsIcEENS_9allocatorIcEEEEiEENS5_IS8_EEE21_ConstructTransactionC1B7v160006ERSA_m, symObjAddr: 0xC140, symBinAddr: 0x10000E2C8, symSize: 0x3C }
  - { offsetInCU: 0x64DBF, offset: 0x64DBF, size: 0x8, addend: 0x0, symName: __ZNSt3__116allocator_traitsINS_9allocatorINS_4pairINS_12basic_stringIcNS_11char_traitsIcEENS1_IcEEEEiEEEEE9constructB7v160006IS8_JS8_EvvEEvRS9_PT_DpOT0_, symObjAddr: 0xC17C, symBinAddr: 0x10000E304, symSize: 0x30 }
  - { offsetInCU: 0x64E14, offset: 0x64E14, size: 0x8, addend: 0x0, symName: __ZNSt3__16vectorINS_4pairINS_12basic_stringIcNS_11char_traitsIcEENS_9allocatorIcEEEEiEENS5_IS8_EEE7__allocB7v160006Ev, symObjAddr: 0xC1AC, symBinAddr: 0x10000E334, symSize: 0x28 }
  - { offsetInCU: 0x64E3A, offset: 0x64E3A, size: 0x8, addend: 0x0, symName: __ZNSt3__16vectorINS_4pairINS_12basic_stringIcNS_11char_traitsIcEENS_9allocatorIcEEEEiEENS5_IS8_EEE21_ConstructTransactionD1B7v160006Ev, symObjAddr: 0xC1E8, symBinAddr: 0x10000E370, symSize: 0x2C }
  - { offsetInCU: 0x64E64, offset: 0x64E64, size: 0x8, addend: 0x0, symName: __ZNSt3__16vectorINS_4pairINS_12basic_stringIcNS_11char_traitsIcEENS_9allocatorIcEEEEiEENS5_IS8_EEE21_ConstructTransactionC2B7v160006ERSA_m, symObjAddr: 0xC214, symBinAddr: 0x10000E39C, symSize: 0x44 }
  - { offsetInCU: 0x64EAC, offset: 0x64EAC, size: 0x8, addend: 0x0, symName: __ZNSt3__14pairINS_12basic_stringIcNS_11char_traitsIcEENS_9allocatorIcEEEEiEC1EOS7_, symObjAddr: 0xC294, symBinAddr: 0x10000E41C, symSize: 0x34 }
  - { offsetInCU: 0x64EE1, offset: 0x64EE1, size: 0x8, addend: 0x0, symName: __ZNSt3__14pairINS_12basic_stringIcNS_11char_traitsIcEENS_9allocatorIcEEEEiEC2EOS7_, symObjAddr: 0xC2C8, symBinAddr: 0x10000E450, symSize: 0x40 }
  - { offsetInCU: 0x64F16, offset: 0x64F16, size: 0x8, addend: 0x0, symName: __ZNSt3__112basic_stringIcNS_11char_traitsIcEENS_9allocatorIcEEEC1B7v160006EOS5_, symObjAddr: 0xC308, symBinAddr: 0x10000E490, symSize: 0x34 }
  - { offsetInCU: 0x64F4F, offset: 0x64F4F, size: 0x8, addend: 0x0, symName: __ZNSt3__112basic_stringIcNS_11char_traitsIcEENS_9allocatorIcEEEC2B7v160006EOS5_, symObjAddr: 0xC33C, symBinAddr: 0x10000E4C4, symSize: 0x80 }
  - { offsetInCU: 0x64F88, offset: 0x64F88, size: 0x8, addend: 0x0, symName: __ZNSt3__117__compressed_pairIPNS_4pairINS_12basic_stringIcNS_11char_traitsIcEENS_9allocatorIcEEEEiEENS5_IS8_EEE6secondB7v160006Ev, symObjAddr: 0xC3D0, symBinAddr: 0x10000E558, symSize: 0x24 }
  - { offsetInCU: 0x64FAE, offset: 0x64FAE, size: 0x8, addend: 0x0, symName: __ZNSt3__122__compressed_pair_elemINS_9allocatorINS_4pairINS_12basic_stringIcNS_11char_traitsIcEENS1_IcEEEEiEEEELi1ELb1EE5__getB7v160006Ev, symObjAddr: 0xC3F4, symBinAddr: 0x10000E57C, symSize: 0x14 }
  - { offsetInCU: 0x64FD4, offset: 0x64FD4, size: 0x8, addend: 0x0, symName: __ZNSt3__16vectorINS_4pairINS_12basic_stringIcNS_11char_traitsIcEENS_9allocatorIcEEEEiEENS5_IS8_EEE21_ConstructTransactionD2B7v160006Ev, symObjAddr: 0xC408, symBinAddr: 0x10000E590, symSize: 0x20 }
  - { offsetInCU: 0x64FFE, offset: 0x64FFE, size: 0x8, addend: 0x0, symName: __ZNKSt3__16vectorINS_4pairINS_12basic_stringIcNS_11char_traitsIcEENS_9allocatorIcEEEEiEENS5_IS8_EEE11__recommendB7v160006Em, symObjAddr: 0xC428, symBinAddr: 0x10000E5B0, symSize: 0xB4 }
  - { offsetInCU: 0x65053, offset: 0x65053, size: 0x8, addend: 0x0, symName: __ZNKSt3__16vectorINS_4pairINS_12basic_stringIcNS_11char_traitsIcEENS_9allocatorIcEEEEiEENS5_IS8_EEE4sizeB7v160006Ev, symObjAddr: 0xC4DC, symBinAddr: 0x10000E664, symSize: 0x28 }
  - { offsetInCU: 0x65079, offset: 0x65079, size: 0x8, addend: 0x0, symName: __ZNSt3__114__split_bufferINS_4pairINS_12basic_stringIcNS_11char_traitsIcEENS_9allocatorIcEEEEiEERNS5_IS8_EEEC1EmmSA_, symObjAddr: 0xC504, symBinAddr: 0x10000E68C, symSize: 0x44 }
  - { offsetInCU: 0x650CF, offset: 0x650CF, size: 0x8, addend: 0x0, symName: __ZNSt3__114__split_bufferINS_4pairINS_12basic_stringIcNS_11char_traitsIcEENS_9allocatorIcEEEEiEERNS5_IS8_EEED1Ev, symObjAddr: 0xC660, symBinAddr: 0x10000E7E8, symSize: 0x2C }
  - { offsetInCU: 0x650FB, offset: 0x650FB, size: 0x8, addend: 0x0, symName: __ZNKSt3__16vectorINS_4pairINS_12basic_stringIcNS_11char_traitsIcEENS_9allocatorIcEEEEiEENS5_IS8_EEE8max_sizeEv, symObjAddr: 0xC68C, symBinAddr: 0x10000E814, symSize: 0x60 }
  - { offsetInCU: 0x65123, offset: 0x65123, size: 0x8, addend: 0x0, symName: __ZNKSt3__16vectorINS_4pairINS_12basic_stringIcNS_11char_traitsIcEENS_9allocatorIcEEEEiEENS5_IS8_EEE20__throw_length_errorB7v160006Ev, symObjAddr: 0xC6EC, symBinAddr: 0x10000E874, symSize: 0x1C }
  - { offsetInCU: 0x65149, offset: 0x65149, size: 0x8, addend: 0x0, symName: __ZNKSt3__16vectorINS_4pairINS_12basic_stringIcNS_11char_traitsIcEENS_9allocatorIcEEEEiEENS5_IS8_EEE8capacityB7v160006Ev, symObjAddr: 0xC708, symBinAddr: 0x10000E890, symSize: 0x40 }
  - { offsetInCU: 0x6517A, offset: 0x6517A, size: 0x8, addend: 0x0, symName: __ZNSt3__116allocator_traitsINS_9allocatorINS_4pairINS_12basic_stringIcNS_11char_traitsIcEENS1_IcEEEEiEEEEE8max_sizeB7v160006IS9_vvEEmRKS9_, symObjAddr: 0xC748, symBinAddr: 0x10000E8D0, symSize: 0x28 }
  - { offsetInCU: 0x651A6, offset: 0x651A6, size: 0x8, addend: 0x0, symName: __ZNKSt3__16vectorINS_4pairINS_12basic_stringIcNS_11char_traitsIcEENS_9allocatorIcEEEEiEENS5_IS8_EEE7__allocB7v160006Ev, symObjAddr: 0xC770, symBinAddr: 0x10000E8F8, symSize: 0x28 }
  - { offsetInCU: 0x651CC, offset: 0x651CC, size: 0x8, addend: 0x0, symName: __ZNKSt3__117__compressed_pairIPNS_4pairINS_12basic_stringIcNS_11char_traitsIcEENS_9allocatorIcEEEEiEENS5_IS8_EEE6secondB7v160006Ev, symObjAddr: 0xC798, symBinAddr: 0x10000E920, symSize: 0x24 }
  - { offsetInCU: 0x651F2, offset: 0x651F2, size: 0x8, addend: 0x0, symName: __ZNKSt3__122__compressed_pair_elemINS_9allocatorINS_4pairINS_12basic_stringIcNS_11char_traitsIcEENS1_IcEEEEiEEEELi1ELb1EE5__getB7v160006Ev, symObjAddr: 0xC7BC, symBinAddr: 0x10000E944, symSize: 0x14 }
  - { offsetInCU: 0x65218, offset: 0x65218, size: 0x8, addend: 0x0, symName: __ZNKSt3__16vectorINS_4pairINS_12basic_stringIcNS_11char_traitsIcEENS_9allocatorIcEEEEiEENS5_IS8_EEE9__end_capB7v160006Ev, symObjAddr: 0xC7D0, symBinAddr: 0x10000E958, symSize: 0x28 }
  - { offsetInCU: 0x6523E, offset: 0x6523E, size: 0x8, addend: 0x0, symName: __ZNKSt3__117__compressed_pairIPNS_4pairINS_12basic_stringIcNS_11char_traitsIcEENS_9allocatorIcEEEEiEENS5_IS8_EEE5firstB7v160006Ev, symObjAddr: 0xC7F8, symBinAddr: 0x10000E980, symSize: 0x24 }
  - { offsetInCU: 0x65264, offset: 0x65264, size: 0x8, addend: 0x0, symName: __ZNKSt3__122__compressed_pair_elemIPNS_4pairINS_12basic_stringIcNS_11char_traitsIcEENS_9allocatorIcEEEEiEELi0ELb0EE5__getB7v160006Ev, symObjAddr: 0xC81C, symBinAddr: 0x10000E9A4, symSize: 0x14 }
  - { offsetInCU: 0x6528A, offset: 0x6528A, size: 0x8, addend: 0x0, symName: __ZNSt3__114__split_bufferINS_4pairINS_12basic_stringIcNS_11char_traitsIcEENS_9allocatorIcEEEEiEERNS5_IS8_EEEC2EmmSA_, symObjAddr: 0xC830, symBinAddr: 0x10000E9B8, symSize: 0xD4 }
  - { offsetInCU: 0x652FD, offset: 0x652FD, size: 0x8, addend: 0x0, symName: __ZNSt3__117__compressed_pairIPNS_4pairINS_12basic_stringIcNS_11char_traitsIcEENS_9allocatorIcEEEEiEERNS5_IS8_EEEC1B7v160006IDnSB_EEOT_OT0_, symObjAddr: 0xC904, symBinAddr: 0x10000EA8C, symSize: 0x3C }
  - { offsetInCU: 0x65355, offset: 0x65355, size: 0x8, addend: 0x0, symName: __ZNSt3__114__split_bufferINS_4pairINS_12basic_stringIcNS_11char_traitsIcEENS_9allocatorIcEEEEiEERNS5_IS8_EEE7__allocB7v160006Ev, symObjAddr: 0xC980, symBinAddr: 0x10000EB08, symSize: 0x28 }
  - { offsetInCU: 0x6537B, offset: 0x6537B, size: 0x8, addend: 0x0, symName: __ZNSt3__114__split_bufferINS_4pairINS_12basic_stringIcNS_11char_traitsIcEENS_9allocatorIcEEEEiEERNS5_IS8_EEE9__end_capB7v160006Ev, symObjAddr: 0xC9A8, symBinAddr: 0x10000EB30, symSize: 0x28 }
  - { offsetInCU: 0x653A1, offset: 0x653A1, size: 0x8, addend: 0x0, symName: __ZNSt3__117__compressed_pairIPNS_4pairINS_12basic_stringIcNS_11char_traitsIcEENS_9allocatorIcEEEEiEERNS5_IS8_EEEC2B7v160006IDnSB_EEOT_OT0_, symObjAddr: 0xC9D0, symBinAddr: 0x10000EB58, symSize: 0x48 }
  - { offsetInCU: 0x653F9, offset: 0x653F9, size: 0x8, addend: 0x0, symName: __ZNSt3__122__compressed_pair_elemIPNS_4pairINS_12basic_stringIcNS_11char_traitsIcEENS_9allocatorIcEEEEiEELi0ELb0EEC2B7v160006IDnvEEOT_, symObjAddr: 0xCA18, symBinAddr: 0x10000EBA0, symSize: 0x1C }
  - { offsetInCU: 0x6543B, offset: 0x6543B, size: 0x8, addend: 0x0, symName: __ZNSt3__122__compressed_pair_elemIRNS_9allocatorINS_4pairINS_12basic_stringIcNS_11char_traitsIcEENS1_IcEEEEiEEEELi1ELb0EEC2B7v160006ISA_vEEOT_, symObjAddr: 0xCA34, symBinAddr: 0x10000EBBC, symSize: 0x20 }
  - { offsetInCU: 0x6547D, offset: 0x6547D, size: 0x8, addend: 0x0, symName: __ZNSt3__19allocatorINS_4pairINS_12basic_stringIcNS_11char_traitsIcEENS0_IcEEEEiEEE8allocateB7v160006Em, symObjAddr: 0xCA54, symBinAddr: 0x10000EBDC, symSize: 0x58 }
  - { offsetInCU: 0x654B1, offset: 0x654B1, size: 0x8, addend: 0x0, symName: __ZNSt3__117__compressed_pairIPNS_4pairINS_12basic_stringIcNS_11char_traitsIcEENS_9allocatorIcEEEEiEERNS5_IS8_EEE6secondB7v160006Ev, symObjAddr: 0xCAAC, symBinAddr: 0x10000EC34, symSize: 0x28 }
  - { offsetInCU: 0x654D7, offset: 0x654D7, size: 0x8, addend: 0x0, symName: __ZNSt3__122__compressed_pair_elemIRNS_9allocatorINS_4pairINS_12basic_stringIcNS_11char_traitsIcEENS1_IcEEEEiEEEELi1ELb0EE5__getB7v160006Ev, symObjAddr: 0xCAD4, symBinAddr: 0x10000EC5C, symSize: 0x18 }
  - { offsetInCU: 0x654FD, offset: 0x654FD, size: 0x8, addend: 0x0, symName: __ZNSt3__117__compressed_pairIPNS_4pairINS_12basic_stringIcNS_11char_traitsIcEENS_9allocatorIcEEEEiEERNS5_IS8_EEE5firstB7v160006Ev, symObjAddr: 0xCAEC, symBinAddr: 0x10000EC74, symSize: 0x24 }
  - { offsetInCU: 0x65523, offset: 0x65523, size: 0x8, addend: 0x0, symName: __ZNKSt3__16vectorINS_4pairINS_12basic_stringIcNS_11char_traitsIcEENS_9allocatorIcEEEEiEENS5_IS8_EEE17__annotate_deleteB7v160006Ev, symObjAddr: 0xCB10, symBinAddr: 0x10000EC98, symSize: 0xB8 }
  - { offsetInCU: 0x65549, offset: 0x65549, size: 0x8, addend: 0x0, symName: __ZNSt3__116reverse_iteratorIPNS_4pairINS_12basic_stringIcNS_11char_traitsIcEENS_9allocatorIcEEEEiEEEC1B7v160006ES9_, symObjAddr: 0xCCF4, symBinAddr: 0x10000EE7C, symSize: 0x34 }
  - { offsetInCU: 0x65581, offset: 0x65581, size: 0x8, addend: 0x0, symName: __ZNKSt3__116reverse_iteratorIPNS_4pairINS_12basic_stringIcNS_11char_traitsIcEENS_9allocatorIcEEEEiEEE4baseB7v160006Ev, symObjAddr: 0xCD28, symBinAddr: 0x10000EEB0, symSize: 0x18 }
  - { offsetInCU: 0x655A7, offset: 0x655A7, size: 0x8, addend: 0x0, symName: __ZNKSt3__16vectorINS_4pairINS_12basic_stringIcNS_11char_traitsIcEENS_9allocatorIcEEEEiEENS5_IS8_EEE14__annotate_newB7v160006Em, symObjAddr: 0xCD7C, symBinAddr: 0x10000EF04, symSize: 0xAC }
  - { offsetInCU: 0x655DC, offset: 0x655DC, size: 0x8, addend: 0x0, symName: __ZNKSt3__16vectorINS_4pairINS_12basic_stringIcNS_11char_traitsIcEENS_9allocatorIcEEEEiEENS5_IS8_EEE31__annotate_contiguous_containerB7v160006EPKvSC_SC_SC_, symObjAddr: 0xCE38, symBinAddr: 0x10000EFC0, symSize: 0x20 }
  - { offsetInCU: 0x65632, offset: 0x65632, size: 0x8, addend: 0x0, symName: __ZNKSt3__16vectorINS_4pairINS_12basic_stringIcNS_11char_traitsIcEENS_9allocatorIcEEEEiEENS5_IS8_EEE4dataB7v160006Ev, symObjAddr: 0xCE58, symBinAddr: 0x10000EFE0, symSize: 0x28 }
  - { offsetInCU: 0x65658, offset: 0x65658, size: 0x8, addend: 0x0, symName: __ZNSt3__129_AllocatorDestroyRangeReverseINS_9allocatorINS_4pairINS_12basic_stringIcNS_11char_traitsIcEENS1_IcEEEEiEEEENS_16reverse_iteratorIPS8_EEEC1B7v160006ERS9_RSC_SF_, symObjAddr: 0xCECC, symBinAddr: 0x10000F054, symSize: 0x44 }
  - { offsetInCU: 0x656AF, offset: 0x656AF, size: 0x8, addend: 0x0, symName: __ZNKSt3__116reverse_iteratorIPNS_4pairINS_12basic_stringIcNS_11char_traitsIcEENS_9allocatorIcEEEEiEEEdeB7v160006Ev, symObjAddr: 0xCF7C, symBinAddr: 0x10000F104, symSize: 0x28 }
  - { offsetInCU: 0x656E3, offset: 0x656E3, size: 0x8, addend: 0x0, symName: __ZNSt3__116reverse_iteratorIPNS_4pairINS_12basic_stringIcNS_11char_traitsIcEENS_9allocatorIcEEEEiEEEppB7v160006Ev, symObjAddr: 0xCFA4, symBinAddr: 0x10000F12C, symSize: 0x20 }
  - { offsetInCU: 0x65709, offset: 0x65709, size: 0x8, addend: 0x0, symName: __ZNSt3__128__exception_guard_exceptionsINS_29_AllocatorDestroyRangeReverseINS_9allocatorINS_4pairINS_12basic_stringIcNS_11char_traitsIcEENS2_IcEEEEiEEEENS_16reverse_iteratorIPS9_EEEEE10__completeB7v160006Ev, symObjAddr: 0xCFC4, symBinAddr: 0x10000F14C, symSize: 0x1C }
  - { offsetInCU: 0x6572F, offset: 0x6572F, size: 0x8, addend: 0x0, symName: __ZNSt3__128__exception_guard_exceptionsINS_29_AllocatorDestroyRangeReverseINS_9allocatorINS_4pairINS_12basic_stringIcNS_11char_traitsIcEENS2_IcEEEEiEEEENS_16reverse_iteratorIPS9_EEEEED1B7v160006Ev, symObjAddr: 0xCFE0, symBinAddr: 0x10000F168, symSize: 0x2C }
  - { offsetInCU: 0x65759, offset: 0x65759, size: 0x8, addend: 0x0, symName: __ZNSt3__128__exception_guard_exceptionsINS_29_AllocatorDestroyRangeReverseINS_9allocatorINS_4pairINS_12basic_stringIcNS_11char_traitsIcEENS2_IcEEEEiEEEENS_16reverse_iteratorIPS9_EEEEEC1B7v160006ESE_, symObjAddr: 0xD00C, symBinAddr: 0x10000F194, symSize: 0x34 }
  - { offsetInCU: 0x65792, offset: 0x65792, size: 0x8, addend: 0x0, symName: __ZNSt3__128__exception_guard_exceptionsINS_29_AllocatorDestroyRangeReverseINS_9allocatorINS_4pairINS_12basic_stringIcNS_11char_traitsIcEENS2_IcEEEEiEEEENS_16reverse_iteratorIPS9_EEEEEC2B7v160006ESE_, symObjAddr: 0xD040, symBinAddr: 0x10000F1C8, symSize: 0x30 }
  - { offsetInCU: 0x657CB, offset: 0x657CB, size: 0x8, addend: 0x0, symName: __ZNSt3__129_AllocatorDestroyRangeReverseINS_9allocatorINS_4pairINS_12basic_stringIcNS_11char_traitsIcEENS1_IcEEEEiEEEENS_16reverse_iteratorIPS8_EEEC2B7v160006ERS9_RSC_SF_, symObjAddr: 0xD070, symBinAddr: 0x10000F1F8, symSize: 0x38 }
  - { offsetInCU: 0x65828, offset: 0x65828, size: 0x8, addend: 0x0, symName: __ZNSt3__119__to_address_helperINS_16reverse_iteratorIPNS_4pairINS_12basic_stringIcNS_11char_traitsIcEENS_9allocatorIcEEEEiEEEEvE6__callB7v160006ERKSB_, symObjAddr: 0xD0A8, symBinAddr: 0x10000F230, symSize: 0x38 }
  - { offsetInCU: 0x6584B, offset: 0x6584B, size: 0x8, addend: 0x0, symName: __ZNKSt3__116reverse_iteratorIPNS_4pairINS_12basic_stringIcNS_11char_traitsIcEENS_9allocatorIcEEEEiEEEptB7v160006Ev, symObjAddr: 0xD0E0, symBinAddr: 0x10000F268, symSize: 0x2C }
  - { offsetInCU: 0x65871, offset: 0x65871, size: 0x8, addend: 0x0, symName: __ZNSt3__128__exception_guard_exceptionsINS_29_AllocatorDestroyRangeReverseINS_9allocatorINS_4pairINS_12basic_stringIcNS_11char_traitsIcEENS2_IcEEEEiEEEENS_16reverse_iteratorIPS9_EEEEED2B7v160006Ev, symObjAddr: 0xD1D4, symBinAddr: 0x10000F35C, symSize: 0x50 }
  - { offsetInCU: 0x6589B, offset: 0x6589B, size: 0x8, addend: 0x0, symName: __ZNKSt3__129_AllocatorDestroyRangeReverseINS_9allocatorINS_4pairINS_12basic_stringIcNS_11char_traitsIcEENS1_IcEEEEiEEEENS_16reverse_iteratorIPS8_EEEclB7v160006Ev, symObjAddr: 0xD224, symBinAddr: 0x10000F3AC, symSize: 0xB4 }
  - { offsetInCU: 0x658C2, offset: 0x658C2, size: 0x8, addend: 0x0, symName: __ZNSt3__116reverse_iteratorINS0_IPNS_4pairINS_12basic_stringIcNS_11char_traitsIcEENS_9allocatorIcEEEEiEEEEEC1B7v160006ESA_, symObjAddr: 0xD348, symBinAddr: 0x10000F4D0, symSize: 0x3C }
  - { offsetInCU: 0x658FA, offset: 0x658FA, size: 0x8, addend: 0x0, symName: __ZNSt3__116allocator_traitsINS_9allocatorINS_4pairINS_12basic_stringIcNS_11char_traitsIcEENS1_IcEEEEiEEEEE7destroyB7v160006IS8_vvEEvRS9_PT_, symObjAddr: 0xD3E4, symBinAddr: 0x10000F56C, symSize: 0x28 }
  - { offsetInCU: 0x65935, offset: 0x65935, size: 0x8, addend: 0x0, symName: __ZNSt3__116reverse_iteratorINS0_IPNS_4pairINS_12basic_stringIcNS_11char_traitsIcEENS_9allocatorIcEEEEiEEEEEppB7v160006Ev, symObjAddr: 0xD430, symBinAddr: 0x10000F5B8, symSize: 0x30 }
  - { offsetInCU: 0x6595B, offset: 0x6595B, size: 0x8, addend: 0x0, symName: __ZNKSt3__116reverse_iteratorINS0_IPNS_4pairINS_12basic_stringIcNS_11char_traitsIcEENS_9allocatorIcEEEEiEEEEE4baseB7v160006Ev, symObjAddr: 0xD460, symBinAddr: 0x10000F5E8, symSize: 0x24 }
  - { offsetInCU: 0x65987, offset: 0x65987, size: 0x8, addend: 0x0, symName: __ZNSt3__119__to_address_helperINS_16reverse_iteratorINS1_IPNS_4pairINS_12basic_stringIcNS_11char_traitsIcEENS_9allocatorIcEEEEiEEEEEEvE6__callB7v160006ERKSC_, symObjAddr: 0xD4CC, symBinAddr: 0x10000F654, symSize: 0x38 }
  - { offsetInCU: 0x659AA, offset: 0x659AA, size: 0x8, addend: 0x0, symName: __ZNKSt3__116reverse_iteratorINS0_IPNS_4pairINS_12basic_stringIcNS_11char_traitsIcEENS_9allocatorIcEEEEiEEEEEptB7v160006Ev, symObjAddr: 0xD504, symBinAddr: 0x10000F68C, symSize: 0x4C }
  - { offsetInCU: 0x659D0, offset: 0x659D0, size: 0x8, addend: 0x0, symName: __ZNSt3__116reverse_iteratorIPNS_4pairINS_12basic_stringIcNS_11char_traitsIcEENS_9allocatorIcEEEEiEEEpLB7v160006El, symObjAddr: 0xD62C, symBinAddr: 0x10000F7B4, symSize: 0x30 }
  - { offsetInCU: 0x65A04, offset: 0x65A04, size: 0x8, addend: 0x0, symName: __ZNSt3__116reverse_iteratorIPNS_4pairINS_12basic_stringIcNS_11char_traitsIcEENS_9allocatorIcEEEEiEEEmmB7v160006Ev, symObjAddr: 0xD65C, symBinAddr: 0x10000F7E4, symSize: 0x20 }
  - { offsetInCU: 0x65A2A, offset: 0x65A2A, size: 0x8, addend: 0x0, symName: __ZNSt3__116reverse_iteratorINS0_IPNS_4pairINS_12basic_stringIcNS_11char_traitsIcEENS_9allocatorIcEEEEiEEEEEC2B7v160006ESA_, symObjAddr: 0xD67C, symBinAddr: 0x10000F804, symSize: 0x2C }
  - { offsetInCU: 0x65A62, offset: 0x65A62, size: 0x8, addend: 0x0, symName: __ZNSt3__116reverse_iteratorIPNS_4pairINS_12basic_stringIcNS_11char_traitsIcEENS_9allocatorIcEEEEiEEEC2B7v160006ES9_, symObjAddr: 0xD6A8, symBinAddr: 0x10000F830, symSize: 0x28 }
  - { offsetInCU: 0x65A9A, offset: 0x65A9A, size: 0x8, addend: 0x0, symName: __ZNSt3__114__split_bufferINS_4pairINS_12basic_stringIcNS_11char_traitsIcEENS_9allocatorIcEEEEiEERNS5_IS8_EEED2Ev, symObjAddr: 0xD6D0, symBinAddr: 0x10000F858, symSize: 0x8C }
  - { offsetInCU: 0x65AC6, offset: 0x65AC6, size: 0x8, addend: 0x0, symName: __ZNSt3__114__split_bufferINS_4pairINS_12basic_stringIcNS_11char_traitsIcEENS_9allocatorIcEEEEiEERNS5_IS8_EEE5clearB7v160006Ev, symObjAddr: 0xD75C, symBinAddr: 0x10000F8E4, symSize: 0x28 }
  - { offsetInCU: 0x65AEC, offset: 0x65AEC, size: 0x8, addend: 0x0, symName: __ZNSt3__116allocator_traitsINS_9allocatorINS_4pairINS_12basic_stringIcNS_11char_traitsIcEENS1_IcEEEEiEEEEE10deallocateB7v160006ERS9_PS8_m, symObjAddr: 0xD784, symBinAddr: 0x10000F90C, symSize: 0x34 }
  - { offsetInCU: 0x65B2E, offset: 0x65B2E, size: 0x8, addend: 0x0, symName: __ZNKSt3__114__split_bufferINS_4pairINS_12basic_stringIcNS_11char_traitsIcEENS_9allocatorIcEEEEiEERNS5_IS8_EEE8capacityB7v160006Ev, symObjAddr: 0xD7B8, symBinAddr: 0x10000F940, symSize: 0x40 }
  - { offsetInCU: 0x65B54, offset: 0x65B54, size: 0x8, addend: 0x0, symName: __ZNSt3__114__split_bufferINS_4pairINS_12basic_stringIcNS_11char_traitsIcEENS_9allocatorIcEEEEiEERNS5_IS8_EEE17__destruct_at_endB7v160006EPS8_, symObjAddr: 0xD7F8, symBinAddr: 0x10000F980, symSize: 0x2C }
  - { offsetInCU: 0x65B88, offset: 0x65B88, size: 0x8, addend: 0x0, symName: __ZNSt3__114__split_bufferINS_4pairINS_12basic_stringIcNS_11char_traitsIcEENS_9allocatorIcEEEEiEERNS5_IS8_EEE17__destruct_at_endB7v160006EPS8_NS_17integral_constantIbLb0EEE, symObjAddr: 0xD824, symBinAddr: 0x10000F9AC, symSize: 0x80 }
  - { offsetInCU: 0x65BC9, offset: 0x65BC9, size: 0x8, addend: 0x0, symName: __ZNSt3__19allocatorINS_4pairINS_12basic_stringIcNS_11char_traitsIcEENS0_IcEEEEiEEE10deallocateB7v160006EPS7_m, symObjAddr: 0xD8A4, symBinAddr: 0x10000FA2C, symSize: 0x40 }
  - { offsetInCU: 0x65C0B, offset: 0x65C0B, size: 0x8, addend: 0x0, symName: __ZNKSt3__114__split_bufferINS_4pairINS_12basic_stringIcNS_11char_traitsIcEENS_9allocatorIcEEEEiEERNS5_IS8_EEE9__end_capB7v160006Ev, symObjAddr: 0xD8E4, symBinAddr: 0x10000FA6C, symSize: 0x28 }
  - { offsetInCU: 0x65C31, offset: 0x65C31, size: 0x8, addend: 0x0, symName: __ZNKSt3__117__compressed_pairIPNS_4pairINS_12basic_stringIcNS_11char_traitsIcEENS_9allocatorIcEEEEiEERNS5_IS8_EEE5firstB7v160006Ev, symObjAddr: 0xD90C, symBinAddr: 0x10000FA94, symSize: 0x24 }
  - { offsetInCU: 0x65C57, offset: 0x65C57, size: 0x8, addend: 0x0, symName: __ZNSt3__14pairINS_12basic_stringIcNS_11char_traitsIcEENS_9allocatorIcEEEEiEC2B7v160006IRS6_iLPv0EEEOT_OT0_, symObjAddr: 0xD930, symBinAddr: 0x10000FAB8, symSize: 0x44 }
  - { offsetInCU: 0x65CB5, offset: 0x65CB5, size: 0x8, addend: 0x0, symName: __ZNSt3__14pairINS_12basic_stringIcNS_11char_traitsIcEENS_9allocatorIcEEEEiED2Ev, symObjAddr: 0xD974, symBinAddr: 0x10000FAFC, symSize: 0x2C }
  - { offsetInCU: 0x65CE1, offset: 0x65CE1, size: 0x8, addend: 0x0, symName: __ZNSt3__16vectorIiNS_9allocatorIiEEE17__destruct_at_endB7v160006EPi, symObjAddr: 0xD9A0, symBinAddr: 0x10000FB28, symSize: 0x60 }
  - { offsetInCU: 0x65D25, offset: 0x65D25, size: 0x8, addend: 0x0, symName: __ZNSt3__16vectorIiNS_9allocatorIiEEE27__invalidate_iterators_pastB7v160006EPi, symObjAddr: 0xDA00, symBinAddr: 0x10000FB88, symSize: 0x14 }
  - { offsetInCU: 0x65D5C, offset: 0x65D5C, size: 0x8, addend: 0x0, symName: __ZNSt3__16vectorIiNS_9allocatorIiEEE22__base_destruct_at_endB7v160006EPi, symObjAddr: 0xDA14, symBinAddr: 0x10000FB9C, symSize: 0x8C }
  - { offsetInCU: 0x65DA0, offset: 0x65DA0, size: 0x8, addend: 0x0, symName: __ZNKSt3__16vectorIiNS_9allocatorIiEEE17__annotate_shrinkB7v160006Em, symObjAddr: 0xDAA0, symBinAddr: 0x10000FC28, symSize: 0xB4 }
  - { offsetInCU: 0x65DD5, offset: 0x65DD5, size: 0x8, addend: 0x0, symName: __ZNSt3__14pairINS_12basic_stringIcNS_11char_traitsIcEENS_9allocatorIcEEEEiEC2B7v160006IRS6_RiLPv0EEEOT_OT0_, symObjAddr: 0xDB54, symBinAddr: 0x10000FCDC, symSize: 0x44 }
  - { offsetInCU: 0x65E39, offset: 0x65E39, size: 0x8, addend: 0x0, symName: '__ZNSt3__116_UnwrapAlgPolicyIRZ25handle_sort_remove_uniqueRNS_6vectorINS_4pairINS_12basic_stringIcNS_11char_traitsIcEENS_9allocatorIcEEEEiEENS6_IS9_EEEEE3$_0E10__get_compB7v160006ESE_', symObjAddr: 0xDD18, symBinAddr: 0x10000FEA0, symSize: 0x14 }
  - { offsetInCU: 0x65E67, offset: 0x65E67, size: 0x8, addend: 0x0, symName: '__ZZ25handle_sort_remove_uniqueRNSt3__16vectorINS_4pairINS_12basic_stringIcNS_11char_traitsIcEENS_9allocatorIcEEEEiEENS5_IS8_EEEEENK3$_0clERKS8_SE_', symObjAddr: 0xE418, symBinAddr: 0x1000105A0, symSize: 0x34 }
  - { offsetInCU: 0x65EAD, offset: 0x65EAD, size: 0x8, addend: 0x0, symName: __ZNSt3__18_IterOpsINS_17_ClassicAlgPolicyEE9iter_swapB7v160006IRPNS_4pairINS_12basic_stringIcNS_11char_traitsIcEENS_9allocatorIcEEEEiEESD_EEvOT_OT0_, symObjAddr: 0xE44C, symBinAddr: 0x1000105D4, symSize: 0x34 }
  - { offsetInCU: 0x65EF0, offset: 0x65EF0, size: 0x8, addend: 0x0, symName: __ZNSt3__14pairINS_12basic_stringIcNS_11char_traitsIcEENS_9allocatorIcEEEEiE4swapB7v160006ERS7_, symObjAddr: 0xECD0, symBinAddr: 0x100010E58, symSize: 0x44 }
  - { offsetInCU: 0x65F25, offset: 0x65F25, size: 0x8, addend: 0x0, symName: __ZNSt3__112basic_stringIcNS_11char_traitsIcEENS_9allocatorIcEEE4swapB7v160006ERS5_, symObjAddr: 0xED7C, symBinAddr: 0x100010F04, symSize: 0xB4 }
  - { offsetInCU: 0x65F5C, offset: 0x65F5C, size: 0x8, addend: 0x0, symName: __ZNSt3__112basic_stringIcNS_11char_traitsIcEENS_9allocatorIcEEE7__allocB7v160006Ev, symObjAddr: 0xEEC0, symBinAddr: 0x100011048, symSize: 0x24 }
  - { offsetInCU: 0x65F82, offset: 0x65F82, size: 0x8, addend: 0x0, symName: __ZNSt3__117__compressed_pairINS_12basic_stringIcNS_11char_traitsIcEENS_9allocatorIcEEE5__repES5_E6secondB7v160006Ev, symObjAddr: 0xEEF8, symBinAddr: 0x100011080, symSize: 0x24 }
  - { offsetInCU: 0x65FA8, offset: 0x65FA8, size: 0x8, addend: 0x0, symName: __ZNSt3__122__compressed_pair_elemINS_9allocatorIcEELi1ELb1EE5__getB7v160006Ev, symObjAddr: 0xEF1C, symBinAddr: 0x1000110A4, symSize: 0x14 }
  - { offsetInCU: 0x65FCE, offset: 0x65FCE, size: 0x8, addend: 0x0, symName: __ZNSt3__18_IterOpsINS_17_ClassicAlgPolicyEE11__iter_moveB7v160006IRPNS_4pairINS_12basic_stringIcNS_11char_traitsIcEENS_9allocatorIcEEEEiEEEENS_9enable_ifIXsr12is_referenceIDTdeclsr3stdE7declvalIRT_EEEEE5valueEDTclsr3stdE4movedeclsr3stdE7declvalISG_EEEEE4typeEOSF_, symObjAddr: 0xF014, symBinAddr: 0x10001119C, symSize: 0x28 }
  - { offsetInCU: 0x65FFA, offset: 0x65FFA, size: 0x8, addend: 0x0, symName: __ZNSt3__14pairINS_12basic_stringIcNS_11char_traitsIcEENS_9allocatorIcEEEEiEaSB7v160006EOS7_, symObjAddr: 0xF03C, symBinAddr: 0x1000111C4, symSize: 0x40 }
  - { offsetInCU: 0x6602F, offset: 0x6602F, size: 0x8, addend: 0x0, symName: __ZNSt3__18_IterOpsINS_17_ClassicAlgPolicyEE25__validate_iter_referenceB7v160006IRPNS_4pairINS_12basic_stringIcNS_11char_traitsIcEENS_9allocatorIcEEEEiEEEEvv, symObjAddr: 0xF07C, symBinAddr: 0x100011204, symSize: 0x4 }
  - { offsetInCU: 0x6604D, offset: 0x6604D, size: 0x8, addend: 0x0, symName: __ZNSt3__112basic_stringIcNS_11char_traitsIcEENS_9allocatorIcEEEaSB7v160006EOS5_, symObjAddr: 0xF080, symBinAddr: 0x100011208, symSize: 0x34 }
  - { offsetInCU: 0x66082, offset: 0x66082, size: 0x8, addend: 0x0, symName: __ZNSt3__112basic_stringIcNS_11char_traitsIcEENS_9allocatorIcEEE13__move_assignB7v160006ERS5_NS_17integral_constantIbLb1EEE, symObjAddr: 0xF0B4, symBinAddr: 0x10001123C, symSize: 0xC8 }
  - { offsetInCU: 0x660C5, offset: 0x660C5, size: 0x8, addend: 0x0, symName: __ZNSt3__116allocator_traitsINS_9allocatorIcEEE10deallocateB7v160006ERS2_Pcm, symObjAddr: 0xF17C, symBinAddr: 0x100011304, symSize: 0x34 }
  - { offsetInCU: 0x66107, offset: 0x66107, size: 0x8, addend: 0x0, symName: __ZNKSt3__112basic_stringIcNS_11char_traitsIcEENS_9allocatorIcEEE14__get_long_capB7v160006Ev, symObjAddr: 0xF1B0, symBinAddr: 0x100011338, symSize: 0x30 }
  - { offsetInCU: 0x6612D, offset: 0x6612D, size: 0x8, addend: 0x0, symName: __ZNSt3__112basic_stringIcNS_11char_traitsIcEENS_9allocatorIcEEE19__move_assign_allocB7v160006ERS5_, symObjAddr: 0xF1E0, symBinAddr: 0x100011368, symSize: 0x2C }
  - { offsetInCU: 0x66162, offset: 0x66162, size: 0x8, addend: 0x0, symName: __ZNSt3__19allocatorIcE10deallocateB7v160006EPcm, symObjAddr: 0xF20C, symBinAddr: 0x100011394, symSize: 0x40 }
  - { offsetInCU: 0x661A4, offset: 0x661A4, size: 0x8, addend: 0x0, symName: __ZNSt3__112basic_stringIcNS_11char_traitsIcEENS_9allocatorIcEEE19__move_assign_allocB7v160006ERS5_NS_17integral_constantIbLb1EEE, symObjAddr: 0xF24C, symBinAddr: 0x1000113D4, symSize: 0x38 }
  - { offsetInCU: 0x661E5, offset: 0x661E5, size: 0x8, addend: 0x0, symName: __ZNSt3__18_IterOpsINS_17_ClassicAlgPolicyEE4nextB7v160006IPNS_4pairINS_12basic_stringIcNS_11char_traitsIcEENS_9allocatorIcEEEEiEEEET_SD_SD_, symObjAddr: 0xF284, symBinAddr: 0x10001140C, symSize: 0x18 }
  - { offsetInCU: 0x6621C, offset: 0x6621C, size: 0x8, addend: 0x0, symName: __ZNSt3__118__unwrap_iter_implINS_11__wrap_iterIPNS_4pairINS_12basic_stringIcNS_11char_traitsIcEENS_9allocatorIcEEEEiEEEELb1EE8__unwrapB7v160006ESB_, symObjAddr: 0xFC04, symBinAddr: 0x100011D8C, symSize: 0x28 }
  - { offsetInCU: 0x66245, offset: 0x66245, size: 0x8, addend: 0x0, symName: __ZNSt3__119__to_address_helperINS_11__wrap_iterIPNS_4pairINS_12basic_stringIcNS_11char_traitsIcEENS_9allocatorIcEEEEiEEEEvE6__callB7v160006ERKSB_, symObjAddr: 0xFC50, symBinAddr: 0x100011DD8, symSize: 0x30 }
  - { offsetInCU: 0x66268, offset: 0x66268, size: 0x8, addend: 0x0, symName: __ZNSt3__114pointer_traitsINS_11__wrap_iterIPNS_4pairINS_12basic_stringIcNS_11char_traitsIcEENS_9allocatorIcEEEEiEEEEE10to_addressB7v160006ESB_, symObjAddr: 0xFC80, symBinAddr: 0x100011E08, symSize: 0x2C }
  - { offsetInCU: 0x6628C, offset: 0x6628C, size: 0x8, addend: 0x0, symName: __ZNKSt3__111__wrap_iterIPNS_4pairINS_12basic_stringIcNS_11char_traitsIcEENS_9allocatorIcEEEEiEEE4baseB7v160006Ev, symObjAddr: 0xFCAC, symBinAddr: 0x100011E34, symSize: 0x18 }
  - { offsetInCU: 0x662B2, offset: 0x662B2, size: 0x8, addend: 0x0, symName: __ZNSt3__16vectorINS_4pairINS_12basic_stringIcNS_11char_traitsIcEENS_9allocatorIcEEEEiEENS5_IS8_EEE11__make_iterB7v160006EPS8_, symObjAddr: 0xFCC4, symBinAddr: 0x100011E4C, symSize: 0x34 }
  - { offsetInCU: 0x662E7, offset: 0x662E7, size: 0x8, addend: 0x0, symName: __ZNSt3__111__wrap_iterIPNS_4pairINS_12basic_stringIcNS_11char_traitsIcEENS_9allocatorIcEEEEiEEEC1B7v160006EPKvS9_, symObjAddr: 0xFCF8, symBinAddr: 0x100011E80, symSize: 0x3C }
  - { offsetInCU: 0x6632D, offset: 0x6632D, size: 0x8, addend: 0x0, symName: __ZNSt3__111__wrap_iterIPNS_4pairINS_12basic_stringIcNS_11char_traitsIcEENS_9allocatorIcEEEEiEEEC2B7v160006EPKvS9_, symObjAddr: 0xFD34, symBinAddr: 0x100011EBC, symSize: 0x24 }
  - { offsetInCU: 0x66373, offset: 0x66373, size: 0x8, addend: 0x0, symName: __ZNSt3__111__wrap_iterIPNS_4pairINS_12basic_stringIcNS_11char_traitsIcEENS_9allocatorIcEEEEiEEEppB7v160006Ev, symObjAddr: 0xFFE8, symBinAddr: 0x100012170, symSize: 0x20 }
  - { offsetInCU: 0x663A4, offset: 0x663A4, size: 0x8, addend: 0x0, symName: __ZNKSt3__110__equal_toclB7v160006INS_4pairINS_12basic_stringIcNS_11char_traitsIcEENS_9allocatorIcEEEEiEES9_EEbRKT_RKT0_, symObjAddr: 0x10008, symBinAddr: 0x100012190, symSize: 0x34 }
  - { offsetInCU: 0x663F8, offset: 0x663F8, size: 0x8, addend: 0x0, symName: __ZNKSt3__111__wrap_iterIPNS_4pairINS_12basic_stringIcNS_11char_traitsIcEENS_9allocatorIcEEEEiEEEdeB7v160006Ev, symObjAddr: 0x1003C, symBinAddr: 0x1000121C4, symSize: 0x18 }
  - { offsetInCU: 0x6641E, offset: 0x6641E, size: 0x8, addend: 0x0, symName: __ZNSt3__18_IterOpsINS_17_ClassicAlgPolicyEE11__iter_moveB7v160006IRNS_11__wrap_iterIPNS_4pairINS_12basic_stringIcNS_11char_traitsIcEENS_9allocatorIcEEEEiEEEEEENS_9enable_ifIXsr12is_referenceIDTdeclsr3stdE7declvalIRT_EEEEE5valueEDTclsr3stdE4movedeclsr3stdE7declvalISI_EEEEE4typeEOSH_, symObjAddr: 0x10054, symBinAddr: 0x1000121DC, symSize: 0x28 }
  - { offsetInCU: 0x6646D, offset: 0x6646D, size: 0x8, addend: 0x0, symName: __ZNSt3__14pairINS_11__wrap_iterIPNS0_INS_12basic_stringIcNS_11char_traitsIcEENS_9allocatorIcEEEEiEEEESA_EC1B7v160006ISA_SA_LPv0EEEOT_OT0_, symObjAddr: 0x1007C, symBinAddr: 0x100012204, symSize: 0x3C }
  - { offsetInCU: 0x664CB, offset: 0x664CB, size: 0x8, addend: 0x0, symName: __ZNSt3__14pairINS_11__wrap_iterIPNS0_INS_12basic_stringIcNS_11char_traitsIcEENS_9allocatorIcEEEEiEEEESA_EC1B7v160006IRSA_SD_LPv0EEEOT_OT0_, symObjAddr: 0x100B8, symBinAddr: 0x100012240, symSize: 0x3C }
  - { offsetInCU: 0x66529, offset: 0x66529, size: 0x8, addend: 0x0, symName: __ZNSt3__18_IterOpsINS_17_ClassicAlgPolicyEE25__validate_iter_referenceB7v160006IRNS_11__wrap_iterIPNS_4pairINS_12basic_stringIcNS_11char_traitsIcEENS_9allocatorIcEEEEiEEEEEEvv, symObjAddr: 0x101A0, symBinAddr: 0x100012328, symSize: 0x4 }
  - { offsetInCU: 0x66547, offset: 0x66547, size: 0x8, addend: 0x0, symName: __ZNSt3__14pairINS_11__wrap_iterIPNS0_INS_12basic_stringIcNS_11char_traitsIcEENS_9allocatorIcEEEEiEEEESA_EC2B7v160006ISA_SA_LPv0EEEOT_OT0_, symObjAddr: 0x101A4, symBinAddr: 0x10001232C, symSize: 0x34 }
  - { offsetInCU: 0x665A5, offset: 0x665A5, size: 0x8, addend: 0x0, symName: __ZNSt3__14pairINS_11__wrap_iterIPNS0_INS_12basic_stringIcNS_11char_traitsIcEENS_9allocatorIcEEEEiEEEESA_EC2B7v160006IRSA_SD_LPv0EEEOT_OT0_, symObjAddr: 0x101D8, symBinAddr: 0x100012360, symSize: 0x34 }
  - { offsetInCU: 0x66603, offset: 0x66603, size: 0x8, addend: 0x0, symName: __ZNSt3__16vectorINS_4pairINS_12basic_stringIcNS_11char_traitsIcEENS_9allocatorIcEEEEiEENS5_IS8_EEE17__destruct_at_endB7v160006EPS8_, symObjAddr: 0x10288, symBinAddr: 0x100012410, symSize: 0x60 }
  - { offsetInCU: 0x66647, offset: 0x66647, size: 0x8, addend: 0x0, symName: __ZNSt3__16vectorINS_4pairINS_12basic_stringIcNS_11char_traitsIcEENS_9allocatorIcEEEEiEENS5_IS8_EEE27__invalidate_iterators_pastB7v160006EPS8_, symObjAddr: 0x10370, symBinAddr: 0x1000124F8, symSize: 0x14 }
  - { offsetInCU: 0x6667E, offset: 0x6667E, size: 0x8, addend: 0x0, symName: __ZNKSt3__111__wrap_iterIPKNS_4pairINS_12basic_stringIcNS_11char_traitsIcEENS_9allocatorIcEEEEiEEE4baseB7v160006Ev, symObjAddr: 0x10384, symBinAddr: 0x10001250C, symSize: 0x18 }
  - { offsetInCU: 0x666A4, offset: 0x666A4, size: 0x8, addend: 0x0, symName: __ZNSt3__16vectorINS_4pairINS_12basic_stringIcNS_11char_traitsIcEENS_9allocatorIcEEEEiEENS5_IS8_EEE22__base_destruct_at_endB7v160006EPS8_, symObjAddr: 0x103E4, symBinAddr: 0x10001256C, symSize: 0x8C }
  - { offsetInCU: 0x666E8, offset: 0x666E8, size: 0x8, addend: 0x0, symName: __ZNKSt3__16vectorINS_4pairINS_12basic_stringIcNS_11char_traitsIcEENS_9allocatorIcEEEEiEENS5_IS8_EEE17__annotate_shrinkB7v160006Em, symObjAddr: 0x10470, symBinAddr: 0x1000125F8, symSize: 0xB4 }
  - { offsetInCU: 0x6673A, offset: 0x6673A, size: 0x8, addend: 0x0, symName: __ZNKSt3__111__move_loopINS_17_ClassicAlgPolicyEEclB7v160006IPNS_4pairINS_12basic_stringIcNS_11char_traitsIcEENS_9allocatorIcEEEEiEESC_SC_EENS4_IT_T1_EESD_T0_SE_, symObjAddr: 0x1069C, symBinAddr: 0x100012824, symSize: 0x90 }
  - { offsetInCU: 0x667A5, offset: 0x667A5, size: 0x8, addend: 0x0, symName: __ZNSt3__119__unwrap_range_implIPNS_4pairINS_12basic_stringIcNS_11char_traitsIcEENS_9allocatorIcEEEEiEES9_E8__unwrapB7v160006ES9_S9_, symObjAddr: 0x107F0, symBinAddr: 0x100012978, symSize: 0x58 }
  - { offsetInCU: 0x667DC, offset: 0x667DC, size: 0x8, addend: 0x0, symName: __ZNSt3__14pairIPNS0_INS_12basic_stringIcNS_11char_traitsIcEENS_9allocatorIcEEEEiEES8_EC1B7v160006IS8_S8_LPv0EEEOT_OT0_, symObjAddr: 0x10848, symBinAddr: 0x1000129D0, symSize: 0x3C }
  - { offsetInCU: 0x6683A, offset: 0x6683A, size: 0x8, addend: 0x0, symName: __ZNSt3__14pairIPNS0_INS_12basic_stringIcNS_11char_traitsIcEENS_9allocatorIcEEEEiEES8_EC2B7v160006IS8_S8_LPv0EEEOT_OT0_, symObjAddr: 0x10884, symBinAddr: 0x100012A0C, symSize: 0x34 }
  - { offsetInCU: 0x66898, offset: 0x66898, size: 0x8, addend: 0x0, symName: __ZNSt3__118__unwrap_iter_implIPNS_4pairINS_12basic_stringIcNS_11char_traitsIcEENS_9allocatorIcEEEEiEELb1EE8__unwrapB7v160006ES9_, symObjAddr: 0x108B8, symBinAddr: 0x100012A40, symSize: 0x24 }
  - { offsetInCU: 0x668BB, offset: 0x668BB, size: 0x8, addend: 0x0, symName: __ZNSt3__119__unwrap_range_implIPNS_4pairINS_12basic_stringIcNS_11char_traitsIcEENS_9allocatorIcEEEEiEES9_E8__rewrapB7v160006ES9_S9_, symObjAddr: 0x108DC, symBinAddr: 0x100012A64, symSize: 0x2C }
  - { offsetInCU: 0x668EC, offset: 0x668EC, size: 0x8, addend: 0x0, symName: __ZNSt3__118__unwrap_iter_implIPNS_4pairINS_12basic_stringIcNS_11char_traitsIcEENS_9allocatorIcEEEEiEELb1EE8__rewrapB7v160006ES9_S9_, symObjAddr: 0x10908, symBinAddr: 0x100012A90, symSize: 0x50 }
  - { offsetInCU: 0x6691D, offset: 0x6691D, size: 0x8, addend: 0x0, symName: __ZNSt3__111__wrap_iterIPKNS_4pairINS_12basic_stringIcNS_11char_traitsIcEENS_9allocatorIcEEEEiEEEC2B7v160006IPS8_EERKNS0_IT_EEPNS_9enable_ifIXsr14is_convertibleISE_SA_EE5valueEvE4typeE, symObjAddr: 0x10958, symBinAddr: 0x100012AE0, symSize: 0x40 }
  - { offsetInCU: 0x66969, offset: 0x66969, size: 0x8, addend: 0x0, symName: __ZNKSt3__16vectorINS_12basic_stringIcNS_11char_traitsIcEENS_9allocatorIcEEEENS4_IS6_EEE11__make_iterB7v160006EPKS6_, symObjAddr: 0x10998, symBinAddr: 0x100012B20, symSize: 0x34 }
  - { offsetInCU: 0x6699E, offset: 0x6699E, size: 0x8, addend: 0x0, symName: __ZNSt3__111__wrap_iterIPKNS_12basic_stringIcNS_11char_traitsIcEENS_9allocatorIcEEEEEC1B7v160006EPKvS8_, symObjAddr: 0x109CC, symBinAddr: 0x100012B54, symSize: 0x3C }
  - { offsetInCU: 0x669E4, offset: 0x669E4, size: 0x8, addend: 0x0, symName: __ZNSt3__111__wrap_iterIPKNS_12basic_stringIcNS_11char_traitsIcEENS_9allocatorIcEEEEEC2B7v160006EPKvS8_, symObjAddr: 0x10A08, symBinAddr: 0x100012B90, symSize: 0x24 }
  - { offsetInCU: 0x66A2A, offset: 0x66A2A, size: 0x8, addend: 0x0, symName: __ZNKSt3__111__wrap_iterIPKNS_12basic_stringIcNS_11char_traitsIcEENS_9allocatorIcEEEEE4baseB7v160006Ev, symObjAddr: 0x10A74, symBinAddr: 0x100012BFC, symSize: 0x18 }
  - { offsetInCU: 0x66A50, offset: 0x66A50, size: 0x8, addend: 0x0, symName: __ZNSt3__16vectorINS_5tupleIJ8InlineTR11DataEntryEQ5EqlotEEENS_9allocatorIS5_EEE11__make_iterB7v160006EPS5_, symObjAddr: 0x10A8C, symBinAddr: 0x100012C14, symSize: 0x34 }
  - { offsetInCU: 0x66A85, offset: 0x66A85, size: 0x8, addend: 0x0, symName: __ZNSt3__111__wrap_iterIPNS_5tupleIJ8InlineTR11DataEntryEQ5EqlotEEEEC1B7v160006EPKvS6_, symObjAddr: 0x10AC0, symBinAddr: 0x100012C48, symSize: 0x3C }
  - { offsetInCU: 0x66ACB, offset: 0x66ACB, size: 0x8, addend: 0x0, symName: __ZNSt3__111__wrap_iterIPNS_5tupleIJ8InlineTR11DataEntryEQ5EqlotEEEEC2B7v160006EPKvS6_, symObjAddr: 0x10AFC, symBinAddr: 0x100012C84, symSize: 0x24 }
  - { offsetInCU: 0x66B11, offset: 0x66B11, size: 0x8, addend: 0x0, symName: __ZNKSt3__111__wrap_iterIPNS_5tupleIJ8InlineTR11DataEntryEQ5EqlotEEEE4baseB7v160006Ev, symObjAddr: 0x10B68, symBinAddr: 0x100012CF0, symSize: 0x18 }
  - { offsetInCU: 0x66B37, offset: 0x66B37, size: 0x8, addend: 0x0, symName: __ZNKSt3__112__tuple_leafILm0E8InlineTRLb0EE3getB7v160006Ev, symObjAddr: 0x10B80, symBinAddr: 0x100012D08, symSize: 0x14 }
  - { offsetInCU: 0x66B5D, offset: 0x66B5D, size: 0x8, addend: 0x0, symName: __ZNKSt3__112__tuple_leafILm1E11DataEntryEQLb0EE3getB7v160006Ev, symObjAddr: 0x10B94, symBinAddr: 0x100012D1C, symSize: 0x14 }
  - { offsetInCU: 0x66B83, offset: 0x66B83, size: 0x8, addend: 0x0, symName: __ZNKSt3__112__tuple_leafILm2E5EqlotLb0EE3getB7v160006Ev, symObjAddr: 0x10BA8, symBinAddr: 0x100012D30, symSize: 0x14 }
  - { offsetInCU: 0x66BA9, offset: 0x66BA9, size: 0x8, addend: 0x0, symName: __ZNSt3__16vectorINS0_IdNS_9allocatorIdEEEENS1_IS3_EEED2B7v160006Ev, symObjAddr: 0x10BBC, symBinAddr: 0x100012D44, symSize: 0x44 }
  - { offsetInCU: 0x66BD3, offset: 0x66BD3, size: 0x8, addend: 0x0, symName: __ZNSt3__16vectorINS0_IdNS_9allocatorIdEEEENS1_IS3_EEE16__destroy_vectorC1ERS5_, symObjAddr: 0x10C00, symBinAddr: 0x100012D88, symSize: 0x34 }
  - { offsetInCU: 0x66C0C, offset: 0x66C0C, size: 0x8, addend: 0x0, symName: __ZNSt3__16vectorINS0_IdNS_9allocatorIdEEEENS1_IS3_EEE16__destroy_vectorclB7v160006Ev, symObjAddr: 0x10C34, symBinAddr: 0x100012DBC, symSize: 0x9C }
  - { offsetInCU: 0x66C32, offset: 0x66C32, size: 0x8, addend: 0x0, symName: __ZNSt3__16vectorINS0_IdNS_9allocatorIdEEEENS1_IS3_EEE16__destroy_vectorC2ERS5_, symObjAddr: 0x10CD0, symBinAddr: 0x100012E58, symSize: 0x20 }
  - { offsetInCU: 0x66C6B, offset: 0x66C6B, size: 0x8, addend: 0x0, symName: __ZNKSt3__16vectorINS0_IdNS_9allocatorIdEEEENS1_IS3_EEE17__annotate_deleteB7v160006Ev, symObjAddr: 0x10CF0, symBinAddr: 0x100012E78, symSize: 0xD4 }
  - { offsetInCU: 0x66C91, offset: 0x66C91, size: 0x8, addend: 0x0, symName: __ZNSt3__16vectorINS0_IdNS_9allocatorIdEEEENS1_IS3_EEE7__clearB7v160006Ev, symObjAddr: 0x10DD4, symBinAddr: 0x100012F5C, symSize: 0x28 }
  - { offsetInCU: 0x66CB7, offset: 0x66CB7, size: 0x8, addend: 0x0, symName: __ZNSt3__116allocator_traitsINS_9allocatorINS_6vectorIdNS1_IdEEEEEEE10deallocateB7v160006ERS5_PS4_m, symObjAddr: 0x10DFC, symBinAddr: 0x100012F84, symSize: 0x34 }
  - { offsetInCU: 0x66CF9, offset: 0x66CF9, size: 0x8, addend: 0x0, symName: __ZNSt3__16vectorINS0_IdNS_9allocatorIdEEEENS1_IS3_EEE7__allocB7v160006Ev, symObjAddr: 0x10E30, symBinAddr: 0x100012FB8, symSize: 0x28 }
  - { offsetInCU: 0x66D1F, offset: 0x66D1F, size: 0x8, addend: 0x0, symName: __ZNKSt3__16vectorINS0_IdNS_9allocatorIdEEEENS1_IS3_EEE8capacityB7v160006Ev, symObjAddr: 0x10E58, symBinAddr: 0x100012FE0, symSize: 0x40 }
  - { offsetInCU: 0x66D45, offset: 0x66D45, size: 0x8, addend: 0x0, symName: __ZNKSt3__16vectorINS0_IdNS_9allocatorIdEEEENS1_IS3_EEE31__annotate_contiguous_containerB7v160006EPKvS7_S7_S7_, symObjAddr: 0x10E98, symBinAddr: 0x100013020, symSize: 0x20 }
  - { offsetInCU: 0x66D9B, offset: 0x66D9B, size: 0x8, addend: 0x0, symName: __ZNKSt3__16vectorINS0_IdNS_9allocatorIdEEEENS1_IS3_EEE4dataB7v160006Ev, symObjAddr: 0x10EB8, symBinAddr: 0x100013040, symSize: 0x28 }
  - { offsetInCU: 0x66DC1, offset: 0x66DC1, size: 0x8, addend: 0x0, symName: __ZNKSt3__16vectorINS0_IdNS_9allocatorIdEEEENS1_IS3_EEE4sizeB7v160006Ev, symObjAddr: 0x10EE0, symBinAddr: 0x100013068, symSize: 0x28 }
  - { offsetInCU: 0x66DE7, offset: 0x66DE7, size: 0x8, addend: 0x0, symName: __ZNSt3__16vectorINS0_IdNS_9allocatorIdEEEENS1_IS3_EEE22__base_destruct_at_endB7v160006EPS3_, symObjAddr: 0x10F1C, symBinAddr: 0x1000130A4, symSize: 0x8C }
  - { offsetInCU: 0x66E2B, offset: 0x66E2B, size: 0x8, addend: 0x0, symName: __ZNSt3__116allocator_traitsINS_9allocatorINS_6vectorIdNS1_IdEEEEEEE7destroyB7v160006IS4_vvEEvRS5_PT_, symObjAddr: 0x10FA8, symBinAddr: 0x100013130, symSize: 0x28 }
  - { offsetInCU: 0x66E66, offset: 0x66E66, size: 0x8, addend: 0x0, symName: __ZNSt3__19allocatorINS_6vectorIdNS0_IdEEEEE10deallocateB7v160006EPS3_m, symObjAddr: 0x11018, symBinAddr: 0x1000131A0, symSize: 0x44 }
  - { offsetInCU: 0x66EA8, offset: 0x66EA8, size: 0x8, addend: 0x0, symName: __ZNSt3__117__compressed_pairIPNS_6vectorIdNS_9allocatorIdEEEENS2_IS4_EEE6secondB7v160006Ev, symObjAddr: 0x1105C, symBinAddr: 0x1000131E4, symSize: 0x24 }
  - { offsetInCU: 0x66ECE, offset: 0x66ECE, size: 0x8, addend: 0x0, symName: __ZNSt3__122__compressed_pair_elemINS_9allocatorINS_6vectorIdNS1_IdEEEEEELi1ELb1EE5__getB7v160006Ev, symObjAddr: 0x11080, symBinAddr: 0x100013208, symSize: 0x14 }
  - { offsetInCU: 0x66EF4, offset: 0x66EF4, size: 0x8, addend: 0x0, symName: __ZNKSt3__16vectorINS0_IdNS_9allocatorIdEEEENS1_IS3_EEE9__end_capB7v160006Ev, symObjAddr: 0x11094, symBinAddr: 0x10001321C, symSize: 0x28 }
  - { offsetInCU: 0x66F1A, offset: 0x66F1A, size: 0x8, addend: 0x0, symName: __ZNKSt3__117__compressed_pairIPNS_6vectorIdNS_9allocatorIdEEEENS2_IS4_EEE5firstB7v160006Ev, symObjAddr: 0x110BC, symBinAddr: 0x100013244, symSize: 0x24 }
  - { offsetInCU: 0x66F40, offset: 0x66F40, size: 0x8, addend: 0x0, symName: __ZNKSt3__122__compressed_pair_elemIPNS_6vectorIdNS_9allocatorIdEEEELi0ELb0EE5__getB7v160006Ev, symObjAddr: 0x110E0, symBinAddr: 0x100013268, symSize: 0x14 }
  - { offsetInCU: 0x66F66, offset: 0x66F66, size: 0x8, addend: 0x0, symName: __ZNSt3__16vectorINS_5tupleIJ3WAT11DataEntryEQ8InlineTR5EqlotEEENS_9allocatorIS6_EEE11__make_iterB7v160006EPS6_, symObjAddr: 0x110F4, symBinAddr: 0x10001327C, symSize: 0x34 }
  - { offsetInCU: 0x66F9B, offset: 0x66F9B, size: 0x8, addend: 0x0, symName: __ZNSt3__111__wrap_iterIPNS_5tupleIJ3WAT11DataEntryEQ8InlineTR5EqlotEEEEC1B7v160006EPKvS7_, symObjAddr: 0x11128, symBinAddr: 0x1000132B0, symSize: 0x3C }
  - { offsetInCU: 0x66FE1, offset: 0x66FE1, size: 0x8, addend: 0x0, symName: __ZNSt3__111__wrap_iterIPNS_5tupleIJ3WAT11DataEntryEQ8InlineTR5EqlotEEEEC2B7v160006EPKvS7_, symObjAddr: 0x11164, symBinAddr: 0x1000132EC, symSize: 0x24 }
  - { offsetInCU: 0x67027, offset: 0x67027, size: 0x8, addend: 0x0, symName: __ZNKSt3__111__wrap_iterIPNS_5tupleIJ3WAT11DataEntryEQ8InlineTR5EqlotEEEE4baseB7v160006Ev, symObjAddr: 0x111D0, symBinAddr: 0x100013358, symSize: 0x18 }
  - { offsetInCU: 0x6704D, offset: 0x6704D, size: 0x8, addend: 0x0, symName: __ZNKSt3__112__tuple_leafILm0E3WATLb0EE3getB7v160006Ev, symObjAddr: 0x111E8, symBinAddr: 0x100013370, symSize: 0x14 }
  - { offsetInCU: 0x67073, offset: 0x67073, size: 0x8, addend: 0x0, symName: __ZNKSt3__112__tuple_leafILm2E8InlineTRLb0EE3getB7v160006Ev, symObjAddr: 0x111FC, symBinAddr: 0x100013384, symSize: 0x14 }
  - { offsetInCU: 0x67099, offset: 0x67099, size: 0x8, addend: 0x0, symName: __ZNKSt3__112__tuple_leafILm3E5EqlotLb0EE3getB7v160006Ev, symObjAddr: 0x11210, symBinAddr: 0x100013398, symSize: 0x14 }
  - { offsetInCU: 0x670BF, offset: 0x670BF, size: 0x8, addend: 0x0, symName: __ZNSt3__16vectorINS_5tupleIJ6Defect11DataEntryEQ5EqlotEEENS_9allocatorIS5_EEE11__make_iterB7v160006EPS5_, symObjAddr: 0x11224, symBinAddr: 0x1000133AC, symSize: 0x34 }
  - { offsetInCU: 0x670F4, offset: 0x670F4, size: 0x8, addend: 0x0, symName: __ZNSt3__111__wrap_iterIPNS_5tupleIJ6Defect11DataEntryEQ5EqlotEEEEC1B7v160006EPKvS6_, symObjAddr: 0x11258, symBinAddr: 0x1000133E0, symSize: 0x3C }
  - { offsetInCU: 0x6713A, offset: 0x6713A, size: 0x8, addend: 0x0, symName: __ZNSt3__111__wrap_iterIPNS_5tupleIJ6Defect11DataEntryEQ5EqlotEEEEC2B7v160006EPKvS6_, symObjAddr: 0x11294, symBinAddr: 0x10001341C, symSize: 0x24 }
  - { offsetInCU: 0x67180, offset: 0x67180, size: 0x8, addend: 0x0, symName: __ZNKSt3__111__wrap_iterIPNS_5tupleIJ6Defect11DataEntryEQ5EqlotEEEE4baseB7v160006Ev, symObjAddr: 0x11300, symBinAddr: 0x100013488, symSize: 0x18 }
  - { offsetInCU: 0x671A6, offset: 0x671A6, size: 0x8, addend: 0x0, symName: __ZNKSt3__112__tuple_leafILm0E6DefectLb0EE3getB7v160006Ev, symObjAddr: 0x11318, symBinAddr: 0x1000134A0, symSize: 0x14 }
  - { offsetInCU: 0x671CC, offset: 0x671CC, size: 0x8, addend: 0x0, symName: __ZNSt3__16vectorINS_5tupleIJ3WAT8InlineTR11DataEntryEQ5EqlotEEENS_9allocatorIS6_EEE11__make_iterB7v160006EPS6_, symObjAddr: 0x1132C, symBinAddr: 0x1000134B4, symSize: 0x34 }
  - { offsetInCU: 0x67201, offset: 0x67201, size: 0x8, addend: 0x0, symName: __ZNSt3__111__wrap_iterIPNS_5tupleIJ3WAT8InlineTR11DataEntryEQ5EqlotEEEEC1B7v160006EPKvS7_, symObjAddr: 0x11360, symBinAddr: 0x1000134E8, symSize: 0x3C }
  - { offsetInCU: 0x67247, offset: 0x67247, size: 0x8, addend: 0x0, symName: __ZNSt3__111__wrap_iterIPNS_5tupleIJ3WAT8InlineTR11DataEntryEQ5EqlotEEEEC2B7v160006EPKvS7_, symObjAddr: 0x1139C, symBinAddr: 0x100013524, symSize: 0x24 }
  - { offsetInCU: 0x6728D, offset: 0x6728D, size: 0x8, addend: 0x0, symName: __ZNKSt3__111__wrap_iterIPNS_5tupleIJ3WAT8InlineTR11DataEntryEQ5EqlotEEEE4baseB7v160006Ev, symObjAddr: 0x11408, symBinAddr: 0x100013590, symSize: 0x18 }
  - { offsetInCU: 0x672B3, offset: 0x672B3, size: 0x8, addend: 0x0, symName: __ZNKSt3__112__tuple_leafILm1E8InlineTRLb0EE3getB7v160006Ev, symObjAddr: 0x11420, symBinAddr: 0x1000135A8, symSize: 0x14 }
  - { offsetInCU: 0x672D9, offset: 0x672D9, size: 0x8, addend: 0x0, symName: __ZNKSt3__112__tuple_leafILm2E11DataEntryEQLb0EE3getB7v160006Ev, symObjAddr: 0x11434, symBinAddr: 0x1000135BC, symSize: 0x14 }
  - { offsetInCU: 0x672FF, offset: 0x672FF, size: 0x8, addend: 0x0, symName: __ZN5Eigen8internal5all_tC2Ev, symObjAddr: 0x11448, symBinAddr: 0x1000135D0, symSize: 0x14 }
  - { offsetInCU: 0x67329, offset: 0x67329, size: 0x8, addend: 0x0, symName: __ZNSt3__14pairIKNS_12basic_stringIcNS_11char_traitsIcEENS_9allocatorIcEEEES6_EC2B7v160006IRA16_KcRA11_SA_LPv0EEEOT_OT0_, symObjAddr: 0x1145C, symBinAddr: 0x1000135E4, symSize: 0x70 }
  - { offsetInCU: 0x67387, offset: 0x67387, size: 0x8, addend: 0x0, symName: __ZNSt3__14pairIKNS_12basic_stringIcNS_11char_traitsIcEENS_9allocatorIcEEEES6_EC2B7v160006IRA12_KcRA7_SA_LPv0EEEOT_OT0_, symObjAddr: 0x114CC, symBinAddr: 0x100013654, symSize: 0x70 }
  - { offsetInCU: 0x673E5, offset: 0x673E5, size: 0x8, addend: 0x0, symName: __ZNSt3__16vectorIdNS_9allocatorIdEEEC2B7v160006ESt16initializer_listIdE, symObjAddr: 0x1153C, symBinAddr: 0x1000136C4, symSize: 0x124 }
  - { offsetInCU: 0x67436, offset: 0x67436, size: 0x8, addend: 0x0, symName: __ZNSt3__117__compressed_pairIPdNS_9allocatorIdEEEC1B7v160006IDnNS_18__default_init_tagEEEOT_OT0_, symObjAddr: 0x11660, symBinAddr: 0x1000137E8, symSize: 0x3C }
  - { offsetInCU: 0x6748E, offset: 0x6748E, size: 0x8, addend: 0x0, symName: __ZNSt3__16vectorIdNS_9allocatorIdEEE16__destroy_vectorC1ERS3_, symObjAddr: 0x116DC, symBinAddr: 0x100013864, symSize: 0x34 }
  - { offsetInCU: 0x674C7, offset: 0x674C7, size: 0x8, addend: 0x0, symName: __ZNKSt16initializer_listIdE4sizeB7v160006Ev, symObjAddr: 0x11720, symBinAddr: 0x1000138A8, symSize: 0x18 }
  - { offsetInCU: 0x674ED, offset: 0x674ED, size: 0x8, addend: 0x0, symName: __ZNSt3__16vectorIdNS_9allocatorIdEEE11__vallocateB7v160006Em, symObjAddr: 0x11738, symBinAddr: 0x1000138C0, symSize: 0xAC }
  - { offsetInCU: 0x67531, offset: 0x67531, size: 0x8, addend: 0x0, symName: __ZNSt3__16vectorIdNS_9allocatorIdEEE18__construct_at_endIPKdLi0EEEvT_S7_m, symObjAddr: 0x117E4, symBinAddr: 0x10001396C, symSize: 0x8C }
  - { offsetInCU: 0x675A4, offset: 0x675A4, size: 0x8, addend: 0x0, symName: __ZNKSt16initializer_listIdE5beginB7v160006Ev, symObjAddr: 0x11870, symBinAddr: 0x1000139F8, symSize: 0x18 }
  - { offsetInCU: 0x675CA, offset: 0x675CA, size: 0x8, addend: 0x0, symName: __ZNKSt16initializer_listIdE3endB7v160006Ev, symObjAddr: 0x11888, symBinAddr: 0x100013A10, symSize: 0x20 }
  - { offsetInCU: 0x675F0, offset: 0x675F0, size: 0x8, addend: 0x0, symName: __ZNSt3__128__exception_guard_exceptionsINS_6vectorIdNS_9allocatorIdEEE16__destroy_vectorEE10__completeB7v160006Ev, symObjAddr: 0x118A8, symBinAddr: 0x100013A30, symSize: 0x1C }
  - { offsetInCU: 0x67616, offset: 0x67616, size: 0x8, addend: 0x0, symName: __ZNSt3__128__exception_guard_exceptionsINS_6vectorIdNS_9allocatorIdEEE16__destroy_vectorEED1B7v160006Ev, symObjAddr: 0x118C4, symBinAddr: 0x100013A4C, symSize: 0x2C }
  - { offsetInCU: 0x67640, offset: 0x67640, size: 0x8, addend: 0x0, symName: __ZNSt3__117__compressed_pairIPdNS_9allocatorIdEEEC2B7v160006IDnNS_18__default_init_tagEEEOT_OT0_, symObjAddr: 0x118F0, symBinAddr: 0x100013A78, symSize: 0x40 }
  - { offsetInCU: 0x67698, offset: 0x67698, size: 0x8, addend: 0x0, symName: __ZNSt3__122__compressed_pair_elemIPdLi0ELb0EEC2B7v160006IDnvEEOT_, symObjAddr: 0x11930, symBinAddr: 0x100013AB8, symSize: 0x1C }
  - { offsetInCU: 0x676DA, offset: 0x676DA, size: 0x8, addend: 0x0, symName: __ZNSt3__122__compressed_pair_elemINS_9allocatorIdEELi1ELb1EEC2B7v160006ENS_18__default_init_tagE, symObjAddr: 0x1194C, symBinAddr: 0x100013AD4, symSize: 0x2C }
  - { offsetInCU: 0x6770F, offset: 0x6770F, size: 0x8, addend: 0x0, symName: __ZNSt3__19allocatorIdEC2B7v160006Ev, symObjAddr: 0x11978, symBinAddr: 0x100013B00, symSize: 0x2C }
  - { offsetInCU: 0x67739, offset: 0x67739, size: 0x8, addend: 0x0, symName: __ZNSt3__116__non_trivial_ifILb1ENS_9allocatorIdEEEC2B7v160006Ev, symObjAddr: 0x119A4, symBinAddr: 0x100013B2C, symSize: 0x14 }
  - { offsetInCU: 0x67763, offset: 0x67763, size: 0x8, addend: 0x0, symName: __ZNSt3__128__exception_guard_exceptionsINS_6vectorIdNS_9allocatorIdEEE16__destroy_vectorEEC1B7v160006ES5_, symObjAddr: 0x119B8, symBinAddr: 0x100013B40, symSize: 0x34 }
  - { offsetInCU: 0x6779B, offset: 0x6779B, size: 0x8, addend: 0x0, symName: __ZNSt3__128__exception_guard_exceptionsINS_6vectorIdNS_9allocatorIdEEE16__destroy_vectorEEC2B7v160006ES5_, symObjAddr: 0x119EC, symBinAddr: 0x100013B74, symSize: 0x24 }
  - { offsetInCU: 0x677D3, offset: 0x677D3, size: 0x8, addend: 0x0, symName: __ZNSt3__16vectorIdNS_9allocatorIdEEE16__destroy_vectorC2ERS3_, symObjAddr: 0x11A10, symBinAddr: 0x100013B98, symSize: 0x20 }
  - { offsetInCU: 0x6780C, offset: 0x6780C, size: 0x8, addend: 0x0, symName: __ZNKSt3__16vectorIdNS_9allocatorIdEEE8max_sizeEv, symObjAddr: 0x11A30, symBinAddr: 0x100013BB8, symSize: 0x60 }
  - { offsetInCU: 0x67834, offset: 0x67834, size: 0x8, addend: 0x0, symName: __ZNKSt3__16vectorIdNS_9allocatorIdEEE20__throw_length_errorB7v160006Ev, symObjAddr: 0x11A90, symBinAddr: 0x100013C18, symSize: 0x1C }
  - { offsetInCU: 0x6785A, offset: 0x6785A, size: 0x8, addend: 0x0, symName: __ZNSt3__16vectorIdNS_9allocatorIdEEE7__allocB7v160006Ev, symObjAddr: 0x11AEC, symBinAddr: 0x100013C74, symSize: 0x28 }
  - { offsetInCU: 0x67880, offset: 0x67880, size: 0x8, addend: 0x0, symName: __ZNSt3__16vectorIdNS_9allocatorIdEEE9__end_capB7v160006Ev, symObjAddr: 0x11B14, symBinAddr: 0x100013C9C, symSize: 0x28 }
  - { offsetInCU: 0x678A6, offset: 0x678A6, size: 0x8, addend: 0x0, symName: __ZNKSt3__16vectorIdNS_9allocatorIdEEE14__annotate_newB7v160006Em, symObjAddr: 0x11B3C, symBinAddr: 0x100013CC4, symSize: 0xAC }
  - { offsetInCU: 0x678E6, offset: 0x678E6, size: 0x8, addend: 0x0, symName: __ZNSt3__116allocator_traitsINS_9allocatorIdEEE8max_sizeB7v160006IS2_vvEEmRKS2_, symObjAddr: 0x11BE8, symBinAddr: 0x100013D70, symSize: 0x28 }
  - { offsetInCU: 0x67912, offset: 0x67912, size: 0x8, addend: 0x0, symName: __ZNKSt3__16vectorIdNS_9allocatorIdEEE7__allocB7v160006Ev, symObjAddr: 0x11C10, symBinAddr: 0x100013D98, symSize: 0x28 }
  - { offsetInCU: 0x67938, offset: 0x67938, size: 0x8, addend: 0x0, symName: __ZNKSt3__117__compressed_pairIPdNS_9allocatorIdEEE6secondB7v160006Ev, symObjAddr: 0x11C38, symBinAddr: 0x100013DC0, symSize: 0x24 }
  - { offsetInCU: 0x6795E, offset: 0x6795E, size: 0x8, addend: 0x0, symName: __ZNKSt3__122__compressed_pair_elemINS_9allocatorIdEELi1ELb1EE5__getB7v160006Ev, symObjAddr: 0x11C5C, symBinAddr: 0x100013DE4, symSize: 0x14 }
  - { offsetInCU: 0x67984, offset: 0x67984, size: 0x8, addend: 0x0, symName: __ZNSt3__19allocatorIdE8allocateB7v160006Em, symObjAddr: 0x11C70, symBinAddr: 0x100013DF8, symSize: 0x58 }
  - { offsetInCU: 0x679B8, offset: 0x679B8, size: 0x8, addend: 0x0, symName: __ZNSt3__117__compressed_pairIPdNS_9allocatorIdEEE6secondB7v160006Ev, symObjAddr: 0x11CC8, symBinAddr: 0x100013E50, symSize: 0x24 }
  - { offsetInCU: 0x679DE, offset: 0x679DE, size: 0x8, addend: 0x0, symName: __ZNSt3__122__compressed_pair_elemINS_9allocatorIdEELi1ELb1EE5__getB7v160006Ev, symObjAddr: 0x11CEC, symBinAddr: 0x100013E74, symSize: 0x14 }
  - { offsetInCU: 0x67A04, offset: 0x67A04, size: 0x8, addend: 0x0, symName: __ZNSt3__117__compressed_pairIPdNS_9allocatorIdEEE5firstB7v160006Ev, symObjAddr: 0x11D00, symBinAddr: 0x100013E88, symSize: 0x24 }
  - { offsetInCU: 0x67A2A, offset: 0x67A2A, size: 0x8, addend: 0x0, symName: __ZNSt3__122__compressed_pair_elemIPdLi0ELb0EE5__getB7v160006Ev, symObjAddr: 0x11D24, symBinAddr: 0x100013EAC, symSize: 0x14 }
  - { offsetInCU: 0x67A50, offset: 0x67A50, size: 0x8, addend: 0x0, symName: __ZNKSt3__16vectorIdNS_9allocatorIdEEE31__annotate_contiguous_containerB7v160006EPKvS5_S5_S5_, symObjAddr: 0x11D38, symBinAddr: 0x100013EC0, symSize: 0x20 }
  - { offsetInCU: 0x67AA6, offset: 0x67AA6, size: 0x8, addend: 0x0, symName: __ZNKSt3__16vectorIdNS_9allocatorIdEEE4dataB7v160006Ev, symObjAddr: 0x11D58, symBinAddr: 0x100013EE0, symSize: 0x28 }
  - { offsetInCU: 0x67ACC, offset: 0x67ACC, size: 0x8, addend: 0x0, symName: __ZNKSt3__16vectorIdNS_9allocatorIdEEE8capacityB7v160006Ev, symObjAddr: 0x11D80, symBinAddr: 0x100013F08, symSize: 0x40 }
  - { offsetInCU: 0x67AF2, offset: 0x67AF2, size: 0x8, addend: 0x0, symName: __ZNKSt3__16vectorIdNS_9allocatorIdEEE9__end_capB7v160006Ev, symObjAddr: 0x11DD4, symBinAddr: 0x100013F5C, symSize: 0x28 }
  - { offsetInCU: 0x67B18, offset: 0x67B18, size: 0x8, addend: 0x0, symName: __ZNKSt3__117__compressed_pairIPdNS_9allocatorIdEEE5firstB7v160006Ev, symObjAddr: 0x11DFC, symBinAddr: 0x100013F84, symSize: 0x24 }
  - { offsetInCU: 0x67B3E, offset: 0x67B3E, size: 0x8, addend: 0x0, symName: __ZNKSt3__122__compressed_pair_elemIPdLi0ELb0EE5__getB7v160006Ev, symObjAddr: 0x11E20, symBinAddr: 0x100013FA8, symSize: 0x14 }
  - { offsetInCU: 0x67B80, offset: 0x67B80, size: 0x8, addend: 0x0, symName: __ZNSt3__16vectorIdNS_9allocatorIdEEE21_ConstructTransactionC1B7v160006ERS3_m, symObjAddr: 0x11E34, symBinAddr: 0x100013FBC, symSize: 0x3C }
  - { offsetInCU: 0x67BC8, offset: 0x67BC8, size: 0x8, addend: 0x0, symName: __ZNSt3__16vectorIdNS_9allocatorIdEEE21_ConstructTransactionD1B7v160006Ev, symObjAddr: 0x11EA8, symBinAddr: 0x100014030, symSize: 0x2C }
  - { offsetInCU: 0x67BF2, offset: 0x67BF2, size: 0x8, addend: 0x0, symName: __ZNSt3__16vectorIdNS_9allocatorIdEEE21_ConstructTransactionC2B7v160006ERS3_m, symObjAddr: 0x11ED4, symBinAddr: 0x10001405C, symSize: 0x44 }
  - { offsetInCU: 0x67C62, offset: 0x67C62, size: 0x8, addend: 0x0, symName: __ZNKSt3__114__copy_trivialclB7v160006IKddLi0EEENS_4pairIPT_PT0_EES5_S5_S7_, symObjAddr: 0x120D0, symBinAddr: 0x100014258, symSize: 0x48 }
  - { offsetInCU: 0x67CE7, offset: 0x67CE7, size: 0x8, addend: 0x0, symName: __ZNSt3__119__unwrap_range_implIPKdS2_E8__unwrapB7v160006ES2_S2_, symObjAddr: 0x121DC, symBinAddr: 0x100014364, symSize: 0x58 }
  - { offsetInCU: 0x67D1E, offset: 0x67D1E, size: 0x8, addend: 0x0, symName: __ZNSt3__14pairIPKdS2_EC1B7v160006IS2_S2_LPv0EEEOT_OT0_, symObjAddr: 0x12258, symBinAddr: 0x1000143E0, symSize: 0x3C }
  - { offsetInCU: 0x67D7C, offset: 0x67D7C, size: 0x8, addend: 0x0, symName: __ZNSt3__118__unwrap_iter_implIPKdLb1EE8__unwrapB7v160006ES2_, symObjAddr: 0x12294, symBinAddr: 0x10001441C, symSize: 0x24 }
  - { offsetInCU: 0x67D9F, offset: 0x67D9F, size: 0x8, addend: 0x0, symName: __ZNSt3__14pairIPKdS2_EC2B7v160006IS2_S2_LPv0EEEOT_OT0_, symObjAddr: 0x122CC, symBinAddr: 0x100014454, symSize: 0x34 }
  - { offsetInCU: 0x67E09, offset: 0x67E09, size: 0x8, addend: 0x0, symName: __ZNSt3__14pairIPKdPdEC1B7v160006IRS2_S3_LPv0EEEOT_OT0_, symObjAddr: 0x123BC, symBinAddr: 0x100014544, symSize: 0x3C }
  - { offsetInCU: 0x67E67, offset: 0x67E67, size: 0x8, addend: 0x0, symName: __ZNSt3__14pairIPKdPdEC2B7v160006IRS2_S3_LPv0EEEOT_OT0_, symObjAddr: 0x123F8, symBinAddr: 0x100014580, symSize: 0x34 }
  - { offsetInCU: 0x67EC5, offset: 0x67EC5, size: 0x8, addend: 0x0, symName: __ZNSt3__118__unwrap_iter_implIPdLb1EE8__unwrapB7v160006ES1_, symObjAddr: 0x1242C, symBinAddr: 0x1000145B4, symSize: 0x24 }
  - { offsetInCU: 0x67EE8, offset: 0x67EE8, size: 0x8, addend: 0x0, symName: __ZNSt3__14pairIPKdPdEC1B7v160006IS2_S3_LPv0EEEOT_OT0_, symObjAddr: 0x12450, symBinAddr: 0x1000145D8, symSize: 0x3C }
  - { offsetInCU: 0x67F46, offset: 0x67F46, size: 0x8, addend: 0x0, symName: __ZNSt3__14pairIPKdPdEC2B7v160006IS2_S3_LPv0EEEOT_OT0_, symObjAddr: 0x1248C, symBinAddr: 0x100014614, symSize: 0x34 }
  - { offsetInCU: 0x67FA4, offset: 0x67FA4, size: 0x8, addend: 0x0, symName: __ZNSt3__119__unwrap_range_implIPKdS2_E8__rewrapB7v160006ES2_S2_, symObjAddr: 0x124C0, symBinAddr: 0x100014648, symSize: 0x2C }
  - { offsetInCU: 0x67FD5, offset: 0x67FD5, size: 0x8, addend: 0x0, symName: __ZNSt3__118__unwrap_iter_implIPKdLb1EE8__rewrapB7v160006ES2_S2_, symObjAddr: 0x12528, symBinAddr: 0x1000146B0, symSize: 0x50 }
  - { offsetInCU: 0x68006, offset: 0x68006, size: 0x8, addend: 0x0, symName: __ZNSt3__118__unwrap_iter_implIPdLb1EE8__rewrapB7v160006ES1_S1_, symObjAddr: 0x12578, symBinAddr: 0x100014700, symSize: 0x50 }
  - { offsetInCU: 0x68037, offset: 0x68037, size: 0x8, addend: 0x0, symName: __ZNSt3__16vectorIdNS_9allocatorIdEEE21_ConstructTransactionD2B7v160006Ev, symObjAddr: 0x125C8, symBinAddr: 0x100014750, symSize: 0x20 }
  - { offsetInCU: 0x68061, offset: 0x68061, size: 0x8, addend: 0x0, symName: __ZNSt3__128__exception_guard_exceptionsINS_6vectorIdNS_9allocatorIdEEE16__destroy_vectorEED2B7v160006Ev, symObjAddr: 0x125E8, symBinAddr: 0x100014770, symSize: 0x50 }
  - { offsetInCU: 0x6808B, offset: 0x6808B, size: 0x8, addend: 0x0, symName: __ZNSt3__16vectorIdNS_9allocatorIdEEE16__destroy_vectorclB7v160006Ev, symObjAddr: 0x12638, symBinAddr: 0x1000147C0, symSize: 0x9C }
  - { offsetInCU: 0x680B1, offset: 0x680B1, size: 0x8, addend: 0x0, symName: __ZNKSt3__16vectorIdNS_9allocatorIdEEE17__annotate_deleteB7v160006Ev, symObjAddr: 0x126D4, symBinAddr: 0x10001485C, symSize: 0xB8 }
  - { offsetInCU: 0x680D7, offset: 0x680D7, size: 0x8, addend: 0x0, symName: __ZNSt3__16vectorIdNS_9allocatorIdEEE7__clearB7v160006Ev, symObjAddr: 0x1279C, symBinAddr: 0x100014924, symSize: 0x28 }
  - { offsetInCU: 0x680FD, offset: 0x680FD, size: 0x8, addend: 0x0, symName: __ZNSt3__116allocator_traitsINS_9allocatorIdEEE10deallocateB7v160006ERS2_Pdm, symObjAddr: 0x127C4, symBinAddr: 0x10001494C, symSize: 0x34 }
  - { offsetInCU: 0x6813F, offset: 0x6813F, size: 0x8, addend: 0x0, symName: __ZNKSt3__16vectorIdNS_9allocatorIdEEE4sizeB7v160006Ev, symObjAddr: 0x127F8, symBinAddr: 0x100014980, symSize: 0x28 }
  - { offsetInCU: 0x68165, offset: 0x68165, size: 0x8, addend: 0x0, symName: __ZNSt3__16vectorIdNS_9allocatorIdEEE22__base_destruct_at_endB7v160006EPd, symObjAddr: 0x12820, symBinAddr: 0x1000149A8, symSize: 0x8C }
  - { offsetInCU: 0x681A9, offset: 0x681A9, size: 0x8, addend: 0x0, symName: __ZNSt3__116allocator_traitsINS_9allocatorIdEEE7destroyB7v160006IdvvEEvRS2_PT_, symObjAddr: 0x128AC, symBinAddr: 0x100014A34, symSize: 0x28 }
  - { offsetInCU: 0x681E4, offset: 0x681E4, size: 0x8, addend: 0x0, symName: __ZNSt3__19allocatorIdE10deallocateB7v160006EPdm, symObjAddr: 0x12908, symBinAddr: 0x100014A90, symSize: 0x40 }
  - { offsetInCU: 0x68226, offset: 0x68226, size: 0x8, addend: 0x0, symName: __ZNSt3__16vectorIdNS_9allocatorIdEEED2B7v160006Ev, symObjAddr: 0x12948, symBinAddr: 0x100014AD0, symSize: 0x44 }
  - { offsetInCU: 0x68250, offset: 0x68250, size: 0x8, addend: 0x0, symName: __ZNKSt3__16vectorI6DefectNS_9allocatorIS1_EEE4sizeB7v160006Ev, symObjAddr: 0x1298C, symBinAddr: 0x100014B14, symSize: 0x28 }
  - { offsetInCU: 0x68276, offset: 0x68276, size: 0x8, addend: 0x0, symName: __ZNSt3__16vectorI6DefectNS_9allocatorIS1_EEE7__clearB7v160006Ev, symObjAddr: 0x129B4, symBinAddr: 0x100014B3C, symSize: 0x28 }
  - { offsetInCU: 0x6829C, offset: 0x6829C, size: 0x8, addend: 0x0, symName: __ZNKSt3__16vectorI6DefectNS_9allocatorIS1_EEE17__annotate_shrinkB7v160006Em, symObjAddr: 0x129DC, symBinAddr: 0x100014B64, symSize: 0xD0 }
  - { offsetInCU: 0x682D1, offset: 0x682D1, size: 0x8, addend: 0x0, symName: __ZNSt3__16vectorI6DefectNS_9allocatorIS1_EEE22__base_destruct_at_endB7v160006EPS1_, symObjAddr: 0x12ABC, symBinAddr: 0x100014C44, symSize: 0x8C }
  - { offsetInCU: 0x68315, offset: 0x68315, size: 0x8, addend: 0x0, symName: __ZNSt3__116allocator_traitsINS_9allocatorI6DefectEEE7destroyB7v160006IS2_vvEEvRS3_PT_, symObjAddr: 0x12B48, symBinAddr: 0x100014CD0, symSize: 0x28 }
  - { offsetInCU: 0x68350, offset: 0x68350, size: 0x8, addend: 0x0, symName: __ZNSt3__16vectorI6DefectNS_9allocatorIS1_EEE7__allocB7v160006Ev, symObjAddr: 0x12B70, symBinAddr: 0x100014CF8, symSize: 0x28 }
  - { offsetInCU: 0x68376, offset: 0x68376, size: 0x8, addend: 0x0, symName: __ZN6DefectD1Ev, symObjAddr: 0x12BF4, symBinAddr: 0x100014D7C, symSize: 0x2C }
  - { offsetInCU: 0x683A2, offset: 0x683A2, size: 0x8, addend: 0x0, symName: __ZN6DefectD2Ev, symObjAddr: 0x12C20, symBinAddr: 0x100014DA8, symSize: 0x80 }
  - { offsetInCU: 0x683CE, offset: 0x683CE, size: 0x8, addend: 0x0, symName: __ZNSt3__117__compressed_pairIP6DefectNS_9allocatorIS1_EEE6secondB7v160006Ev, symObjAddr: 0x12CA0, symBinAddr: 0x100014E28, symSize: 0x24 }
  - { offsetInCU: 0x683F4, offset: 0x683F4, size: 0x8, addend: 0x0, symName: __ZNSt3__122__compressed_pair_elemINS_9allocatorI6DefectEELi1ELb1EE5__getB7v160006Ev, symObjAddr: 0x12CC4, symBinAddr: 0x100014E4C, symSize: 0x14 }
  - { offsetInCU: 0x6841A, offset: 0x6841A, size: 0x8, addend: 0x0, symName: __ZNKSt3__16vectorI6DefectNS_9allocatorIS1_EEE31__annotate_contiguous_containerB7v160006EPKvS6_S6_S6_, symObjAddr: 0x12CD8, symBinAddr: 0x100014E60, symSize: 0x20 }
  - { offsetInCU: 0x68470, offset: 0x68470, size: 0x8, addend: 0x0, symName: __ZNKSt3__16vectorI6DefectNS_9allocatorIS1_EEE4dataB7v160006Ev, symObjAddr: 0x12CF8, symBinAddr: 0x100014E80, symSize: 0x28 }
  - { offsetInCU: 0x68496, offset: 0x68496, size: 0x8, addend: 0x0, symName: __ZNKSt3__16vectorI6DefectNS_9allocatorIS1_EEE8capacityB7v160006Ev, symObjAddr: 0x12D20, symBinAddr: 0x100014EA8, symSize: 0x40 }
  - { offsetInCU: 0x684BC, offset: 0x684BC, size: 0x8, addend: 0x0, symName: __ZNKSt3__16vectorI6DefectNS_9allocatorIS1_EEE9__end_capB7v160006Ev, symObjAddr: 0x12D60, symBinAddr: 0x100014EE8, symSize: 0x28 }
  - { offsetInCU: 0x684E2, offset: 0x684E2, size: 0x8, addend: 0x0, symName: __ZNKSt3__117__compressed_pairIP6DefectNS_9allocatorIS1_EEE5firstB7v160006Ev, symObjAddr: 0x12D88, symBinAddr: 0x100014F10, symSize: 0x24 }
  - { offsetInCU: 0x68508, offset: 0x68508, size: 0x8, addend: 0x0, symName: __ZNKSt3__122__compressed_pair_elemIP6DefectLi0ELb0EE5__getB7v160006Ev, symObjAddr: 0x12DAC, symBinAddr: 0x100014F34, symSize: 0x14 }
  - { offsetInCU: 0x6852E, offset: 0x6852E, size: 0x8, addend: 0x0, symName: __ZNSt3__114__split_bufferI6DefectRNS_9allocatorIS1_EEEC1EmmS4_, symObjAddr: 0x12DC0, symBinAddr: 0x100014F48, symSize: 0x44 }
  - { offsetInCU: 0x68584, offset: 0x68584, size: 0x8, addend: 0x0, symName: __ZNSt3__114__split_bufferI6DefectRNS_9allocatorIS1_EEED1Ev, symObjAddr: 0x12F1C, symBinAddr: 0x1000150A4, symSize: 0x2C }
  - { offsetInCU: 0x685B0, offset: 0x685B0, size: 0x8, addend: 0x0, symName: __ZNSt3__114__split_bufferI6DefectRNS_9allocatorIS1_EEEC2EmmS4_, symObjAddr: 0x12F48, symBinAddr: 0x1000150D0, symSize: 0xE0 }
  - { offsetInCU: 0x68623, offset: 0x68623, size: 0x8, addend: 0x0, symName: __ZNSt3__117__compressed_pairIP6DefectRNS_9allocatorIS1_EEEC1B7v160006IDnS5_EEOT_OT0_, symObjAddr: 0x13028, symBinAddr: 0x1000151B0, symSize: 0x3C }
  - { offsetInCU: 0x6867B, offset: 0x6867B, size: 0x8, addend: 0x0, symName: __ZNSt3__114__split_bufferI6DefectRNS_9allocatorIS1_EEE7__allocB7v160006Ev, symObjAddr: 0x130A4, symBinAddr: 0x10001522C, symSize: 0x28 }
  - { offsetInCU: 0x686A1, offset: 0x686A1, size: 0x8, addend: 0x0, symName: __ZNSt3__114__split_bufferI6DefectRNS_9allocatorIS1_EEE9__end_capB7v160006Ev, symObjAddr: 0x130CC, symBinAddr: 0x100015254, symSize: 0x28 }
  - { offsetInCU: 0x686C7, offset: 0x686C7, size: 0x8, addend: 0x0, symName: __ZNSt3__117__compressed_pairIP6DefectRNS_9allocatorIS1_EEEC2B7v160006IDnS5_EEOT_OT0_, symObjAddr: 0x130F4, symBinAddr: 0x10001527C, symSize: 0x48 }
  - { offsetInCU: 0x6871F, offset: 0x6871F, size: 0x8, addend: 0x0, symName: __ZNSt3__122__compressed_pair_elemIP6DefectLi0ELb0EEC2B7v160006IDnvEEOT_, symObjAddr: 0x1313C, symBinAddr: 0x1000152C4, symSize: 0x1C }
  - { offsetInCU: 0x68761, offset: 0x68761, size: 0x8, addend: 0x0, symName: __ZNSt3__122__compressed_pair_elemIRNS_9allocatorI6DefectEELi1ELb0EEC2B7v160006IS4_vEEOT_, symObjAddr: 0x13158, symBinAddr: 0x1000152E0, symSize: 0x20 }
  - { offsetInCU: 0x687A3, offset: 0x687A3, size: 0x8, addend: 0x0, symName: __ZNSt3__19allocatorI6DefectE8allocateB7v160006Em, symObjAddr: 0x13178, symBinAddr: 0x100015300, symSize: 0x5C }
  - { offsetInCU: 0x687E2, offset: 0x687E2, size: 0x8, addend: 0x0, symName: __ZNSt3__116allocator_traitsINS_9allocatorI6DefectEEE8max_sizeB7v160006IS3_vvEEmRKS3_, symObjAddr: 0x131D4, symBinAddr: 0x10001535C, symSize: 0x28 }
  - { offsetInCU: 0x6880E, offset: 0x6880E, size: 0x8, addend: 0x0, symName: __ZNSt3__117__compressed_pairIP6DefectRNS_9allocatorIS1_EEE6secondB7v160006Ev, symObjAddr: 0x131FC, symBinAddr: 0x100015384, symSize: 0x28 }
  - { offsetInCU: 0x68834, offset: 0x68834, size: 0x8, addend: 0x0, symName: __ZNSt3__122__compressed_pair_elemIRNS_9allocatorI6DefectEELi1ELb0EE5__getB7v160006Ev, symObjAddr: 0x13224, symBinAddr: 0x1000153AC, symSize: 0x18 }
  - { offsetInCU: 0x6885A, offset: 0x6885A, size: 0x8, addend: 0x0, symName: __ZNSt3__117__compressed_pairIP6DefectRNS_9allocatorIS1_EEE5firstB7v160006Ev, symObjAddr: 0x1323C, symBinAddr: 0x1000153C4, symSize: 0x24 }
  - { offsetInCU: 0x68880, offset: 0x68880, size: 0x8, addend: 0x0, symName: __ZNSt3__122__compressed_pair_elemIP6DefectLi0ELb0EE5__getB7v160006Ev, symObjAddr: 0x13260, symBinAddr: 0x1000153E8, symSize: 0x14 }
  - { offsetInCU: 0x688A6, offset: 0x688A6, size: 0x8, addend: 0x0, symName: __ZNKSt3__16vectorI6DefectNS_9allocatorIS1_EEE17__annotate_deleteB7v160006Ev, symObjAddr: 0x13274, symBinAddr: 0x1000153FC, symSize: 0xD4 }
  - { offsetInCU: 0x688CC, offset: 0x688CC, size: 0x8, addend: 0x0, symName: __ZNSt3__116reverse_iteratorIP6DefectEC1B7v160006ES2_, symObjAddr: 0x13474, symBinAddr: 0x1000155FC, symSize: 0x34 }
  - { offsetInCU: 0x68904, offset: 0x68904, size: 0x8, addend: 0x0, symName: __ZNKSt3__116reverse_iteratorIP6DefectE4baseB7v160006Ev, symObjAddr: 0x134A8, symBinAddr: 0x100015630, symSize: 0x18 }
  - { offsetInCU: 0x6892A, offset: 0x6892A, size: 0x8, addend: 0x0, symName: __ZNSt3__16vectorI6DefectNS_9allocatorIS1_EEE9__end_capB7v160006Ev, symObjAddr: 0x134FC, symBinAddr: 0x100015684, symSize: 0x28 }
  - { offsetInCU: 0x68950, offset: 0x68950, size: 0x8, addend: 0x0, symName: __ZNKSt3__16vectorI6DefectNS_9allocatorIS1_EEE14__annotate_newB7v160006Em, symObjAddr: 0x13524, symBinAddr: 0x1000156AC, symSize: 0xC8 }
  - { offsetInCU: 0x68985, offset: 0x68985, size: 0x8, addend: 0x0, symName: __ZNSt3__129_AllocatorDestroyRangeReverseINS_9allocatorI6DefectEENS_16reverse_iteratorIPS2_EEEC1B7v160006ERS3_RS6_S9_, symObjAddr: 0x13638, symBinAddr: 0x1000157C0, symSize: 0x44 }
  - { offsetInCU: 0x689E2, offset: 0x689E2, size: 0x8, addend: 0x0, symName: __ZNSt3__116allocator_traitsINS_9allocatorI6DefectEEE9constructB7v160006IS2_JS2_EvvEEvRS3_PT_DpOT0_, symObjAddr: 0x136C4, symBinAddr: 0x10001584C, symSize: 0x30 }
  - { offsetInCU: 0x68A37, offset: 0x68A37, size: 0x8, addend: 0x0, symName: __ZNKSt3__116reverse_iteratorIP6DefectEdeB7v160006Ev, symObjAddr: 0x13718, symBinAddr: 0x1000158A0, symSize: 0x28 }
  - { offsetInCU: 0x68A6B, offset: 0x68A6B, size: 0x8, addend: 0x0, symName: __ZNSt3__116reverse_iteratorIP6DefectEppB7v160006Ev, symObjAddr: 0x13740, symBinAddr: 0x1000158C8, symSize: 0x20 }
  - { offsetInCU: 0x68A91, offset: 0x68A91, size: 0x8, addend: 0x0, symName: __ZNSt3__128__exception_guard_exceptionsINS_29_AllocatorDestroyRangeReverseINS_9allocatorI6DefectEENS_16reverse_iteratorIPS3_EEEEE10__completeB7v160006Ev, symObjAddr: 0x13760, symBinAddr: 0x1000158E8, symSize: 0x1C }
  - { offsetInCU: 0x68AB7, offset: 0x68AB7, size: 0x8, addend: 0x0, symName: __ZNSt3__128__exception_guard_exceptionsINS_29_AllocatorDestroyRangeReverseINS_9allocatorI6DefectEENS_16reverse_iteratorIPS3_EEEEED1B7v160006Ev, symObjAddr: 0x1377C, symBinAddr: 0x100015904, symSize: 0x2C }
  - { offsetInCU: 0x68AE1, offset: 0x68AE1, size: 0x8, addend: 0x0, symName: __ZNSt3__128__exception_guard_exceptionsINS_29_AllocatorDestroyRangeReverseINS_9allocatorI6DefectEENS_16reverse_iteratorIPS3_EEEEEC1B7v160006ES8_, symObjAddr: 0x137A8, symBinAddr: 0x100015930, symSize: 0x34 }
  - { offsetInCU: 0x68B1A, offset: 0x68B1A, size: 0x8, addend: 0x0, symName: __ZNSt3__128__exception_guard_exceptionsINS_29_AllocatorDestroyRangeReverseINS_9allocatorI6DefectEENS_16reverse_iteratorIPS3_EEEEEC2B7v160006ES8_, symObjAddr: 0x137DC, symBinAddr: 0x100015964, symSize: 0x30 }
  - { offsetInCU: 0x68B53, offset: 0x68B53, size: 0x8, addend: 0x0, symName: __ZNSt3__129_AllocatorDestroyRangeReverseINS_9allocatorI6DefectEENS_16reverse_iteratorIPS2_EEEC2B7v160006ERS3_RS6_S9_, symObjAddr: 0x1380C, symBinAddr: 0x100015994, symSize: 0x38 }
  - { offsetInCU: 0x68BAA, offset: 0x68BAA, size: 0x8, addend: 0x0, symName: __ZN6DefectC1EOS_, symObjAddr: 0x13880, symBinAddr: 0x100015A08, symSize: 0x34 }
  - { offsetInCU: 0x68BDF, offset: 0x68BDF, size: 0x8, addend: 0x0, symName: __ZN6DefectC2EOS_, symObjAddr: 0x138B4, symBinAddr: 0x100015A3C, symSize: 0xD4 }
  - { offsetInCU: 0x68C14, offset: 0x68C14, size: 0x8, addend: 0x0, symName: __ZNSt3__16vectorINS_12basic_stringIcNS_11char_traitsIcEENS_9allocatorIcEEEENS4_IS6_EEEC1B7v160006EOS8_, symObjAddr: 0x13988, symBinAddr: 0x100015B10, symSize: 0x34 }
  - { offsetInCU: 0x68C4F, offset: 0x68C4F, size: 0x8, addend: 0x0, symName: __ZNSt3__16vectorINS_12basic_stringIcNS_11char_traitsIcEENS_9allocatorIcEEEENS4_IS6_EEEC2B7v160006EOS8_, symObjAddr: 0x139BC, symBinAddr: 0x100015B44, symSize: 0xDC }
  - { offsetInCU: 0x68C90, offset: 0x68C90, size: 0x8, addend: 0x0, symName: __ZNSt3__119__to_address_helperINS_16reverse_iteratorIP6DefectEEvE6__callB7v160006ERKS4_, symObjAddr: 0x13AAC, symBinAddr: 0x100015C34, symSize: 0x38 }
  - { offsetInCU: 0x68CB3, offset: 0x68CB3, size: 0x8, addend: 0x0, symName: __ZNKSt3__116reverse_iteratorIP6DefectEptB7v160006Ev, symObjAddr: 0x13AE4, symBinAddr: 0x100015C6C, symSize: 0x2C }
  - { offsetInCU: 0x68CD9, offset: 0x68CD9, size: 0x8, addend: 0x0, symName: __ZNSt3__128__exception_guard_exceptionsINS_29_AllocatorDestroyRangeReverseINS_9allocatorI6DefectEENS_16reverse_iteratorIPS3_EEEEED2B7v160006Ev, symObjAddr: 0x13BE0, symBinAddr: 0x100015D68, symSize: 0x50 }
  - { offsetInCU: 0x68D03, offset: 0x68D03, size: 0x8, addend: 0x0, symName: __ZNKSt3__129_AllocatorDestroyRangeReverseINS_9allocatorI6DefectEENS_16reverse_iteratorIPS2_EEEclB7v160006Ev, symObjAddr: 0x13C30, symBinAddr: 0x100015DB8, symSize: 0xB4 }
  - { offsetInCU: 0x68D2A, offset: 0x68D2A, size: 0x8, addend: 0x0, symName: __ZNSt3__116reverse_iteratorINS0_IP6DefectEEEC1B7v160006ES3_, symObjAddr: 0x13D54, symBinAddr: 0x100015EDC, symSize: 0x3C }
  - { offsetInCU: 0x68D62, offset: 0x68D62, size: 0x8, addend: 0x0, symName: __ZNSt3__116reverse_iteratorINS0_IP6DefectEEEppB7v160006Ev, symObjAddr: 0x13E14, symBinAddr: 0x100015F9C, symSize: 0x30 }
  - { offsetInCU: 0x68D88, offset: 0x68D88, size: 0x8, addend: 0x0, symName: __ZNKSt3__116reverse_iteratorINS0_IP6DefectEEE4baseB7v160006Ev, symObjAddr: 0x13E44, symBinAddr: 0x100015FCC, symSize: 0x24 }
  - { offsetInCU: 0x68DB4, offset: 0x68DB4, size: 0x8, addend: 0x0, symName: __ZNSt3__119__to_address_helperINS_16reverse_iteratorINS1_IP6DefectEEEEvE6__callB7v160006ERKS5_, symObjAddr: 0x13E68, symBinAddr: 0x100015FF0, symSize: 0x38 }
  - { offsetInCU: 0x68DD7, offset: 0x68DD7, size: 0x8, addend: 0x0, symName: __ZNKSt3__116reverse_iteratorINS0_IP6DefectEEEptB7v160006Ev, symObjAddr: 0x13EA0, symBinAddr: 0x100016028, symSize: 0x4C }
  - { offsetInCU: 0x68DFD, offset: 0x68DFD, size: 0x8, addend: 0x0, symName: __ZNSt3__116reverse_iteratorIP6DefectEpLB7v160006El, symObjAddr: 0x13FC8, symBinAddr: 0x100016150, symSize: 0x30 }
  - { offsetInCU: 0x68E31, offset: 0x68E31, size: 0x8, addend: 0x0, symName: __ZNSt3__116reverse_iteratorIP6DefectEmmB7v160006Ev, symObjAddr: 0x13FF8, symBinAddr: 0x100016180, symSize: 0x20 }
  - { offsetInCU: 0x68E57, offset: 0x68E57, size: 0x8, addend: 0x0, symName: __ZNSt3__116reverse_iteratorINS0_IP6DefectEEEC2B7v160006ES3_, symObjAddr: 0x14018, symBinAddr: 0x1000161A0, symSize: 0x2C }
  - { offsetInCU: 0x68E8F, offset: 0x68E8F, size: 0x8, addend: 0x0, symName: __ZNSt3__116reverse_iteratorIP6DefectEC2B7v160006ES2_, symObjAddr: 0x14044, symBinAddr: 0x1000161CC, symSize: 0x28 }
  - { offsetInCU: 0x68EC7, offset: 0x68EC7, size: 0x8, addend: 0x0, symName: __ZNSt3__117__compressed_pairIP6DefectNS_9allocatorIS1_EEE5firstB7v160006Ev, symObjAddr: 0x1406C, symBinAddr: 0x1000161F4, symSize: 0x24 }
  - { offsetInCU: 0x68EED, offset: 0x68EED, size: 0x8, addend: 0x0, symName: __ZNSt3__114__split_bufferI6DefectRNS_9allocatorIS1_EEED2Ev, symObjAddr: 0x14090, symBinAddr: 0x100016218, symSize: 0x8C }
  - { offsetInCU: 0x68F19, offset: 0x68F19, size: 0x8, addend: 0x0, symName: __ZNSt3__114__split_bufferI6DefectRNS_9allocatorIS1_EEE5clearB7v160006Ev, symObjAddr: 0x1411C, symBinAddr: 0x1000162A4, symSize: 0x28 }
  - { offsetInCU: 0x68F3F, offset: 0x68F3F, size: 0x8, addend: 0x0, symName: __ZNSt3__116allocator_traitsINS_9allocatorI6DefectEEE10deallocateB7v160006ERS3_PS2_m, symObjAddr: 0x14144, symBinAddr: 0x1000162CC, symSize: 0x34 }
  - { offsetInCU: 0x68F81, offset: 0x68F81, size: 0x8, addend: 0x0, symName: __ZNKSt3__114__split_bufferI6DefectRNS_9allocatorIS1_EEE8capacityB7v160006Ev, symObjAddr: 0x14178, symBinAddr: 0x100016300, symSize: 0x40 }
  - { offsetInCU: 0x68FA7, offset: 0x68FA7, size: 0x8, addend: 0x0, symName: __ZNSt3__114__split_bufferI6DefectRNS_9allocatorIS1_EEE17__destruct_at_endB7v160006EPS1_, symObjAddr: 0x141B8, symBinAddr: 0x100016340, symSize: 0x2C }
  - { offsetInCU: 0x68FDB, offset: 0x68FDB, size: 0x8, addend: 0x0, symName: __ZNSt3__114__split_bufferI6DefectRNS_9allocatorIS1_EEE17__destruct_at_endB7v160006EPS1_NS_17integral_constantIbLb0EEE, symObjAddr: 0x141E4, symBinAddr: 0x10001636C, symSize: 0x80 }
  - { offsetInCU: 0x6901C, offset: 0x6901C, size: 0x8, addend: 0x0, symName: __ZNSt3__19allocatorI6DefectE10deallocateB7v160006EPS1_m, symObjAddr: 0x14264, symBinAddr: 0x1000163EC, symSize: 0x44 }
  - { offsetInCU: 0x6905E, offset: 0x6905E, size: 0x8, addend: 0x0, symName: __ZNKSt3__114__split_bufferI6DefectRNS_9allocatorIS1_EEE9__end_capB7v160006Ev, symObjAddr: 0x142A8, symBinAddr: 0x100016430, symSize: 0x28 }
  - { offsetInCU: 0x69084, offset: 0x69084, size: 0x8, addend: 0x0, symName: __ZNKSt3__117__compressed_pairIP6DefectRNS_9allocatorIS1_EEE5firstB7v160006Ev, symObjAddr: 0x142D0, symBinAddr: 0x100016458, symSize: 0x24 }
  - { offsetInCU: 0x690AA, offset: 0x690AA, size: 0x8, addend: 0x0, symName: __ZNKSt3__16vectorI11DataEntryEQNS_9allocatorIS1_EEE4sizeB7v160006Ev, symObjAddr: 0x142F4, symBinAddr: 0x10001647C, symSize: 0x28 }
  - { offsetInCU: 0x690D0, offset: 0x690D0, size: 0x8, addend: 0x0, symName: __ZNSt3__16vectorI11DataEntryEQNS_9allocatorIS1_EEE7__clearB7v160006Ev, symObjAddr: 0x1431C, symBinAddr: 0x1000164A4, symSize: 0x28 }
  - { offsetInCU: 0x690F6, offset: 0x690F6, size: 0x8, addend: 0x0, symName: __ZNKSt3__16vectorI11DataEntryEQNS_9allocatorIS1_EEE17__annotate_shrinkB7v160006Em, symObjAddr: 0x14344, symBinAddr: 0x1000164CC, symSize: 0xD0 }
  - { offsetInCU: 0x6912B, offset: 0x6912B, size: 0x8, addend: 0x0, symName: __ZNSt3__16vectorI11DataEntryEQNS_9allocatorIS1_EEE22__base_destruct_at_endB7v160006EPS1_, symObjAddr: 0x14424, symBinAddr: 0x1000165AC, symSize: 0x8C }
  - { offsetInCU: 0x6916F, offset: 0x6916F, size: 0x8, addend: 0x0, symName: __ZNSt3__116allocator_traitsINS_9allocatorI11DataEntryEQEEE7destroyB7v160006IS2_vvEEvRS3_PT_, symObjAddr: 0x144B0, symBinAddr: 0x100016638, symSize: 0x28 }
  - { offsetInCU: 0x691AA, offset: 0x691AA, size: 0x8, addend: 0x0, symName: __ZNSt3__16vectorI11DataEntryEQNS_9allocatorIS1_EEE7__allocB7v160006Ev, symObjAddr: 0x144D8, symBinAddr: 0x100016660, symSize: 0x28 }
  - { offsetInCU: 0x691D0, offset: 0x691D0, size: 0x8, addend: 0x0, symName: __ZN11DataEntryEQD1Ev, symObjAddr: 0x1455C, symBinAddr: 0x1000166E4, symSize: 0x2C }
  - { offsetInCU: 0x691FC, offset: 0x691FC, size: 0x8, addend: 0x0, symName: __ZN11DataEntryEQD2Ev, symObjAddr: 0x14588, symBinAddr: 0x100016710, symSize: 0x164 }
  - { offsetInCU: 0x69228, offset: 0x69228, size: 0x8, addend: 0x0, symName: __ZNSt3__117__compressed_pairIP11DataEntryEQNS_9allocatorIS1_EEE6secondB7v160006Ev, symObjAddr: 0x146EC, symBinAddr: 0x100016874, symSize: 0x24 }
  - { offsetInCU: 0x6924E, offset: 0x6924E, size: 0x8, addend: 0x0, symName: __ZNSt3__122__compressed_pair_elemINS_9allocatorI11DataEntryEQEELi1ELb1EE5__getB7v160006Ev, symObjAddr: 0x14710, symBinAddr: 0x100016898, symSize: 0x14 }
  - { offsetInCU: 0x69274, offset: 0x69274, size: 0x8, addend: 0x0, symName: __ZNKSt3__16vectorI11DataEntryEQNS_9allocatorIS1_EEE31__annotate_contiguous_containerB7v160006EPKvS6_S6_S6_, symObjAddr: 0x14724, symBinAddr: 0x1000168AC, symSize: 0x20 }
  - { offsetInCU: 0x692CA, offset: 0x692CA, size: 0x8, addend: 0x0, symName: __ZNKSt3__16vectorI11DataEntryEQNS_9allocatorIS1_EEE4dataB7v160006Ev, symObjAddr: 0x14744, symBinAddr: 0x1000168CC, symSize: 0x28 }
  - { offsetInCU: 0x692F0, offset: 0x692F0, size: 0x8, addend: 0x0, symName: __ZNKSt3__16vectorI11DataEntryEQNS_9allocatorIS1_EEE8capacityB7v160006Ev, symObjAddr: 0x1476C, symBinAddr: 0x1000168F4, symSize: 0x40 }
  - { offsetInCU: 0x69316, offset: 0x69316, size: 0x8, addend: 0x0, symName: __ZNKSt3__16vectorI11DataEntryEQNS_9allocatorIS1_EEE9__end_capB7v160006Ev, symObjAddr: 0x147AC, symBinAddr: 0x100016934, symSize: 0x28 }
  - { offsetInCU: 0x6933C, offset: 0x6933C, size: 0x8, addend: 0x0, symName: __ZNKSt3__117__compressed_pairIP11DataEntryEQNS_9allocatorIS1_EEE5firstB7v160006Ev, symObjAddr: 0x147D4, symBinAddr: 0x10001695C, symSize: 0x24 }
  - { offsetInCU: 0x69362, offset: 0x69362, size: 0x8, addend: 0x0, symName: __ZNKSt3__122__compressed_pair_elemIP11DataEntryEQLi0ELb0EE5__getB7v160006Ev, symObjAddr: 0x147F8, symBinAddr: 0x100016980, symSize: 0x14 }
  - { offsetInCU: 0x69388, offset: 0x69388, size: 0x8, addend: 0x0, symName: __ZNSt3__114__split_bufferI11DataEntryEQRNS_9allocatorIS1_EEEC1EmmS4_, symObjAddr: 0x1480C, symBinAddr: 0x100016994, symSize: 0x44 }
  - { offsetInCU: 0x693DE, offset: 0x693DE, size: 0x8, addend: 0x0, symName: __ZNSt3__114__split_bufferI11DataEntryEQRNS_9allocatorIS1_EEED1Ev, symObjAddr: 0x14968, symBinAddr: 0x100016AF0, symSize: 0x2C }
  - { offsetInCU: 0x6940A, offset: 0x6940A, size: 0x8, addend: 0x0, symName: __ZNSt3__114__split_bufferI11DataEntryEQRNS_9allocatorIS1_EEEC2EmmS4_, symObjAddr: 0x14994, symBinAddr: 0x100016B1C, symSize: 0xE0 }
  - { offsetInCU: 0x6947D, offset: 0x6947D, size: 0x8, addend: 0x0, symName: __ZNSt3__117__compressed_pairIP11DataEntryEQRNS_9allocatorIS1_EEEC1B7v160006IDnS5_EEOT_OT0_, symObjAddr: 0x14A74, symBinAddr: 0x100016BFC, symSize: 0x3C }
  - { offsetInCU: 0x694D5, offset: 0x694D5, size: 0x8, addend: 0x0, symName: __ZNSt3__114__split_bufferI11DataEntryEQRNS_9allocatorIS1_EEE7__allocB7v160006Ev, symObjAddr: 0x14AF0, symBinAddr: 0x100016C78, symSize: 0x28 }
  - { offsetInCU: 0x694FB, offset: 0x694FB, size: 0x8, addend: 0x0, symName: __ZNSt3__114__split_bufferI11DataEntryEQRNS_9allocatorIS1_EEE9__end_capB7v160006Ev, symObjAddr: 0x14B18, symBinAddr: 0x100016CA0, symSize: 0x28 }
  - { offsetInCU: 0x69521, offset: 0x69521, size: 0x8, addend: 0x0, symName: __ZNSt3__117__compressed_pairIP11DataEntryEQRNS_9allocatorIS1_EEEC2B7v160006IDnS5_EEOT_OT0_, symObjAddr: 0x14B40, symBinAddr: 0x100016CC8, symSize: 0x48 }
  - { offsetInCU: 0x69579, offset: 0x69579, size: 0x8, addend: 0x0, symName: __ZNSt3__122__compressed_pair_elemIP11DataEntryEQLi0ELb0EEC2B7v160006IDnvEEOT_, symObjAddr: 0x14B88, symBinAddr: 0x100016D10, symSize: 0x1C }
  - { offsetInCU: 0x695BB, offset: 0x695BB, size: 0x8, addend: 0x0, symName: __ZNSt3__122__compressed_pair_elemIRNS_9allocatorI11DataEntryEQEELi1ELb0EEC2B7v160006IS4_vEEOT_, symObjAddr: 0x14BA4, symBinAddr: 0x100016D2C, symSize: 0x20 }
  - { offsetInCU: 0x695FD, offset: 0x695FD, size: 0x8, addend: 0x0, symName: __ZNSt3__19allocatorI11DataEntryEQE8allocateB7v160006Em, symObjAddr: 0x14BC4, symBinAddr: 0x100016D4C, symSize: 0x5C }
  - { offsetInCU: 0x6963C, offset: 0x6963C, size: 0x8, addend: 0x0, symName: __ZNSt3__116allocator_traitsINS_9allocatorI11DataEntryEQEEE8max_sizeB7v160006IS3_vvEEmRKS3_, symObjAddr: 0x14C20, symBinAddr: 0x100016DA8, symSize: 0x28 }
  - { offsetInCU: 0x69668, offset: 0x69668, size: 0x8, addend: 0x0, symName: __ZNSt3__117__compressed_pairIP11DataEntryEQRNS_9allocatorIS1_EEE6secondB7v160006Ev, symObjAddr: 0x14C48, symBinAddr: 0x100016DD0, symSize: 0x28 }
  - { offsetInCU: 0x6968E, offset: 0x6968E, size: 0x8, addend: 0x0, symName: __ZNSt3__122__compressed_pair_elemIRNS_9allocatorI11DataEntryEQEELi1ELb0EE5__getB7v160006Ev, symObjAddr: 0x14C70, symBinAddr: 0x100016DF8, symSize: 0x18 }
  - { offsetInCU: 0x696B4, offset: 0x696B4, size: 0x8, addend: 0x0, symName: __ZNSt3__117__compressed_pairIP11DataEntryEQRNS_9allocatorIS1_EEE5firstB7v160006Ev, symObjAddr: 0x14C88, symBinAddr: 0x100016E10, symSize: 0x24 }
  - { offsetInCU: 0x696DA, offset: 0x696DA, size: 0x8, addend: 0x0, symName: __ZNSt3__122__compressed_pair_elemIP11DataEntryEQLi0ELb0EE5__getB7v160006Ev, symObjAddr: 0x14CAC, symBinAddr: 0x100016E34, symSize: 0x14 }
  - { offsetInCU: 0x69700, offset: 0x69700, size: 0x8, addend: 0x0, symName: __ZNKSt3__16vectorI11DataEntryEQNS_9allocatorIS1_EEE17__annotate_deleteB7v160006Ev, symObjAddr: 0x14CC0, symBinAddr: 0x100016E48, symSize: 0xD4 }
  - { offsetInCU: 0x69726, offset: 0x69726, size: 0x8, addend: 0x0, symName: __ZNSt3__116reverse_iteratorIP11DataEntryEQEC1B7v160006ES2_, symObjAddr: 0x14EC0, symBinAddr: 0x100017048, symSize: 0x34 }
  - { offsetInCU: 0x6975E, offset: 0x6975E, size: 0x8, addend: 0x0, symName: __ZNKSt3__116reverse_iteratorIP11DataEntryEQE4baseB7v160006Ev, symObjAddr: 0x14EF4, symBinAddr: 0x10001707C, symSize: 0x18 }
  - { offsetInCU: 0x69784, offset: 0x69784, size: 0x8, addend: 0x0, symName: __ZNSt3__16vectorI11DataEntryEQNS_9allocatorIS1_EEE9__end_capB7v160006Ev, symObjAddr: 0x14F48, symBinAddr: 0x1000170D0, symSize: 0x28 }
  - { offsetInCU: 0x697AA, offset: 0x697AA, size: 0x8, addend: 0x0, symName: __ZNKSt3__16vectorI11DataEntryEQNS_9allocatorIS1_EEE14__annotate_newB7v160006Em, symObjAddr: 0x14F70, symBinAddr: 0x1000170F8, symSize: 0xC8 }
  - { offsetInCU: 0x697DF, offset: 0x697DF, size: 0x8, addend: 0x0, symName: __ZNSt3__129_AllocatorDestroyRangeReverseINS_9allocatorI11DataEntryEQEENS_16reverse_iteratorIPS2_EEEC1B7v160006ERS3_RS6_S9_, symObjAddr: 0x15084, symBinAddr: 0x10001720C, symSize: 0x44 }
  - { offsetInCU: 0x6983C, offset: 0x6983C, size: 0x8, addend: 0x0, symName: __ZNSt3__116allocator_traitsINS_9allocatorI11DataEntryEQEEE9constructB7v160006IS2_JS2_EvvEEvRS3_PT_DpOT0_, symObjAddr: 0x15110, symBinAddr: 0x100017298, symSize: 0x30 }
  - { offsetInCU: 0x69891, offset: 0x69891, size: 0x8, addend: 0x0, symName: __ZNKSt3__116reverse_iteratorIP11DataEntryEQEdeB7v160006Ev, symObjAddr: 0x15164, symBinAddr: 0x1000172EC, symSize: 0x28 }
  - { offsetInCU: 0x698C5, offset: 0x698C5, size: 0x8, addend: 0x0, symName: __ZNSt3__116reverse_iteratorIP11DataEntryEQEppB7v160006Ev, symObjAddr: 0x1518C, symBinAddr: 0x100017314, symSize: 0x20 }
  - { offsetInCU: 0x698EB, offset: 0x698EB, size: 0x8, addend: 0x0, symName: __ZNSt3__128__exception_guard_exceptionsINS_29_AllocatorDestroyRangeReverseINS_9allocatorI11DataEntryEQEENS_16reverse_iteratorIPS3_EEEEE10__completeB7v160006Ev, symObjAddr: 0x151AC, symBinAddr: 0x100017334, symSize: 0x1C }
  - { offsetInCU: 0x69911, offset: 0x69911, size: 0x8, addend: 0x0, symName: __ZNSt3__128__exception_guard_exceptionsINS_29_AllocatorDestroyRangeReverseINS_9allocatorI11DataEntryEQEENS_16reverse_iteratorIPS3_EEEEED1B7v160006Ev, symObjAddr: 0x151C8, symBinAddr: 0x100017350, symSize: 0x2C }
  - { offsetInCU: 0x6993B, offset: 0x6993B, size: 0x8, addend: 0x0, symName: __ZNSt3__128__exception_guard_exceptionsINS_29_AllocatorDestroyRangeReverseINS_9allocatorI11DataEntryEQEENS_16reverse_iteratorIPS3_EEEEEC1B7v160006ES8_, symObjAddr: 0x151F4, symBinAddr: 0x10001737C, symSize: 0x34 }
  - { offsetInCU: 0x69974, offset: 0x69974, size: 0x8, addend: 0x0, symName: __ZNSt3__128__exception_guard_exceptionsINS_29_AllocatorDestroyRangeReverseINS_9allocatorI11DataEntryEQEENS_16reverse_iteratorIPS3_EEEEEC2B7v160006ES8_, symObjAddr: 0x15228, symBinAddr: 0x1000173B0, symSize: 0x30 }
  - { offsetInCU: 0x699AD, offset: 0x699AD, size: 0x8, addend: 0x0, symName: __ZNSt3__129_AllocatorDestroyRangeReverseINS_9allocatorI11DataEntryEQEENS_16reverse_iteratorIPS2_EEEC2B7v160006ERS3_RS6_S9_, symObjAddr: 0x15258, symBinAddr: 0x1000173E0, symSize: 0x38 }
  - { offsetInCU: 0x69A04, offset: 0x69A04, size: 0x8, addend: 0x0, symName: __ZN11DataEntryEQC1EOS_, symObjAddr: 0x152CC, symBinAddr: 0x100017454, symSize: 0x34 }
  - { offsetInCU: 0x69A39, offset: 0x69A39, size: 0x8, addend: 0x0, symName: __ZN11DataEntryEQC2EOS_, symObjAddr: 0x15300, symBinAddr: 0x100017488, symSize: 0x268 }
  - { offsetInCU: 0x69A6E, offset: 0x69A6E, size: 0x8, addend: 0x0, symName: __ZNSt3__16vectorINS0_IdNS_9allocatorIdEEEENS1_IS3_EEEC1B7v160006EOS5_, symObjAddr: 0x15568, symBinAddr: 0x1000176F0, symSize: 0x34 }
  - { offsetInCU: 0x69AA9, offset: 0x69AA9, size: 0x8, addend: 0x0, symName: __ZNSt3__16vectorIdNS_9allocatorIdEEEC1B7v160006EOS3_, symObjAddr: 0x1559C, symBinAddr: 0x100017724, symSize: 0x34 }
  - { offsetInCU: 0x69AE4, offset: 0x69AE4, size: 0x8, addend: 0x0, symName: __ZNSt3__16vectorINS0_IdNS_9allocatorIdEEEENS1_IS3_EEEC2B7v160006EOS5_, symObjAddr: 0x155D0, symBinAddr: 0x100017758, symSize: 0xE0 }
  - { offsetInCU: 0x69B25, offset: 0x69B25, size: 0x8, addend: 0x0, symName: __ZNSt3__117__compressed_pairIPNS_6vectorIdNS_9allocatorIdEEEENS2_IS4_EEEC1B7v160006IDnS6_EEOT_OT0_, symObjAddr: 0x156B0, symBinAddr: 0x100017838, symSize: 0x3C }
  - { offsetInCU: 0x69B7D, offset: 0x69B7D, size: 0x8, addend: 0x0, symName: __ZNSt3__16vectorINS0_IdNS_9allocatorIdEEEENS1_IS3_EEE9__end_capB7v160006Ev, symObjAddr: 0x15710, symBinAddr: 0x100017898, symSize: 0x28 }
  - { offsetInCU: 0x69BA3, offset: 0x69BA3, size: 0x8, addend: 0x0, symName: __ZNSt3__117__compressed_pairIPNS_6vectorIdNS_9allocatorIdEEEENS2_IS4_EEEC2B7v160006IDnS6_EEOT_OT0_, symObjAddr: 0x15738, symBinAddr: 0x1000178C0, symSize: 0x44 }
  - { offsetInCU: 0x69BFB, offset: 0x69BFB, size: 0x8, addend: 0x0, symName: __ZNSt3__122__compressed_pair_elemIPNS_6vectorIdNS_9allocatorIdEEEELi0ELb0EEC2B7v160006IDnvEEOT_, symObjAddr: 0x1577C, symBinAddr: 0x100017904, symSize: 0x1C }
  - { offsetInCU: 0x69C3D, offset: 0x69C3D, size: 0x8, addend: 0x0, symName: __ZNSt3__122__compressed_pair_elemINS_9allocatorINS_6vectorIdNS1_IdEEEEEELi1ELb1EEC2B7v160006IS5_vEEOT_, symObjAddr: 0x15798, symBinAddr: 0x100017920, symSize: 0x18 }
  - { offsetInCU: 0x69C7F, offset: 0x69C7F, size: 0x8, addend: 0x0, symName: __ZNSt3__117__compressed_pairIPNS_6vectorIdNS_9allocatorIdEEEENS2_IS4_EEE5firstB7v160006Ev, symObjAddr: 0x157B0, symBinAddr: 0x100017938, symSize: 0x24 }
  - { offsetInCU: 0x69CA5, offset: 0x69CA5, size: 0x8, addend: 0x0, symName: __ZNSt3__122__compressed_pair_elemIPNS_6vectorIdNS_9allocatorIdEEEELi0ELb0EE5__getB7v160006Ev, symObjAddr: 0x157D4, symBinAddr: 0x10001795C, symSize: 0x14 }
  - { offsetInCU: 0x69CCB, offset: 0x69CCB, size: 0x8, addend: 0x0, symName: __ZNSt3__16vectorIdNS_9allocatorIdEEEC2B7v160006EOS3_, symObjAddr: 0x157E8, symBinAddr: 0x100017970, symSize: 0xDC }
  - { offsetInCU: 0x69D0C, offset: 0x69D0C, size: 0x8, addend: 0x0, symName: __ZNSt3__117__compressed_pairIPdNS_9allocatorIdEEEC1B7v160006IDnS3_EEOT_OT0_, symObjAddr: 0x158C4, symBinAddr: 0x100017A4C, symSize: 0x3C }
  - { offsetInCU: 0x69D64, offset: 0x69D64, size: 0x8, addend: 0x0, symName: __ZNSt3__117__compressed_pairIPdNS_9allocatorIdEEEC2B7v160006IDnS3_EEOT_OT0_, symObjAddr: 0x15914, symBinAddr: 0x100017A9C, symSize: 0x44 }
  - { offsetInCU: 0x69DBC, offset: 0x69DBC, size: 0x8, addend: 0x0, symName: __ZNSt3__122__compressed_pair_elemINS_9allocatorIdEELi1ELb1EEC2B7v160006IS2_vEEOT_, symObjAddr: 0x15958, symBinAddr: 0x100017AE0, symSize: 0x18 }
  - { offsetInCU: 0x69E04, offset: 0x69E04, size: 0x8, addend: 0x0, symName: __ZNSt3__119__to_address_helperINS_16reverse_iteratorIP11DataEntryEQEEvE6__callB7v160006ERKS4_, symObjAddr: 0x15970, symBinAddr: 0x100017AF8, symSize: 0x38 }
  - { offsetInCU: 0x69E27, offset: 0x69E27, size: 0x8, addend: 0x0, symName: __ZNKSt3__116reverse_iteratorIP11DataEntryEQEptB7v160006Ev, symObjAddr: 0x159A8, symBinAddr: 0x100017B30, symSize: 0x2C }
  - { offsetInCU: 0x69E4D, offset: 0x69E4D, size: 0x8, addend: 0x0, symName: __ZNSt3__128__exception_guard_exceptionsINS_29_AllocatorDestroyRangeReverseINS_9allocatorI11DataEntryEQEENS_16reverse_iteratorIPS3_EEEEED2B7v160006Ev, symObjAddr: 0x15AA4, symBinAddr: 0x100017C2C, symSize: 0x50 }
  - { offsetInCU: 0x69E77, offset: 0x69E77, size: 0x8, addend: 0x0, symName: __ZNKSt3__129_AllocatorDestroyRangeReverseINS_9allocatorI11DataEntryEQEENS_16reverse_iteratorIPS2_EEEclB7v160006Ev, symObjAddr: 0x15AF4, symBinAddr: 0x100017C7C, symSize: 0xB4 }
  - { offsetInCU: 0x69E9E, offset: 0x69E9E, size: 0x8, addend: 0x0, symName: __ZNSt3__116reverse_iteratorINS0_IP11DataEntryEQEEEC1B7v160006ES3_, symObjAddr: 0x15C18, symBinAddr: 0x100017DA0, symSize: 0x3C }
  - { offsetInCU: 0x69ED6, offset: 0x69ED6, size: 0x8, addend: 0x0, symName: __ZNSt3__116reverse_iteratorINS0_IP11DataEntryEQEEEppB7v160006Ev, symObjAddr: 0x15CD8, symBinAddr: 0x100017E60, symSize: 0x30 }
  - { offsetInCU: 0x69EFC, offset: 0x69EFC, size: 0x8, addend: 0x0, symName: __ZNKSt3__116reverse_iteratorINS0_IP11DataEntryEQEEE4baseB7v160006Ev, symObjAddr: 0x15D08, symBinAddr: 0x100017E90, symSize: 0x24 }
  - { offsetInCU: 0x69F28, offset: 0x69F28, size: 0x8, addend: 0x0, symName: __ZNSt3__119__to_address_helperINS_16reverse_iteratorINS1_IP11DataEntryEQEEEEvE6__callB7v160006ERKS5_, symObjAddr: 0x15D2C, symBinAddr: 0x100017EB4, symSize: 0x38 }
  - { offsetInCU: 0x69F4B, offset: 0x69F4B, size: 0x8, addend: 0x0, symName: __ZNKSt3__116reverse_iteratorINS0_IP11DataEntryEQEEEptB7v160006Ev, symObjAddr: 0x15D64, symBinAddr: 0x100017EEC, symSize: 0x4C }
  - { offsetInCU: 0x69F71, offset: 0x69F71, size: 0x8, addend: 0x0, symName: __ZNSt3__116reverse_iteratorIP11DataEntryEQEpLB7v160006El, symObjAddr: 0x15E8C, symBinAddr: 0x100018014, symSize: 0x30 }
  - { offsetInCU: 0x69FA5, offset: 0x69FA5, size: 0x8, addend: 0x0, symName: __ZNSt3__116reverse_iteratorIP11DataEntryEQEmmB7v160006Ev, symObjAddr: 0x15EBC, symBinAddr: 0x100018044, symSize: 0x20 }
  - { offsetInCU: 0x69FCB, offset: 0x69FCB, size: 0x8, addend: 0x0, symName: __ZNSt3__116reverse_iteratorINS0_IP11DataEntryEQEEEC2B7v160006ES3_, symObjAddr: 0x15EDC, symBinAddr: 0x100018064, symSize: 0x2C }
  - { offsetInCU: 0x6A003, offset: 0x6A003, size: 0x8, addend: 0x0, symName: __ZNSt3__116reverse_iteratorIP11DataEntryEQEC2B7v160006ES2_, symObjAddr: 0x15F08, symBinAddr: 0x100018090, symSize: 0x28 }
  - { offsetInCU: 0x6A03B, offset: 0x6A03B, size: 0x8, addend: 0x0, symName: __ZNSt3__117__compressed_pairIP11DataEntryEQNS_9allocatorIS1_EEE5firstB7v160006Ev, symObjAddr: 0x15F30, symBinAddr: 0x1000180B8, symSize: 0x24 }
  - { offsetInCU: 0x6A061, offset: 0x6A061, size: 0x8, addend: 0x0, symName: __ZNSt3__114__split_bufferI11DataEntryEQRNS_9allocatorIS1_EEED2Ev, symObjAddr: 0x15F54, symBinAddr: 0x1000180DC, symSize: 0x8C }
  - { offsetInCU: 0x6A08D, offset: 0x6A08D, size: 0x8, addend: 0x0, symName: __ZNSt3__114__split_bufferI11DataEntryEQRNS_9allocatorIS1_EEE5clearB7v160006Ev, symObjAddr: 0x15FE0, symBinAddr: 0x100018168, symSize: 0x28 }
  - { offsetInCU: 0x6A0B3, offset: 0x6A0B3, size: 0x8, addend: 0x0, symName: __ZNSt3__116allocator_traitsINS_9allocatorI11DataEntryEQEEE10deallocateB7v160006ERS3_PS2_m, symObjAddr: 0x16008, symBinAddr: 0x100018190, symSize: 0x34 }
  - { offsetInCU: 0x6A0F5, offset: 0x6A0F5, size: 0x8, addend: 0x0, symName: __ZNKSt3__114__split_bufferI11DataEntryEQRNS_9allocatorIS1_EEE8capacityB7v160006Ev, symObjAddr: 0x1603C, symBinAddr: 0x1000181C4, symSize: 0x40 }
  - { offsetInCU: 0x6A11B, offset: 0x6A11B, size: 0x8, addend: 0x0, symName: __ZNSt3__114__split_bufferI11DataEntryEQRNS_9allocatorIS1_EEE17__destruct_at_endB7v160006EPS1_, symObjAddr: 0x1607C, symBinAddr: 0x100018204, symSize: 0x2C }
  - { offsetInCU: 0x6A14F, offset: 0x6A14F, size: 0x8, addend: 0x0, symName: __ZNSt3__114__split_bufferI11DataEntryEQRNS_9allocatorIS1_EEE17__destruct_at_endB7v160006EPS1_NS_17integral_constantIbLb0EEE, symObjAddr: 0x160A8, symBinAddr: 0x100018230, symSize: 0x80 }
  - { offsetInCU: 0x6A190, offset: 0x6A190, size: 0x8, addend: 0x0, symName: __ZNSt3__19allocatorI11DataEntryEQE10deallocateB7v160006EPS1_m, symObjAddr: 0x16128, symBinAddr: 0x1000182B0, symSize: 0x44 }
  - { offsetInCU: 0x6A1D2, offset: 0x6A1D2, size: 0x8, addend: 0x0, symName: __ZNKSt3__114__split_bufferI11DataEntryEQRNS_9allocatorIS1_EEE9__end_capB7v160006Ev, symObjAddr: 0x1616C, symBinAddr: 0x1000182F4, symSize: 0x28 }
  - { offsetInCU: 0x6A1F8, offset: 0x6A1F8, size: 0x8, addend: 0x0, symName: __ZNKSt3__117__compressed_pairIP11DataEntryEQRNS_9allocatorIS1_EEE5firstB7v160006Ev, symObjAddr: 0x16194, symBinAddr: 0x10001831C, symSize: 0x24 }
  - { offsetInCU: 0x6A21E, offset: 0x6A21E, size: 0x8, addend: 0x0, symName: __ZNKSt3__16vectorI5EqlotNS_9allocatorIS1_EEE4sizeB7v160006Ev, symObjAddr: 0x161B8, symBinAddr: 0x100018340, symSize: 0x28 }
  - { offsetInCU: 0x6A244, offset: 0x6A244, size: 0x8, addend: 0x0, symName: __ZNSt3__16vectorI5EqlotNS_9allocatorIS1_EEE7__clearB7v160006Ev, symObjAddr: 0x161E0, symBinAddr: 0x100018368, symSize: 0x28 }
  - { offsetInCU: 0x6A26A, offset: 0x6A26A, size: 0x8, addend: 0x0, symName: __ZNKSt3__16vectorI5EqlotNS_9allocatorIS1_EEE17__annotate_shrinkB7v160006Em, symObjAddr: 0x16208, symBinAddr: 0x100018390, symSize: 0xD0 }
  - { offsetInCU: 0x6A29F, offset: 0x6A29F, size: 0x8, addend: 0x0, symName: __ZNSt3__16vectorI5EqlotNS_9allocatorIS1_EEE22__base_destruct_at_endB7v160006EPS1_, symObjAddr: 0x162E8, symBinAddr: 0x100018470, symSize: 0x8C }
  - { offsetInCU: 0x6A2E3, offset: 0x6A2E3, size: 0x8, addend: 0x0, symName: __ZNSt3__116allocator_traitsINS_9allocatorI5EqlotEEE7destroyB7v160006IS2_vvEEvRS3_PT_, symObjAddr: 0x16374, symBinAddr: 0x1000184FC, symSize: 0x28 }
  - { offsetInCU: 0x6A31E, offset: 0x6A31E, size: 0x8, addend: 0x0, symName: __ZNSt3__16vectorI5EqlotNS_9allocatorIS1_EEE7__allocB7v160006Ev, symObjAddr: 0x1639C, symBinAddr: 0x100018524, symSize: 0x28 }
  - { offsetInCU: 0x6A344, offset: 0x6A344, size: 0x8, addend: 0x0, symName: __ZN5EqlotD1Ev, symObjAddr: 0x16420, symBinAddr: 0x1000185A8, symSize: 0x2C }
  - { offsetInCU: 0x6A370, offset: 0x6A370, size: 0x8, addend: 0x0, symName: __ZN5EqlotD2Ev, symObjAddr: 0x1644C, symBinAddr: 0x1000185D4, symSize: 0x158 }
  - { offsetInCU: 0x6A39C, offset: 0x6A39C, size: 0x8, addend: 0x0, symName: __ZNSt3__117__compressed_pairIP5EqlotNS_9allocatorIS1_EEE6secondB7v160006Ev, symObjAddr: 0x165A4, symBinAddr: 0x10001872C, symSize: 0x24 }
  - { offsetInCU: 0x6A3C2, offset: 0x6A3C2, size: 0x8, addend: 0x0, symName: __ZNSt3__122__compressed_pair_elemINS_9allocatorI5EqlotEELi1ELb1EE5__getB7v160006Ev, symObjAddr: 0x165C8, symBinAddr: 0x100018750, symSize: 0x14 }
  - { offsetInCU: 0x6A3E8, offset: 0x6A3E8, size: 0x8, addend: 0x0, symName: __ZNKSt3__16vectorI5EqlotNS_9allocatorIS1_EEE31__annotate_contiguous_containerB7v160006EPKvS6_S6_S6_, symObjAddr: 0x165DC, symBinAddr: 0x100018764, symSize: 0x20 }
  - { offsetInCU: 0x6A43E, offset: 0x6A43E, size: 0x8, addend: 0x0, symName: __ZNKSt3__16vectorI5EqlotNS_9allocatorIS1_EEE4dataB7v160006Ev, symObjAddr: 0x165FC, symBinAddr: 0x100018784, symSize: 0x28 }
  - { offsetInCU: 0x6A464, offset: 0x6A464, size: 0x8, addend: 0x0, symName: __ZNKSt3__16vectorI5EqlotNS_9allocatorIS1_EEE8capacityB7v160006Ev, symObjAddr: 0x16624, symBinAddr: 0x1000187AC, symSize: 0x40 }
  - { offsetInCU: 0x6A48A, offset: 0x6A48A, size: 0x8, addend: 0x0, symName: __ZNKSt3__16vectorI5EqlotNS_9allocatorIS1_EEE9__end_capB7v160006Ev, symObjAddr: 0x16664, symBinAddr: 0x1000187EC, symSize: 0x28 }
  - { offsetInCU: 0x6A4B0, offset: 0x6A4B0, size: 0x8, addend: 0x0, symName: __ZNKSt3__117__compressed_pairIP5EqlotNS_9allocatorIS1_EEE5firstB7v160006Ev, symObjAddr: 0x1668C, symBinAddr: 0x100018814, symSize: 0x24 }
  - { offsetInCU: 0x6A4D6, offset: 0x6A4D6, size: 0x8, addend: 0x0, symName: __ZNKSt3__122__compressed_pair_elemIP5EqlotLi0ELb0EE5__getB7v160006Ev, symObjAddr: 0x166B0, symBinAddr: 0x100018838, symSize: 0x14 }
  - { offsetInCU: 0x6A4FC, offset: 0x6A4FC, size: 0x8, addend: 0x0, symName: __ZNSt3__114__split_bufferI5EqlotRNS_9allocatorIS1_EEEC1EmmS4_, symObjAddr: 0x166C4, symBinAddr: 0x10001884C, symSize: 0x44 }
  - { offsetInCU: 0x6A552, offset: 0x6A552, size: 0x8, addend: 0x0, symName: __ZNSt3__114__split_bufferI5EqlotRNS_9allocatorIS1_EEED1Ev, symObjAddr: 0x16820, symBinAddr: 0x1000189A8, symSize: 0x2C }
  - { offsetInCU: 0x6A57E, offset: 0x6A57E, size: 0x8, addend: 0x0, symName: __ZNSt3__114__split_bufferI5EqlotRNS_9allocatorIS1_EEEC2EmmS4_, symObjAddr: 0x1684C, symBinAddr: 0x1000189D4, symSize: 0xE0 }
  - { offsetInCU: 0x6A5F1, offset: 0x6A5F1, size: 0x8, addend: 0x0, symName: __ZNSt3__117__compressed_pairIP5EqlotRNS_9allocatorIS1_EEEC1B7v160006IDnS5_EEOT_OT0_, symObjAddr: 0x1692C, symBinAddr: 0x100018AB4, symSize: 0x3C }
  - { offsetInCU: 0x6A649, offset: 0x6A649, size: 0x8, addend: 0x0, symName: __ZNSt3__114__split_bufferI5EqlotRNS_9allocatorIS1_EEE7__allocB7v160006Ev, symObjAddr: 0x169A8, symBinAddr: 0x100018B30, symSize: 0x28 }
  - { offsetInCU: 0x6A66F, offset: 0x6A66F, size: 0x8, addend: 0x0, symName: __ZNSt3__114__split_bufferI5EqlotRNS_9allocatorIS1_EEE9__end_capB7v160006Ev, symObjAddr: 0x169D0, symBinAddr: 0x100018B58, symSize: 0x28 }
  - { offsetInCU: 0x6A695, offset: 0x6A695, size: 0x8, addend: 0x0, symName: __ZNSt3__117__compressed_pairIP5EqlotRNS_9allocatorIS1_EEEC2B7v160006IDnS5_EEOT_OT0_, symObjAddr: 0x169F8, symBinAddr: 0x100018B80, symSize: 0x48 }
  - { offsetInCU: 0x6A6ED, offset: 0x6A6ED, size: 0x8, addend: 0x0, symName: __ZNSt3__122__compressed_pair_elemIP5EqlotLi0ELb0EEC2B7v160006IDnvEEOT_, symObjAddr: 0x16A40, symBinAddr: 0x100018BC8, symSize: 0x1C }
  - { offsetInCU: 0x6A72F, offset: 0x6A72F, size: 0x8, addend: 0x0, symName: __ZNSt3__122__compressed_pair_elemIRNS_9allocatorI5EqlotEELi1ELb0EEC2B7v160006IS4_vEEOT_, symObjAddr: 0x16A5C, symBinAddr: 0x100018BE4, symSize: 0x20 }
  - { offsetInCU: 0x6A771, offset: 0x6A771, size: 0x8, addend: 0x0, symName: __ZNSt3__19allocatorI5EqlotE8allocateB7v160006Em, symObjAddr: 0x16A7C, symBinAddr: 0x100018C04, symSize: 0x5C }
  - { offsetInCU: 0x6A7B0, offset: 0x6A7B0, size: 0x8, addend: 0x0, symName: __ZNSt3__116allocator_traitsINS_9allocatorI5EqlotEEE8max_sizeB7v160006IS3_vvEEmRKS3_, symObjAddr: 0x16AD8, symBinAddr: 0x100018C60, symSize: 0x28 }
  - { offsetInCU: 0x6A7DC, offset: 0x6A7DC, size: 0x8, addend: 0x0, symName: __ZNSt3__117__compressed_pairIP5EqlotRNS_9allocatorIS1_EEE6secondB7v160006Ev, symObjAddr: 0x16B00, symBinAddr: 0x100018C88, symSize: 0x28 }
  - { offsetInCU: 0x6A802, offset: 0x6A802, size: 0x8, addend: 0x0, symName: __ZNSt3__122__compressed_pair_elemIRNS_9allocatorI5EqlotEELi1ELb0EE5__getB7v160006Ev, symObjAddr: 0x16B28, symBinAddr: 0x100018CB0, symSize: 0x18 }
  - { offsetInCU: 0x6A828, offset: 0x6A828, size: 0x8, addend: 0x0, symName: __ZNSt3__117__compressed_pairIP5EqlotRNS_9allocatorIS1_EEE5firstB7v160006Ev, symObjAddr: 0x16B40, symBinAddr: 0x100018CC8, symSize: 0x24 }
  - { offsetInCU: 0x6A84E, offset: 0x6A84E, size: 0x8, addend: 0x0, symName: __ZNSt3__122__compressed_pair_elemIP5EqlotLi0ELb0EE5__getB7v160006Ev, symObjAddr: 0x16B64, symBinAddr: 0x100018CEC, symSize: 0x14 }
  - { offsetInCU: 0x6A874, offset: 0x6A874, size: 0x8, addend: 0x0, symName: __ZNKSt3__16vectorI5EqlotNS_9allocatorIS1_EEE17__annotate_deleteB7v160006Ev, symObjAddr: 0x16B78, symBinAddr: 0x100018D00, symSize: 0xD4 }
  - { offsetInCU: 0x6A89A, offset: 0x6A89A, size: 0x8, addend: 0x0, symName: __ZNSt3__116reverse_iteratorIP5EqlotEC1B7v160006ES2_, symObjAddr: 0x16D78, symBinAddr: 0x100018F00, symSize: 0x34 }
  - { offsetInCU: 0x6A8D2, offset: 0x6A8D2, size: 0x8, addend: 0x0, symName: __ZNKSt3__116reverse_iteratorIP5EqlotE4baseB7v160006Ev, symObjAddr: 0x16DAC, symBinAddr: 0x100018F34, symSize: 0x18 }
  - { offsetInCU: 0x6A8F8, offset: 0x6A8F8, size: 0x8, addend: 0x0, symName: __ZNSt3__16vectorI5EqlotNS_9allocatorIS1_EEE9__end_capB7v160006Ev, symObjAddr: 0x16E00, symBinAddr: 0x100018F88, symSize: 0x28 }
  - { offsetInCU: 0x6A91E, offset: 0x6A91E, size: 0x8, addend: 0x0, symName: __ZNKSt3__16vectorI5EqlotNS_9allocatorIS1_EEE14__annotate_newB7v160006Em, symObjAddr: 0x16E28, symBinAddr: 0x100018FB0, symSize: 0xC8 }
  - { offsetInCU: 0x6A953, offset: 0x6A953, size: 0x8, addend: 0x0, symName: __ZNSt3__129_AllocatorDestroyRangeReverseINS_9allocatorI5EqlotEENS_16reverse_iteratorIPS2_EEEC1B7v160006ERS3_RS6_S9_, symObjAddr: 0x16F3C, symBinAddr: 0x1000190C4, symSize: 0x44 }
  - { offsetInCU: 0x6A9B0, offset: 0x6A9B0, size: 0x8, addend: 0x0, symName: __ZNSt3__116allocator_traitsINS_9allocatorI5EqlotEEE9constructB7v160006IS2_JS2_EvvEEvRS3_PT_DpOT0_, symObjAddr: 0x16FC8, symBinAddr: 0x100019150, symSize: 0x30 }
  - { offsetInCU: 0x6AA05, offset: 0x6AA05, size: 0x8, addend: 0x0, symName: __ZNKSt3__116reverse_iteratorIP5EqlotEdeB7v160006Ev, symObjAddr: 0x1701C, symBinAddr: 0x1000191A4, symSize: 0x28 }
  - { offsetInCU: 0x6AA39, offset: 0x6AA39, size: 0x8, addend: 0x0, symName: __ZNSt3__116reverse_iteratorIP5EqlotEppB7v160006Ev, symObjAddr: 0x17044, symBinAddr: 0x1000191CC, symSize: 0x20 }
  - { offsetInCU: 0x6AA5F, offset: 0x6AA5F, size: 0x8, addend: 0x0, symName: __ZNSt3__128__exception_guard_exceptionsINS_29_AllocatorDestroyRangeReverseINS_9allocatorI5EqlotEENS_16reverse_iteratorIPS3_EEEEE10__completeB7v160006Ev, symObjAddr: 0x17064, symBinAddr: 0x1000191EC, symSize: 0x1C }
  - { offsetInCU: 0x6AA85, offset: 0x6AA85, size: 0x8, addend: 0x0, symName: __ZNSt3__128__exception_guard_exceptionsINS_29_AllocatorDestroyRangeReverseINS_9allocatorI5EqlotEENS_16reverse_iteratorIPS3_EEEEED1B7v160006Ev, symObjAddr: 0x17080, symBinAddr: 0x100019208, symSize: 0x2C }
  - { offsetInCU: 0x6AAAF, offset: 0x6AAAF, size: 0x8, addend: 0x0, symName: __ZNSt3__128__exception_guard_exceptionsINS_29_AllocatorDestroyRangeReverseINS_9allocatorI5EqlotEENS_16reverse_iteratorIPS3_EEEEEC1B7v160006ES8_, symObjAddr: 0x170AC, symBinAddr: 0x100019234, symSize: 0x34 }
  - { offsetInCU: 0x6AAE8, offset: 0x6AAE8, size: 0x8, addend: 0x0, symName: __ZNSt3__128__exception_guard_exceptionsINS_29_AllocatorDestroyRangeReverseINS_9allocatorI5EqlotEENS_16reverse_iteratorIPS3_EEEEEC2B7v160006ES8_, symObjAddr: 0x170E0, symBinAddr: 0x100019268, symSize: 0x30 }
  - { offsetInCU: 0x6AB21, offset: 0x6AB21, size: 0x8, addend: 0x0, symName: __ZNSt3__129_AllocatorDestroyRangeReverseINS_9allocatorI5EqlotEENS_16reverse_iteratorIPS2_EEEC2B7v160006ERS3_RS6_S9_, symObjAddr: 0x17110, symBinAddr: 0x100019298, symSize: 0x38 }
  - { offsetInCU: 0x6AB78, offset: 0x6AB78, size: 0x8, addend: 0x0, symName: __ZN5EqlotC1EOS_, symObjAddr: 0x17184, symBinAddr: 0x10001930C, symSize: 0x34 }
  - { offsetInCU: 0x6ABAD, offset: 0x6ABAD, size: 0x8, addend: 0x0, symName: __ZN5EqlotC2EOS_, symObjAddr: 0x171B8, symBinAddr: 0x100019340, symSize: 0x270 }
  - { offsetInCU: 0x6ABE8, offset: 0x6ABE8, size: 0x8, addend: 0x0, symName: __ZNSt3__119__to_address_helperINS_16reverse_iteratorIP5EqlotEEvE6__callB7v160006ERKS4_, symObjAddr: 0x17428, symBinAddr: 0x1000195B0, symSize: 0x38 }
  - { offsetInCU: 0x6AC0B, offset: 0x6AC0B, size: 0x8, addend: 0x0, symName: __ZNKSt3__116reverse_iteratorIP5EqlotEptB7v160006Ev, symObjAddr: 0x17460, symBinAddr: 0x1000195E8, symSize: 0x2C }
  - { offsetInCU: 0x6AC31, offset: 0x6AC31, size: 0x8, addend: 0x0, symName: __ZNSt3__128__exception_guard_exceptionsINS_29_AllocatorDestroyRangeReverseINS_9allocatorI5EqlotEENS_16reverse_iteratorIPS3_EEEEED2B7v160006Ev, symObjAddr: 0x1755C, symBinAddr: 0x1000196E4, symSize: 0x50 }
  - { offsetInCU: 0x6AC5B, offset: 0x6AC5B, size: 0x8, addend: 0x0, symName: __ZNKSt3__129_AllocatorDestroyRangeReverseINS_9allocatorI5EqlotEENS_16reverse_iteratorIPS2_EEEclB7v160006Ev, symObjAddr: 0x175AC, symBinAddr: 0x100019734, symSize: 0xB4 }
  - { offsetInCU: 0x6AC82, offset: 0x6AC82, size: 0x8, addend: 0x0, symName: __ZNSt3__116reverse_iteratorINS0_IP5EqlotEEEC1B7v160006ES3_, symObjAddr: 0x176D0, symBinAddr: 0x100019858, symSize: 0x3C }
  - { offsetInCU: 0x6ACBA, offset: 0x6ACBA, size: 0x8, addend: 0x0, symName: __ZNSt3__116reverse_iteratorINS0_IP5EqlotEEEppB7v160006Ev, symObjAddr: 0x17790, symBinAddr: 0x100019918, symSize: 0x30 }
  - { offsetInCU: 0x6ACE0, offset: 0x6ACE0, size: 0x8, addend: 0x0, symName: __ZNKSt3__116reverse_iteratorINS0_IP5EqlotEEE4baseB7v160006Ev, symObjAddr: 0x177C0, symBinAddr: 0x100019948, symSize: 0x24 }
  - { offsetInCU: 0x6AD0C, offset: 0x6AD0C, size: 0x8, addend: 0x0, symName: __ZNSt3__119__to_address_helperINS_16reverse_iteratorINS1_IP5EqlotEEEEvE6__callB7v160006ERKS5_, symObjAddr: 0x177E4, symBinAddr: 0x10001996C, symSize: 0x38 }
  - { offsetInCU: 0x6AD2F, offset: 0x6AD2F, size: 0x8, addend: 0x0, symName: __ZNKSt3__116reverse_iteratorINS0_IP5EqlotEEEptB7v160006Ev, symObjAddr: 0x1781C, symBinAddr: 0x1000199A4, symSize: 0x4C }
  - { offsetInCU: 0x6AD55, offset: 0x6AD55, size: 0x8, addend: 0x0, symName: __ZNSt3__116reverse_iteratorIP5EqlotEpLB7v160006El, symObjAddr: 0x17944, symBinAddr: 0x100019ACC, symSize: 0x30 }
  - { offsetInCU: 0x6AD89, offset: 0x6AD89, size: 0x8, addend: 0x0, symName: __ZNSt3__116reverse_iteratorIP5EqlotEmmB7v160006Ev, symObjAddr: 0x17974, symBinAddr: 0x100019AFC, symSize: 0x20 }
  - { offsetInCU: 0x6ADAF, offset: 0x6ADAF, size: 0x8, addend: 0x0, symName: __ZNSt3__116reverse_iteratorINS0_IP5EqlotEEEC2B7v160006ES3_, symObjAddr: 0x17994, symBinAddr: 0x100019B1C, symSize: 0x2C }
  - { offsetInCU: 0x6ADE7, offset: 0x6ADE7, size: 0x8, addend: 0x0, symName: __ZNSt3__116reverse_iteratorIP5EqlotEC2B7v160006ES2_, symObjAddr: 0x179C0, symBinAddr: 0x100019B48, symSize: 0x28 }
  - { offsetInCU: 0x6AE1F, offset: 0x6AE1F, size: 0x8, addend: 0x0, symName: __ZNSt3__117__compressed_pairIP5EqlotNS_9allocatorIS1_EEE5firstB7v160006Ev, symObjAddr: 0x179E8, symBinAddr: 0x100019B70, symSize: 0x24 }
  - { offsetInCU: 0x6AE45, offset: 0x6AE45, size: 0x8, addend: 0x0, symName: __ZNSt3__114__split_bufferI5EqlotRNS_9allocatorIS1_EEED2Ev, symObjAddr: 0x17A0C, symBinAddr: 0x100019B94, symSize: 0x8C }
  - { offsetInCU: 0x6AE71, offset: 0x6AE71, size: 0x8, addend: 0x0, symName: __ZNSt3__114__split_bufferI5EqlotRNS_9allocatorIS1_EEE5clearB7v160006Ev, symObjAddr: 0x17A98, symBinAddr: 0x100019C20, symSize: 0x28 }
  - { offsetInCU: 0x6AE97, offset: 0x6AE97, size: 0x8, addend: 0x0, symName: __ZNSt3__116allocator_traitsINS_9allocatorI5EqlotEEE10deallocateB7v160006ERS3_PS2_m, symObjAddr: 0x17AC0, symBinAddr: 0x100019C48, symSize: 0x34 }
  - { offsetInCU: 0x6AED9, offset: 0x6AED9, size: 0x8, addend: 0x0, symName: __ZNKSt3__114__split_bufferI5EqlotRNS_9allocatorIS1_EEE8capacityB7v160006Ev, symObjAddr: 0x17AF4, symBinAddr: 0x100019C7C, symSize: 0x40 }
  - { offsetInCU: 0x6AEFF, offset: 0x6AEFF, size: 0x8, addend: 0x0, symName: __ZNSt3__114__split_bufferI5EqlotRNS_9allocatorIS1_EEE17__destruct_at_endB7v160006EPS1_, symObjAddr: 0x17B34, symBinAddr: 0x100019CBC, symSize: 0x2C }
  - { offsetInCU: 0x6AF33, offset: 0x6AF33, size: 0x8, addend: 0x0, symName: __ZNSt3__114__split_bufferI5EqlotRNS_9allocatorIS1_EEE17__destruct_at_endB7v160006EPS1_NS_17integral_constantIbLb0EEE, symObjAddr: 0x17B60, symBinAddr: 0x100019CE8, symSize: 0x80 }
  - { offsetInCU: 0x6AF74, offset: 0x6AF74, size: 0x8, addend: 0x0, symName: __ZNSt3__19allocatorI5EqlotE10deallocateB7v160006EPS1_m, symObjAddr: 0x17BE0, symBinAddr: 0x100019D68, symSize: 0x44 }
  - { offsetInCU: 0x6AFB6, offset: 0x6AFB6, size: 0x8, addend: 0x0, symName: __ZNKSt3__114__split_bufferI5EqlotRNS_9allocatorIS1_EEE9__end_capB7v160006Ev, symObjAddr: 0x17C24, symBinAddr: 0x100019DAC, symSize: 0x28 }
  - { offsetInCU: 0x6AFDC, offset: 0x6AFDC, size: 0x8, addend: 0x0, symName: __ZNKSt3__117__compressed_pairIP5EqlotRNS_9allocatorIS1_EEE5firstB7v160006Ev, symObjAddr: 0x17C4C, symBinAddr: 0x100019DD4, symSize: 0x24 }
  - { offsetInCU: 0x6B002, offset: 0x6B002, size: 0x8, addend: 0x0, symName: __ZNKSt3__16vectorI8InlineTRNS_9allocatorIS1_EEE4sizeB7v160006Ev, symObjAddr: 0x17C70, symBinAddr: 0x100019DF8, symSize: 0x28 }
  - { offsetInCU: 0x6B028, offset: 0x6B028, size: 0x8, addend: 0x0, symName: __ZNSt3__16vectorI8InlineTRNS_9allocatorIS1_EEE7__clearB7v160006Ev, symObjAddr: 0x17C98, symBinAddr: 0x100019E20, symSize: 0x28 }
  - { offsetInCU: 0x6B04E, offset: 0x6B04E, size: 0x8, addend: 0x0, symName: __ZNKSt3__16vectorI8InlineTRNS_9allocatorIS1_EEE17__annotate_shrinkB7v160006Em, symObjAddr: 0x17CC0, symBinAddr: 0x100019E48, symSize: 0xD0 }
  - { offsetInCU: 0x6B083, offset: 0x6B083, size: 0x8, addend: 0x0, symName: __ZNSt3__16vectorI8InlineTRNS_9allocatorIS1_EEE22__base_destruct_at_endB7v160006EPS1_, symObjAddr: 0x17DA0, symBinAddr: 0x100019F28, symSize: 0x8C }
  - { offsetInCU: 0x6B0C7, offset: 0x6B0C7, size: 0x8, addend: 0x0, symName: __ZNSt3__116allocator_traitsINS_9allocatorI8InlineTREEE7destroyB7v160006IS2_vvEEvRS3_PT_, symObjAddr: 0x17E2C, symBinAddr: 0x100019FB4, symSize: 0x28 }
  - { offsetInCU: 0x6B102, offset: 0x6B102, size: 0x8, addend: 0x0, symName: __ZNSt3__16vectorI8InlineTRNS_9allocatorIS1_EEE7__allocB7v160006Ev, symObjAddr: 0x17E54, symBinAddr: 0x100019FDC, symSize: 0x28 }
  - { offsetInCU: 0x6B128, offset: 0x6B128, size: 0x8, addend: 0x0, symName: __ZN8InlineTRD1Ev, symObjAddr: 0x17ED8, symBinAddr: 0x10001A060, symSize: 0x2C }
  - { offsetInCU: 0x6B154, offset: 0x6B154, size: 0x8, addend: 0x0, symName: __ZN8InlineTRD2Ev, symObjAddr: 0x17F04, symBinAddr: 0x10001A08C, symSize: 0xEC }
  - { offsetInCU: 0x6B180, offset: 0x6B180, size: 0x8, addend: 0x0, symName: __ZNSt3__117__compressed_pairIP8InlineTRNS_9allocatorIS1_EEE6secondB7v160006Ev, symObjAddr: 0x17FF0, symBinAddr: 0x10001A178, symSize: 0x24 }
  - { offsetInCU: 0x6B1A6, offset: 0x6B1A6, size: 0x8, addend: 0x0, symName: __ZNSt3__122__compressed_pair_elemINS_9allocatorI8InlineTREELi1ELb1EE5__getB7v160006Ev, symObjAddr: 0x18014, symBinAddr: 0x10001A19C, symSize: 0x14 }
  - { offsetInCU: 0x6B1CC, offset: 0x6B1CC, size: 0x8, addend: 0x0, symName: __ZNKSt3__16vectorI8InlineTRNS_9allocatorIS1_EEE31__annotate_contiguous_containerB7v160006EPKvS6_S6_S6_, symObjAddr: 0x18028, symBinAddr: 0x10001A1B0, symSize: 0x20 }
  - { offsetInCU: 0x6B222, offset: 0x6B222, size: 0x8, addend: 0x0, symName: __ZNKSt3__16vectorI8InlineTRNS_9allocatorIS1_EEE4dataB7v160006Ev, symObjAddr: 0x18048, symBinAddr: 0x10001A1D0, symSize: 0x28 }
  - { offsetInCU: 0x6B248, offset: 0x6B248, size: 0x8, addend: 0x0, symName: __ZNKSt3__16vectorI8InlineTRNS_9allocatorIS1_EEE8capacityB7v160006Ev, symObjAddr: 0x18070, symBinAddr: 0x10001A1F8, symSize: 0x40 }
  - { offsetInCU: 0x6B26E, offset: 0x6B26E, size: 0x8, addend: 0x0, symName: __ZNKSt3__16vectorI8InlineTRNS_9allocatorIS1_EEE9__end_capB7v160006Ev, symObjAddr: 0x180B0, symBinAddr: 0x10001A238, symSize: 0x28 }
  - { offsetInCU: 0x6B294, offset: 0x6B294, size: 0x8, addend: 0x0, symName: __ZNKSt3__117__compressed_pairIP8InlineTRNS_9allocatorIS1_EEE5firstB7v160006Ev, symObjAddr: 0x180D8, symBinAddr: 0x10001A260, symSize: 0x24 }
  - { offsetInCU: 0x6B2BA, offset: 0x6B2BA, size: 0x8, addend: 0x0, symName: __ZNKSt3__122__compressed_pair_elemIP8InlineTRLi0ELb0EE5__getB7v160006Ev, symObjAddr: 0x180FC, symBinAddr: 0x10001A284, symSize: 0x14 }
  - { offsetInCU: 0x6B2E0, offset: 0x6B2E0, size: 0x8, addend: 0x0, symName: __ZNSt3__114__split_bufferI8InlineTRRNS_9allocatorIS1_EEEC1EmmS4_, symObjAddr: 0x18110, symBinAddr: 0x10001A298, symSize: 0x44 }
  - { offsetInCU: 0x6B336, offset: 0x6B336, size: 0x8, addend: 0x0, symName: __ZNSt3__114__split_bufferI8InlineTRRNS_9allocatorIS1_EEED1Ev, symObjAddr: 0x1826C, symBinAddr: 0x10001A3F4, symSize: 0x2C }
  - { offsetInCU: 0x6B362, offset: 0x6B362, size: 0x8, addend: 0x0, symName: __ZNSt3__114__split_bufferI8InlineTRRNS_9allocatorIS1_EEEC2EmmS4_, symObjAddr: 0x18298, symBinAddr: 0x10001A420, symSize: 0xE0 }
  - { offsetInCU: 0x6B3D5, offset: 0x6B3D5, size: 0x8, addend: 0x0, symName: __ZNSt3__117__compressed_pairIP8InlineTRRNS_9allocatorIS1_EEEC1B7v160006IDnS5_EEOT_OT0_, symObjAddr: 0x18378, symBinAddr: 0x10001A500, symSize: 0x3C }
  - { offsetInCU: 0x6B42D, offset: 0x6B42D, size: 0x8, addend: 0x0, symName: __ZNSt3__114__split_bufferI8InlineTRRNS_9allocatorIS1_EEE7__allocB7v160006Ev, symObjAddr: 0x183F4, symBinAddr: 0x10001A57C, symSize: 0x28 }
  - { offsetInCU: 0x6B453, offset: 0x6B453, size: 0x8, addend: 0x0, symName: __ZNSt3__114__split_bufferI8InlineTRRNS_9allocatorIS1_EEE9__end_capB7v160006Ev, symObjAddr: 0x1841C, symBinAddr: 0x10001A5A4, symSize: 0x28 }
  - { offsetInCU: 0x6B479, offset: 0x6B479, size: 0x8, addend: 0x0, symName: __ZNSt3__117__compressed_pairIP8InlineTRRNS_9allocatorIS1_EEEC2B7v160006IDnS5_EEOT_OT0_, symObjAddr: 0x18444, symBinAddr: 0x10001A5CC, symSize: 0x48 }
  - { offsetInCU: 0x6B4D1, offset: 0x6B4D1, size: 0x8, addend: 0x0, symName: __ZNSt3__122__compressed_pair_elemIP8InlineTRLi0ELb0EEC2B7v160006IDnvEEOT_, symObjAddr: 0x1848C, symBinAddr: 0x10001A614, symSize: 0x1C }
  - { offsetInCU: 0x6B513, offset: 0x6B513, size: 0x8, addend: 0x0, symName: __ZNSt3__122__compressed_pair_elemIRNS_9allocatorI8InlineTREELi1ELb0EEC2B7v160006IS4_vEEOT_, symObjAddr: 0x184A8, symBinAddr: 0x10001A630, symSize: 0x20 }
  - { offsetInCU: 0x6B555, offset: 0x6B555, size: 0x8, addend: 0x0, symName: __ZNSt3__19allocatorI8InlineTRE8allocateB7v160006Em, symObjAddr: 0x184C8, symBinAddr: 0x10001A650, symSize: 0x5C }
  - { offsetInCU: 0x6B594, offset: 0x6B594, size: 0x8, addend: 0x0, symName: __ZNSt3__116allocator_traitsINS_9allocatorI8InlineTREEE8max_sizeB7v160006IS3_vvEEmRKS3_, symObjAddr: 0x18524, symBinAddr: 0x10001A6AC, symSize: 0x28 }
  - { offsetInCU: 0x6B5C0, offset: 0x6B5C0, size: 0x8, addend: 0x0, symName: __ZNSt3__117__compressed_pairIP8InlineTRRNS_9allocatorIS1_EEE6secondB7v160006Ev, symObjAddr: 0x1854C, symBinAddr: 0x10001A6D4, symSize: 0x28 }
  - { offsetInCU: 0x6B5E6, offset: 0x6B5E6, size: 0x8, addend: 0x0, symName: __ZNSt3__122__compressed_pair_elemIRNS_9allocatorI8InlineTREELi1ELb0EE5__getB7v160006Ev, symObjAddr: 0x18574, symBinAddr: 0x10001A6FC, symSize: 0x18 }
  - { offsetInCU: 0x6B60C, offset: 0x6B60C, size: 0x8, addend: 0x0, symName: __ZNSt3__117__compressed_pairIP8InlineTRRNS_9allocatorIS1_EEE5firstB7v160006Ev, symObjAddr: 0x1858C, symBinAddr: 0x10001A714, symSize: 0x24 }
  - { offsetInCU: 0x6B632, offset: 0x6B632, size: 0x8, addend: 0x0, symName: __ZNSt3__122__compressed_pair_elemIP8InlineTRLi0ELb0EE5__getB7v160006Ev, symObjAddr: 0x185B0, symBinAddr: 0x10001A738, symSize: 0x14 }
  - { offsetInCU: 0x6B658, offset: 0x6B658, size: 0x8, addend: 0x0, symName: __ZNKSt3__16vectorI8InlineTRNS_9allocatorIS1_EEE17__annotate_deleteB7v160006Ev, symObjAddr: 0x185C4, symBinAddr: 0x10001A74C, symSize: 0xD4 }
  - { offsetInCU: 0x6B67E, offset: 0x6B67E, size: 0x8, addend: 0x0, symName: __ZNSt3__116reverse_iteratorIP8InlineTREC1B7v160006ES2_, symObjAddr: 0x187C4, symBinAddr: 0x10001A94C, symSize: 0x34 }
  - { offsetInCU: 0x6B6B6, offset: 0x6B6B6, size: 0x8, addend: 0x0, symName: __ZNKSt3__116reverse_iteratorIP8InlineTRE4baseB7v160006Ev, symObjAddr: 0x187F8, symBinAddr: 0x10001A980, symSize: 0x18 }
  - { offsetInCU: 0x6B6DC, offset: 0x6B6DC, size: 0x8, addend: 0x0, symName: __ZNSt3__16vectorI8InlineTRNS_9allocatorIS1_EEE9__end_capB7v160006Ev, symObjAddr: 0x1884C, symBinAddr: 0x10001A9D4, symSize: 0x28 }
  - { offsetInCU: 0x6B702, offset: 0x6B702, size: 0x8, addend: 0x0, symName: __ZNKSt3__16vectorI8InlineTRNS_9allocatorIS1_EEE14__annotate_newB7v160006Em, symObjAddr: 0x18874, symBinAddr: 0x10001A9FC, symSize: 0xC8 }
  - { offsetInCU: 0x6B737, offset: 0x6B737, size: 0x8, addend: 0x0, symName: __ZNSt3__129_AllocatorDestroyRangeReverseINS_9allocatorI8InlineTREENS_16reverse_iteratorIPS2_EEEC1B7v160006ERS3_RS6_S9_, symObjAddr: 0x18988, symBinAddr: 0x10001AB10, symSize: 0x44 }
  - { offsetInCU: 0x6B794, offset: 0x6B794, size: 0x8, addend: 0x0, symName: __ZNSt3__116allocator_traitsINS_9allocatorI8InlineTREEE9constructB7v160006IS2_JS2_EvvEEvRS3_PT_DpOT0_, symObjAddr: 0x18A14, symBinAddr: 0x10001AB9C, symSize: 0x30 }
  - { offsetInCU: 0x6B7E9, offset: 0x6B7E9, size: 0x8, addend: 0x0, symName: __ZNKSt3__116reverse_iteratorIP8InlineTREdeB7v160006Ev, symObjAddr: 0x18A68, symBinAddr: 0x10001ABF0, symSize: 0x28 }
  - { offsetInCU: 0x6B81D, offset: 0x6B81D, size: 0x8, addend: 0x0, symName: __ZNSt3__116reverse_iteratorIP8InlineTREppB7v160006Ev, symObjAddr: 0x18A90, symBinAddr: 0x10001AC18, symSize: 0x20 }
  - { offsetInCU: 0x6B843, offset: 0x6B843, size: 0x8, addend: 0x0, symName: __ZNSt3__128__exception_guard_exceptionsINS_29_AllocatorDestroyRangeReverseINS_9allocatorI8InlineTREENS_16reverse_iteratorIPS3_EEEEE10__completeB7v160006Ev, symObjAddr: 0x18AB0, symBinAddr: 0x10001AC38, symSize: 0x1C }
  - { offsetInCU: 0x6B869, offset: 0x6B869, size: 0x8, addend: 0x0, symName: __ZNSt3__128__exception_guard_exceptionsINS_29_AllocatorDestroyRangeReverseINS_9allocatorI8InlineTREENS_16reverse_iteratorIPS3_EEEEED1B7v160006Ev, symObjAddr: 0x18ACC, symBinAddr: 0x10001AC54, symSize: 0x2C }
  - { offsetInCU: 0x6B893, offset: 0x6B893, size: 0x8, addend: 0x0, symName: __ZNSt3__128__exception_guard_exceptionsINS_29_AllocatorDestroyRangeReverseINS_9allocatorI8InlineTREENS_16reverse_iteratorIPS3_EEEEEC1B7v160006ES8_, symObjAddr: 0x18AF8, symBinAddr: 0x10001AC80, symSize: 0x34 }
  - { offsetInCU: 0x6B8CC, offset: 0x6B8CC, size: 0x8, addend: 0x0, symName: __ZNSt3__128__exception_guard_exceptionsINS_29_AllocatorDestroyRangeReverseINS_9allocatorI8InlineTREENS_16reverse_iteratorIPS3_EEEEEC2B7v160006ES8_, symObjAddr: 0x18B2C, symBinAddr: 0x10001ACB4, symSize: 0x30 }
  - { offsetInCU: 0x6B905, offset: 0x6B905, size: 0x8, addend: 0x0, symName: __ZNSt3__129_AllocatorDestroyRangeReverseINS_9allocatorI8InlineTREENS_16reverse_iteratorIPS2_EEEC2B7v160006ERS3_RS6_S9_, symObjAddr: 0x18B5C, symBinAddr: 0x10001ACE4, symSize: 0x38 }
  - { offsetInCU: 0x6B95C, offset: 0x6B95C, size: 0x8, addend: 0x0, symName: __ZN8InlineTRC1EOS_, symObjAddr: 0x18BD0, symBinAddr: 0x10001AD58, symSize: 0x34 }
  - { offsetInCU: 0x6B991, offset: 0x6B991, size: 0x8, addend: 0x0, symName: __ZN8InlineTRC2EOS_, symObjAddr: 0x18C04, symBinAddr: 0x10001AD8C, symSize: 0x174 }
  - { offsetInCU: 0x6B9CC, offset: 0x6B9CC, size: 0x8, addend: 0x0, symName: __ZNSt3__119__to_address_helperINS_16reverse_iteratorIP8InlineTREEvE6__callB7v160006ERKS4_, symObjAddr: 0x18D78, symBinAddr: 0x10001AF00, symSize: 0x38 }
  - { offsetInCU: 0x6B9EF, offset: 0x6B9EF, size: 0x8, addend: 0x0, symName: __ZNKSt3__116reverse_iteratorIP8InlineTREptB7v160006Ev, symObjAddr: 0x18DB0, symBinAddr: 0x10001AF38, symSize: 0x2C }
  - { offsetInCU: 0x6BA15, offset: 0x6BA15, size: 0x8, addend: 0x0, symName: __ZNSt3__128__exception_guard_exceptionsINS_29_AllocatorDestroyRangeReverseINS_9allocatorI8InlineTREENS_16reverse_iteratorIPS3_EEEEED2B7v160006Ev, symObjAddr: 0x18EAC, symBinAddr: 0x10001B034, symSize: 0x50 }
  - { offsetInCU: 0x6BA3F, offset: 0x6BA3F, size: 0x8, addend: 0x0, symName: __ZNKSt3__129_AllocatorDestroyRangeReverseINS_9allocatorI8InlineTREENS_16reverse_iteratorIPS2_EEEclB7v160006Ev, symObjAddr: 0x18EFC, symBinAddr: 0x10001B084, symSize: 0xB4 }
  - { offsetInCU: 0x6BA66, offset: 0x6BA66, size: 0x8, addend: 0x0, symName: __ZNSt3__116reverse_iteratorINS0_IP8InlineTREEEC1B7v160006ES3_, symObjAddr: 0x19020, symBinAddr: 0x10001B1A8, symSize: 0x3C }
  - { offsetInCU: 0x6BA9E, offset: 0x6BA9E, size: 0x8, addend: 0x0, symName: __ZNSt3__116reverse_iteratorINS0_IP8InlineTREEEppB7v160006Ev, symObjAddr: 0x190E0, symBinAddr: 0x10001B268, symSize: 0x30 }
  - { offsetInCU: 0x6BAC4, offset: 0x6BAC4, size: 0x8, addend: 0x0, symName: __ZNKSt3__116reverse_iteratorINS0_IP8InlineTREEE4baseB7v160006Ev, symObjAddr: 0x19110, symBinAddr: 0x10001B298, symSize: 0x24 }
  - { offsetInCU: 0x6BAF0, offset: 0x6BAF0, size: 0x8, addend: 0x0, symName: __ZNSt3__119__to_address_helperINS_16reverse_iteratorINS1_IP8InlineTREEEEvE6__callB7v160006ERKS5_, symObjAddr: 0x19134, symBinAddr: 0x10001B2BC, symSize: 0x38 }
  - { offsetInCU: 0x6BB13, offset: 0x6BB13, size: 0x8, addend: 0x0, symName: __ZNKSt3__116reverse_iteratorINS0_IP8InlineTREEEptB7v160006Ev, symObjAddr: 0x1916C, symBinAddr: 0x10001B2F4, symSize: 0x4C }
  - { offsetInCU: 0x6BB39, offset: 0x6BB39, size: 0x8, addend: 0x0, symName: __ZNSt3__116reverse_iteratorIP8InlineTREpLB7v160006El, symObjAddr: 0x19294, symBinAddr: 0x10001B41C, symSize: 0x30 }
  - { offsetInCU: 0x6BB6D, offset: 0x6BB6D, size: 0x8, addend: 0x0, symName: __ZNSt3__116reverse_iteratorIP8InlineTREmmB7v160006Ev, symObjAddr: 0x192C4, symBinAddr: 0x10001B44C, symSize: 0x20 }
  - { offsetInCU: 0x6BB93, offset: 0x6BB93, size: 0x8, addend: 0x0, symName: __ZNSt3__116reverse_iteratorINS0_IP8InlineTREEEC2B7v160006ES3_, symObjAddr: 0x192E4, symBinAddr: 0x10001B46C, symSize: 0x2C }
  - { offsetInCU: 0x6BBCB, offset: 0x6BBCB, size: 0x8, addend: 0x0, symName: __ZNSt3__116reverse_iteratorIP8InlineTREC2B7v160006ES2_, symObjAddr: 0x19310, symBinAddr: 0x10001B498, symSize: 0x28 }
  - { offsetInCU: 0x6BC03, offset: 0x6BC03, size: 0x8, addend: 0x0, symName: __ZNSt3__117__compressed_pairIP8InlineTRNS_9allocatorIS1_EEE5firstB7v160006Ev, symObjAddr: 0x19338, symBinAddr: 0x10001B4C0, symSize: 0x24 }
  - { offsetInCU: 0x6BC29, offset: 0x6BC29, size: 0x8, addend: 0x0, symName: __ZNSt3__114__split_bufferI8InlineTRRNS_9allocatorIS1_EEED2Ev, symObjAddr: 0x1935C, symBinAddr: 0x10001B4E4, symSize: 0x8C }
  - { offsetInCU: 0x6BC55, offset: 0x6BC55, size: 0x8, addend: 0x0, symName: __ZNSt3__114__split_bufferI8InlineTRRNS_9allocatorIS1_EEE5clearB7v160006Ev, symObjAddr: 0x193E8, symBinAddr: 0x10001B570, symSize: 0x28 }
  - { offsetInCU: 0x6BC7B, offset: 0x6BC7B, size: 0x8, addend: 0x0, symName: __ZNSt3__116allocator_traitsINS_9allocatorI8InlineTREEE10deallocateB7v160006ERS3_PS2_m, symObjAddr: 0x19410, symBinAddr: 0x10001B598, symSize: 0x34 }
  - { offsetInCU: 0x6BCBD, offset: 0x6BCBD, size: 0x8, addend: 0x0, symName: __ZNKSt3__114__split_bufferI8InlineTRRNS_9allocatorIS1_EEE8capacityB7v160006Ev, symObjAddr: 0x19444, symBinAddr: 0x10001B5CC, symSize: 0x40 }
  - { offsetInCU: 0x6BCE3, offset: 0x6BCE3, size: 0x8, addend: 0x0, symName: __ZNSt3__114__split_bufferI8InlineTRRNS_9allocatorIS1_EEE17__destruct_at_endB7v160006EPS1_, symObjAddr: 0x19484, symBinAddr: 0x10001B60C, symSize: 0x2C }
  - { offsetInCU: 0x6BD17, offset: 0x6BD17, size: 0x8, addend: 0x0, symName: __ZNSt3__114__split_bufferI8InlineTRRNS_9allocatorIS1_EEE17__destruct_at_endB7v160006EPS1_NS_17integral_constantIbLb0EEE, symObjAddr: 0x194B0, symBinAddr: 0x10001B638, symSize: 0x80 }
  - { offsetInCU: 0x6BD58, offset: 0x6BD58, size: 0x8, addend: 0x0, symName: __ZNSt3__19allocatorI8InlineTRE10deallocateB7v160006EPS1_m, symObjAddr: 0x19530, symBinAddr: 0x10001B6B8, symSize: 0x44 }
  - { offsetInCU: 0x6BD9A, offset: 0x6BD9A, size: 0x8, addend: 0x0, symName: __ZNKSt3__114__split_bufferI8InlineTRRNS_9allocatorIS1_EEE9__end_capB7v160006Ev, symObjAddr: 0x19574, symBinAddr: 0x10001B6FC, symSize: 0x28 }
  - { offsetInCU: 0x6BDC0, offset: 0x6BDC0, size: 0x8, addend: 0x0, symName: __ZNKSt3__117__compressed_pairIP8InlineTRRNS_9allocatorIS1_EEE5firstB7v160006Ev, symObjAddr: 0x1959C, symBinAddr: 0x10001B724, symSize: 0x24 }
  - { offsetInCU: 0x6BDE6, offset: 0x6BDE6, size: 0x8, addend: 0x0, symName: __ZNKSt3__16vectorI3WATNS_9allocatorIS1_EEE4sizeB7v160006Ev, symObjAddr: 0x195C0, symBinAddr: 0x10001B748, symSize: 0x28 }
  - { offsetInCU: 0x6BE0C, offset: 0x6BE0C, size: 0x8, addend: 0x0, symName: __ZNSt3__16vectorI3WATNS_9allocatorIS1_EEE7__clearB7v160006Ev, symObjAddr: 0x195E8, symBinAddr: 0x10001B770, symSize: 0x28 }
  - { offsetInCU: 0x6BE32, offset: 0x6BE32, size: 0x8, addend: 0x0, symName: __ZNKSt3__16vectorI3WATNS_9allocatorIS1_EEE17__annotate_shrinkB7v160006Em, symObjAddr: 0x19610, symBinAddr: 0x10001B798, symSize: 0xD0 }
  - { offsetInCU: 0x6BE67, offset: 0x6BE67, size: 0x8, addend: 0x0, symName: __ZNSt3__16vectorI3WATNS_9allocatorIS1_EEE22__base_destruct_at_endB7v160006EPS1_, symObjAddr: 0x196F0, symBinAddr: 0x10001B878, symSize: 0x8C }
  - { offsetInCU: 0x6BEAB, offset: 0x6BEAB, size: 0x8, addend: 0x0, symName: __ZNSt3__116allocator_traitsINS_9allocatorI3WATEEE7destroyB7v160006IS2_vvEEvRS3_PT_, symObjAddr: 0x1977C, symBinAddr: 0x10001B904, symSize: 0x28 }
  - { offsetInCU: 0x6BEE6, offset: 0x6BEE6, size: 0x8, addend: 0x0, symName: __ZNSt3__16vectorI3WATNS_9allocatorIS1_EEE7__allocB7v160006Ev, symObjAddr: 0x197A4, symBinAddr: 0x10001B92C, symSize: 0x28 }
  - { offsetInCU: 0x6BF0C, offset: 0x6BF0C, size: 0x8, addend: 0x0, symName: __ZN3WATD1Ev, symObjAddr: 0x19828, symBinAddr: 0x10001B9B0, symSize: 0x2C }
  - { offsetInCU: 0x6BF38, offset: 0x6BF38, size: 0x8, addend: 0x0, symName: __ZN3WATD2Ev, symObjAddr: 0x19854, symBinAddr: 0x10001B9DC, symSize: 0xCC }
  - { offsetInCU: 0x6BF64, offset: 0x6BF64, size: 0x8, addend: 0x0, symName: __ZNSt3__117__compressed_pairIP3WATNS_9allocatorIS1_EEE6secondB7v160006Ev, symObjAddr: 0x19920, symBinAddr: 0x10001BAA8, symSize: 0x24 }
  - { offsetInCU: 0x6BF8A, offset: 0x6BF8A, size: 0x8, addend: 0x0, symName: __ZNSt3__122__compressed_pair_elemINS_9allocatorI3WATEELi1ELb1EE5__getB7v160006Ev, symObjAddr: 0x19944, symBinAddr: 0x10001BACC, symSize: 0x14 }
  - { offsetInCU: 0x6BFB0, offset: 0x6BFB0, size: 0x8, addend: 0x0, symName: __ZNKSt3__16vectorI3WATNS_9allocatorIS1_EEE31__annotate_contiguous_containerB7v160006EPKvS6_S6_S6_, symObjAddr: 0x19958, symBinAddr: 0x10001BAE0, symSize: 0x20 }
  - { offsetInCU: 0x6C006, offset: 0x6C006, size: 0x8, addend: 0x0, symName: __ZNKSt3__16vectorI3WATNS_9allocatorIS1_EEE4dataB7v160006Ev, symObjAddr: 0x19978, symBinAddr: 0x10001BB00, symSize: 0x28 }
  - { offsetInCU: 0x6C02C, offset: 0x6C02C, size: 0x8, addend: 0x0, symName: __ZNKSt3__16vectorI3WATNS_9allocatorIS1_EEE8capacityB7v160006Ev, symObjAddr: 0x199A0, symBinAddr: 0x10001BB28, symSize: 0x40 }
  - { offsetInCU: 0x6C052, offset: 0x6C052, size: 0x8, addend: 0x0, symName: __ZNKSt3__16vectorI3WATNS_9allocatorIS1_EEE9__end_capB7v160006Ev, symObjAddr: 0x199E0, symBinAddr: 0x10001BB68, symSize: 0x28 }
  - { offsetInCU: 0x6C078, offset: 0x6C078, size: 0x8, addend: 0x0, symName: __ZNKSt3__117__compressed_pairIP3WATNS_9allocatorIS1_EEE5firstB7v160006Ev, symObjAddr: 0x19A08, symBinAddr: 0x10001BB90, symSize: 0x24 }
  - { offsetInCU: 0x6C09E, offset: 0x6C09E, size: 0x8, addend: 0x0, symName: __ZNKSt3__122__compressed_pair_elemIP3WATLi0ELb0EE5__getB7v160006Ev, symObjAddr: 0x19A2C, symBinAddr: 0x10001BBB4, symSize: 0x14 }
  - { offsetInCU: 0x6C0C4, offset: 0x6C0C4, size: 0x8, addend: 0x0, symName: __ZNSt3__114__split_bufferI3WATRNS_9allocatorIS1_EEEC1EmmS4_, symObjAddr: 0x19A40, symBinAddr: 0x10001BBC8, symSize: 0x44 }
  - { offsetInCU: 0x6C11A, offset: 0x6C11A, size: 0x8, addend: 0x0, symName: __ZNSt3__114__split_bufferI3WATRNS_9allocatorIS1_EEED1Ev, symObjAddr: 0x19B9C, symBinAddr: 0x10001BD24, symSize: 0x2C }
  - { offsetInCU: 0x6C146, offset: 0x6C146, size: 0x8, addend: 0x0, symName: __ZNSt3__114__split_bufferI3WATRNS_9allocatorIS1_EEEC2EmmS4_, symObjAddr: 0x19BC8, symBinAddr: 0x10001BD50, symSize: 0xE0 }
  - { offsetInCU: 0x6C1B9, offset: 0x6C1B9, size: 0x8, addend: 0x0, symName: __ZNSt3__117__compressed_pairIP3WATRNS_9allocatorIS1_EEEC1B7v160006IDnS5_EEOT_OT0_, symObjAddr: 0x19CA8, symBinAddr: 0x10001BE30, symSize: 0x3C }
  - { offsetInCU: 0x6C211, offset: 0x6C211, size: 0x8, addend: 0x0, symName: __ZNSt3__114__split_bufferI3WATRNS_9allocatorIS1_EEE7__allocB7v160006Ev, symObjAddr: 0x19D24, symBinAddr: 0x10001BEAC, symSize: 0x28 }
  - { offsetInCU: 0x6C237, offset: 0x6C237, size: 0x8, addend: 0x0, symName: __ZNSt3__114__split_bufferI3WATRNS_9allocatorIS1_EEE9__end_capB7v160006Ev, symObjAddr: 0x19D4C, symBinAddr: 0x10001BED4, symSize: 0x28 }
  - { offsetInCU: 0x6C25D, offset: 0x6C25D, size: 0x8, addend: 0x0, symName: __ZNSt3__117__compressed_pairIP3WATRNS_9allocatorIS1_EEEC2B7v160006IDnS5_EEOT_OT0_, symObjAddr: 0x19D74, symBinAddr: 0x10001BEFC, symSize: 0x48 }
  - { offsetInCU: 0x6C2B5, offset: 0x6C2B5, size: 0x8, addend: 0x0, symName: __ZNSt3__122__compressed_pair_elemIP3WATLi0ELb0EEC2B7v160006IDnvEEOT_, symObjAddr: 0x19DBC, symBinAddr: 0x10001BF44, symSize: 0x1C }
  - { offsetInCU: 0x6C2F7, offset: 0x6C2F7, size: 0x8, addend: 0x0, symName: __ZNSt3__122__compressed_pair_elemIRNS_9allocatorI3WATEELi1ELb0EEC2B7v160006IS4_vEEOT_, symObjAddr: 0x19DD8, symBinAddr: 0x10001BF60, symSize: 0x20 }
  - { offsetInCU: 0x6C339, offset: 0x6C339, size: 0x8, addend: 0x0, symName: __ZNSt3__19allocatorI3WATE8allocateB7v160006Em, symObjAddr: 0x19DF8, symBinAddr: 0x10001BF80, symSize: 0x5C }
  - { offsetInCU: 0x6C378, offset: 0x6C378, size: 0x8, addend: 0x0, symName: __ZNSt3__116allocator_traitsINS_9allocatorI3WATEEE8max_sizeB7v160006IS3_vvEEmRKS3_, symObjAddr: 0x19E54, symBinAddr: 0x10001BFDC, symSize: 0x28 }
  - { offsetInCU: 0x6C3A4, offset: 0x6C3A4, size: 0x8, addend: 0x0, symName: __ZNSt3__117__compressed_pairIP3WATRNS_9allocatorIS1_EEE6secondB7v160006Ev, symObjAddr: 0x19E7C, symBinAddr: 0x10001C004, symSize: 0x28 }
  - { offsetInCU: 0x6C3CA, offset: 0x6C3CA, size: 0x8, addend: 0x0, symName: __ZNSt3__122__compressed_pair_elemIRNS_9allocatorI3WATEELi1ELb0EE5__getB7v160006Ev, symObjAddr: 0x19EA4, symBinAddr: 0x10001C02C, symSize: 0x18 }
  - { offsetInCU: 0x6C3F0, offset: 0x6C3F0, size: 0x8, addend: 0x0, symName: __ZNSt3__117__compressed_pairIP3WATRNS_9allocatorIS1_EEE5firstB7v160006Ev, symObjAddr: 0x19EBC, symBinAddr: 0x10001C044, symSize: 0x24 }
  - { offsetInCU: 0x6C416, offset: 0x6C416, size: 0x8, addend: 0x0, symName: __ZNSt3__122__compressed_pair_elemIP3WATLi0ELb0EE5__getB7v160006Ev, symObjAddr: 0x19EE0, symBinAddr: 0x10001C068, symSize: 0x14 }
  - { offsetInCU: 0x6C43C, offset: 0x6C43C, size: 0x8, addend: 0x0, symName: __ZNKSt3__16vectorI3WATNS_9allocatorIS1_EEE17__annotate_deleteB7v160006Ev, symObjAddr: 0x19EF4, symBinAddr: 0x10001C07C, symSize: 0xD4 }
  - { offsetInCU: 0x6C462, offset: 0x6C462, size: 0x8, addend: 0x0, symName: __ZNSt3__116reverse_iteratorIP3WATEC1B7v160006ES2_, symObjAddr: 0x1A0F4, symBinAddr: 0x10001C27C, symSize: 0x34 }
  - { offsetInCU: 0x6C49A, offset: 0x6C49A, size: 0x8, addend: 0x0, symName: __ZNKSt3__116reverse_iteratorIP3WATE4baseB7v160006Ev, symObjAddr: 0x1A128, symBinAddr: 0x10001C2B0, symSize: 0x18 }
  - { offsetInCU: 0x6C4C0, offset: 0x6C4C0, size: 0x8, addend: 0x0, symName: __ZNSt3__16vectorI3WATNS_9allocatorIS1_EEE9__end_capB7v160006Ev, symObjAddr: 0x1A17C, symBinAddr: 0x10001C304, symSize: 0x28 }
  - { offsetInCU: 0x6C4E6, offset: 0x6C4E6, size: 0x8, addend: 0x0, symName: __ZNKSt3__16vectorI3WATNS_9allocatorIS1_EEE14__annotate_newB7v160006Em, symObjAddr: 0x1A1A4, symBinAddr: 0x10001C32C, symSize: 0xC8 }
  - { offsetInCU: 0x6C51B, offset: 0x6C51B, size: 0x8, addend: 0x0, symName: __ZNSt3__129_AllocatorDestroyRangeReverseINS_9allocatorI3WATEENS_16reverse_iteratorIPS2_EEEC1B7v160006ERS3_RS6_S9_, symObjAddr: 0x1A2B8, symBinAddr: 0x10001C440, symSize: 0x44 }
  - { offsetInCU: 0x6C578, offset: 0x6C578, size: 0x8, addend: 0x0, symName: __ZNSt3__116allocator_traitsINS_9allocatorI3WATEEE9constructB7v160006IS2_JS2_EvvEEvRS3_PT_DpOT0_, symObjAddr: 0x1A344, symBinAddr: 0x10001C4CC, symSize: 0x30 }
  - { offsetInCU: 0x6C5CD, offset: 0x6C5CD, size: 0x8, addend: 0x0, symName: __ZNKSt3__116reverse_iteratorIP3WATEdeB7v160006Ev, symObjAddr: 0x1A398, symBinAddr: 0x10001C520, symSize: 0x28 }
  - { offsetInCU: 0x6C601, offset: 0x6C601, size: 0x8, addend: 0x0, symName: __ZNSt3__116reverse_iteratorIP3WATEppB7v160006Ev, symObjAddr: 0x1A3C0, symBinAddr: 0x10001C548, symSize: 0x20 }
  - { offsetInCU: 0x6C627, offset: 0x6C627, size: 0x8, addend: 0x0, symName: __ZNSt3__128__exception_guard_exceptionsINS_29_AllocatorDestroyRangeReverseINS_9allocatorI3WATEENS_16reverse_iteratorIPS3_EEEEE10__completeB7v160006Ev, symObjAddr: 0x1A3E0, symBinAddr: 0x10001C568, symSize: 0x1C }
  - { offsetInCU: 0x6C64D, offset: 0x6C64D, size: 0x8, addend: 0x0, symName: __ZNSt3__128__exception_guard_exceptionsINS_29_AllocatorDestroyRangeReverseINS_9allocatorI3WATEENS_16reverse_iteratorIPS3_EEEEED1B7v160006Ev, symObjAddr: 0x1A3FC, symBinAddr: 0x10001C584, symSize: 0x2C }
  - { offsetInCU: 0x6C677, offset: 0x6C677, size: 0x8, addend: 0x0, symName: __ZNSt3__128__exception_guard_exceptionsINS_29_AllocatorDestroyRangeReverseINS_9allocatorI3WATEENS_16reverse_iteratorIPS3_EEEEEC1B7v160006ES8_, symObjAddr: 0x1A428, symBinAddr: 0x10001C5B0, symSize: 0x34 }
  - { offsetInCU: 0x6C6B0, offset: 0x6C6B0, size: 0x8, addend: 0x0, symName: __ZNSt3__128__exception_guard_exceptionsINS_29_AllocatorDestroyRangeReverseINS_9allocatorI3WATEENS_16reverse_iteratorIPS3_EEEEEC2B7v160006ES8_, symObjAddr: 0x1A45C, symBinAddr: 0x10001C5E4, symSize: 0x30 }
  - { offsetInCU: 0x6C6E9, offset: 0x6C6E9, size: 0x8, addend: 0x0, symName: __ZNSt3__129_AllocatorDestroyRangeReverseINS_9allocatorI3WATEENS_16reverse_iteratorIPS2_EEEC2B7v160006ERS3_RS6_S9_, symObjAddr: 0x1A48C, symBinAddr: 0x10001C614, symSize: 0x38 }
  - { offsetInCU: 0x6C740, offset: 0x6C740, size: 0x8, addend: 0x0, symName: __ZN3WATC1EOS_, symObjAddr: 0x1A500, symBinAddr: 0x10001C688, symSize: 0x34 }
  - { offsetInCU: 0x6C775, offset: 0x6C775, size: 0x8, addend: 0x0, symName: __ZN3WATC2EOS_, symObjAddr: 0x1A534, symBinAddr: 0x10001C6BC, symSize: 0x184 }
  - { offsetInCU: 0x6C7B0, offset: 0x6C7B0, size: 0x8, addend: 0x0, symName: __ZNSt3__119__to_address_helperINS_16reverse_iteratorIP3WATEEvE6__callB7v160006ERKS4_, symObjAddr: 0x1A6B8, symBinAddr: 0x10001C840, symSize: 0x38 }
  - { offsetInCU: 0x6C7D3, offset: 0x6C7D3, size: 0x8, addend: 0x0, symName: __ZNKSt3__116reverse_iteratorIP3WATEptB7v160006Ev, symObjAddr: 0x1A6F0, symBinAddr: 0x10001C878, symSize: 0x2C }
  - { offsetInCU: 0x6C7F9, offset: 0x6C7F9, size: 0x8, addend: 0x0, symName: __ZNSt3__128__exception_guard_exceptionsINS_29_AllocatorDestroyRangeReverseINS_9allocatorI3WATEENS_16reverse_iteratorIPS3_EEEEED2B7v160006Ev, symObjAddr: 0x1A7EC, symBinAddr: 0x10001C974, symSize: 0x50 }
  - { offsetInCU: 0x6C823, offset: 0x6C823, size: 0x8, addend: 0x0, symName: __ZNKSt3__129_AllocatorDestroyRangeReverseINS_9allocatorI3WATEENS_16reverse_iteratorIPS2_EEEclB7v160006Ev, symObjAddr: 0x1A83C, symBinAddr: 0x10001C9C4, symSize: 0xB4 }
  - { offsetInCU: 0x6C84A, offset: 0x6C84A, size: 0x8, addend: 0x0, symName: __ZNSt3__116reverse_iteratorINS0_IP3WATEEEC1B7v160006ES3_, symObjAddr: 0x1A960, symBinAddr: 0x10001CAE8, symSize: 0x3C }
  - { offsetInCU: 0x6C882, offset: 0x6C882, size: 0x8, addend: 0x0, symName: __ZNSt3__116reverse_iteratorINS0_IP3WATEEEppB7v160006Ev, symObjAddr: 0x1AA20, symBinAddr: 0x10001CBA8, symSize: 0x30 }
  - { offsetInCU: 0x6C8A8, offset: 0x6C8A8, size: 0x8, addend: 0x0, symName: __ZNKSt3__116reverse_iteratorINS0_IP3WATEEE4baseB7v160006Ev, symObjAddr: 0x1AA50, symBinAddr: 0x10001CBD8, symSize: 0x24 }
  - { offsetInCU: 0x6C8D4, offset: 0x6C8D4, size: 0x8, addend: 0x0, symName: __ZNSt3__119__to_address_helperINS_16reverse_iteratorINS1_IP3WATEEEEvE6__callB7v160006ERKS5_, symObjAddr: 0x1AA74, symBinAddr: 0x10001CBFC, symSize: 0x38 }
  - { offsetInCU: 0x6C8F7, offset: 0x6C8F7, size: 0x8, addend: 0x0, symName: __ZNKSt3__116reverse_iteratorINS0_IP3WATEEEptB7v160006Ev, symObjAddr: 0x1AAAC, symBinAddr: 0x10001CC34, symSize: 0x4C }
  - { offsetInCU: 0x6C91D, offset: 0x6C91D, size: 0x8, addend: 0x0, symName: __ZNSt3__116reverse_iteratorIP3WATEpLB7v160006El, symObjAddr: 0x1ABD4, symBinAddr: 0x10001CD5C, symSize: 0x30 }
  - { offsetInCU: 0x6C951, offset: 0x6C951, size: 0x8, addend: 0x0, symName: __ZNSt3__116reverse_iteratorIP3WATEmmB7v160006Ev, symObjAddr: 0x1AC04, symBinAddr: 0x10001CD8C, symSize: 0x20 }
  - { offsetInCU: 0x6C977, offset: 0x6C977, size: 0x8, addend: 0x0, symName: __ZNSt3__116reverse_iteratorINS0_IP3WATEEEC2B7v160006ES3_, symObjAddr: 0x1AC24, symBinAddr: 0x10001CDAC, symSize: 0x2C }
  - { offsetInCU: 0x6C9AF, offset: 0x6C9AF, size: 0x8, addend: 0x0, symName: __ZNSt3__116reverse_iteratorIP3WATEC2B7v160006ES2_, symObjAddr: 0x1AC50, symBinAddr: 0x10001CDD8, symSize: 0x28 }
  - { offsetInCU: 0x6C9E7, offset: 0x6C9E7, size: 0x8, addend: 0x0, symName: __ZNSt3__117__compressed_pairIP3WATNS_9allocatorIS1_EEE5firstB7v160006Ev, symObjAddr: 0x1AC78, symBinAddr: 0x10001CE00, symSize: 0x24 }
  - { offsetInCU: 0x6CA0D, offset: 0x6CA0D, size: 0x8, addend: 0x0, symName: __ZNSt3__114__split_bufferI3WATRNS_9allocatorIS1_EEED2Ev, symObjAddr: 0x1AC9C, symBinAddr: 0x10001CE24, symSize: 0x8C }
  - { offsetInCU: 0x6CA39, offset: 0x6CA39, size: 0x8, addend: 0x0, symName: __ZNSt3__114__split_bufferI3WATRNS_9allocatorIS1_EEE5clearB7v160006Ev, symObjAddr: 0x1AD28, symBinAddr: 0x10001CEB0, symSize: 0x28 }
  - { offsetInCU: 0x6CA5F, offset: 0x6CA5F, size: 0x8, addend: 0x0, symName: __ZNSt3__116allocator_traitsINS_9allocatorI3WATEEE10deallocateB7v160006ERS3_PS2_m, symObjAddr: 0x1AD50, symBinAddr: 0x10001CED8, symSize: 0x34 }
  - { offsetInCU: 0x6CAA1, offset: 0x6CAA1, size: 0x8, addend: 0x0, symName: __ZNKSt3__114__split_bufferI3WATRNS_9allocatorIS1_EEE8capacityB7v160006Ev, symObjAddr: 0x1AD84, symBinAddr: 0x10001CF0C, symSize: 0x40 }
  - { offsetInCU: 0x6CAC7, offset: 0x6CAC7, size: 0x8, addend: 0x0, symName: __ZNSt3__114__split_bufferI3WATRNS_9allocatorIS1_EEE17__destruct_at_endB7v160006EPS1_, symObjAddr: 0x1ADC4, symBinAddr: 0x10001CF4C, symSize: 0x2C }
  - { offsetInCU: 0x6CAFB, offset: 0x6CAFB, size: 0x8, addend: 0x0, symName: __ZNSt3__114__split_bufferI3WATRNS_9allocatorIS1_EEE17__destruct_at_endB7v160006EPS1_NS_17integral_constantIbLb0EEE, symObjAddr: 0x1ADF0, symBinAddr: 0x10001CF78, symSize: 0x80 }
  - { offsetInCU: 0x6CB3C, offset: 0x6CB3C, size: 0x8, addend: 0x0, symName: __ZNSt3__19allocatorI3WATE10deallocateB7v160006EPS1_m, symObjAddr: 0x1AE70, symBinAddr: 0x10001CFF8, symSize: 0x44 }
  - { offsetInCU: 0x6CB7E, offset: 0x6CB7E, size: 0x8, addend: 0x0, symName: __ZNKSt3__114__split_bufferI3WATRNS_9allocatorIS1_EEE9__end_capB7v160006Ev, symObjAddr: 0x1AEB4, symBinAddr: 0x10001D03C, symSize: 0x28 }
  - { offsetInCU: 0x6CBA4, offset: 0x6CBA4, size: 0x8, addend: 0x0, symName: __ZNKSt3__117__compressed_pairIP3WATRNS_9allocatorIS1_EEE5firstB7v160006Ev, symObjAddr: 0x1AEDC, symBinAddr: 0x10001D064, symSize: 0x24 }
  - { offsetInCU: 0x6CBCA, offset: 0x6CBCA, size: 0x8, addend: 0x0, symName: __ZNKSt3__112basic_stringIcNS_11char_traitsIcEENS_9allocatorIcEEEcvNS_17basic_string_viewIcS2_EEB7v160006Ev, symObjAddr: 0x1AFB0, symBinAddr: 0x10001D138, symSize: 0x50 }
  - { offsetInCU: 0x6CBF0, offset: 0x6CBF0, size: 0x8, addend: 0x0, symName: __ZNSt3__117basic_string_viewIcNS_11char_traitsIcEEEC1B7v160006EPKc, symObjAddr: 0x1B000, symBinAddr: 0x10001D188, symSize: 0x34 }
  - { offsetInCU: 0x6CC29, offset: 0x6CC29, size: 0x8, addend: 0x0, symName: __ZNKSt3__117basic_string_viewIcNS_11char_traitsIcEEE4sizeB7v160006Ev, symObjAddr: 0x1B034, symBinAddr: 0x10001D1BC, symSize: 0x18 }
  - { offsetInCU: 0x6CC4F, offset: 0x6CC4F, size: 0x8, addend: 0x0, symName: __ZNKSt3__117basic_string_viewIcNS_11char_traitsIcEEE7compareES3_, symObjAddr: 0x1B04C, symBinAddr: 0x10001D1D4, symSize: 0x13C }
  - { offsetInCU: 0x6CCA2, offset: 0x6CCA2, size: 0x8, addend: 0x0, symName: __ZNKSt3__117basic_string_viewIcNS_11char_traitsIcEEE4dataB7v160006Ev, symObjAddr: 0x1B188, symBinAddr: 0x10001D310, symSize: 0x18 }
  - { offsetInCU: 0x6CCC8, offset: 0x6CCC8, size: 0x8, addend: 0x0, symName: __ZNSt3__117basic_string_viewIcNS_11char_traitsIcEEEC1B7v160006EPKcm, symObjAddr: 0x1B1A0, symBinAddr: 0x10001D328, symSize: 0x3C }
  - { offsetInCU: 0x6CD10, offset: 0x6CD10, size: 0x8, addend: 0x0, symName: __ZNSt3__117basic_string_viewIcNS_11char_traitsIcEEEC2B7v160006EPKcm, symObjAddr: 0x1B1DC, symBinAddr: 0x10001D364, symSize: 0x50 }
  - { offsetInCU: 0x6CD58, offset: 0x6CD58, size: 0x8, addend: 0x0, symName: __ZNSt3__117basic_string_viewIcNS_11char_traitsIcEEEC2B7v160006EPKc, symObjAddr: 0x1B22C, symBinAddr: 0x10001D3B4, symSize: 0x44 }
  - { offsetInCU: 0x6CD91, offset: 0x6CD91, size: 0x8, addend: 0x0, symName: __ZNSt3__112__tuple_leafILm0E3WATLb0EE3getB7v160006Ev, symObjAddr: 0x1B294, symBinAddr: 0x10001D41C, symSize: 0x14 }
  - { offsetInCU: 0x6CDB7, offset: 0x6CDB7, size: 0x8, addend: 0x0, symName: __ZNSt3__114basic_ofstreamIcNS_11char_traitsIcEEED2Ev, symObjAddr: 0x1B2A8, symBinAddr: 0x10001D430, symSize: 0x64 }
  - { offsetInCU: 0x6CDF1, offset: 0x6CDF1, size: 0x8, addend: 0x0, symName: __ZTv0_n24_NSt3__114basic_ofstreamIcNS_11char_traitsIcEEED1Ev, symObjAddr: 0x1B30C, symBinAddr: 0x10001D494, symSize: 0x28 }
  - { offsetInCU: 0x6CE08, offset: 0x6CE08, size: 0x8, addend: 0x0, symName: __ZNSt3__16vectorINS_5tupleIJ3WAT8InlineTR11DataEntryEQ5EqlotEEENS_9allocatorIS6_EEED2B7v160006Ev, symObjAddr: 0x1B334, symBinAddr: 0x10001D4BC, symSize: 0x44 }
  - { offsetInCU: 0x6CE32, offset: 0x6CE32, size: 0x8, addend: 0x0, symName: __ZNSt3__16vectorINS_5tupleIJ3WAT8InlineTR11DataEntryEQ5EqlotEEENS_9allocatorIS6_EEE16__destroy_vectorC1ERS9_, symObjAddr: 0x1B378, symBinAddr: 0x10001D500, symSize: 0x34 }
  - { offsetInCU: 0x6CE6B, offset: 0x6CE6B, size: 0x8, addend: 0x0, symName: __ZNSt3__16vectorINS_5tupleIJ3WAT8InlineTR11DataEntryEQ5EqlotEEENS_9allocatorIS6_EEE16__destroy_vectorclB7v160006Ev, symObjAddr: 0x1B3AC, symBinAddr: 0x10001D534, symSize: 0x9C }
  - { offsetInCU: 0x6CE91, offset: 0x6CE91, size: 0x8, addend: 0x0, symName: __ZNSt3__16vectorINS_5tupleIJ3WAT8InlineTR11DataEntryEQ5EqlotEEENS_9allocatorIS6_EEE16__destroy_vectorC2ERS9_, symObjAddr: 0x1B448, symBinAddr: 0x10001D5D0, symSize: 0x20 }
  - { offsetInCU: 0x6CECA, offset: 0x6CECA, size: 0x8, addend: 0x0, symName: __ZNKSt3__16vectorINS_5tupleIJ3WAT8InlineTR11DataEntryEQ5EqlotEEENS_9allocatorIS6_EEE17__annotate_deleteB7v160006Ev, symObjAddr: 0x1B468, symBinAddr: 0x10001D5F0, symSize: 0xD4 }
  - { offsetInCU: 0x6CEF0, offset: 0x6CEF0, size: 0x8, addend: 0x0, symName: __ZNSt3__16vectorINS_5tupleIJ3WAT8InlineTR11DataEntryEQ5EqlotEEENS_9allocatorIS6_EEE7__clearB7v160006Ev, symObjAddr: 0x1B54C, symBinAddr: 0x10001D6D4, symSize: 0x28 }
  - { offsetInCU: 0x6CF16, offset: 0x6CF16, size: 0x8, addend: 0x0, symName: __ZNSt3__116allocator_traitsINS_9allocatorINS_5tupleIJ3WAT8InlineTR11DataEntryEQ5EqlotEEEEEE10deallocateB7v160006ERS8_PS7_m, symObjAddr: 0x1B574, symBinAddr: 0x10001D6FC, symSize: 0x34 }
  - { offsetInCU: 0x6CF58, offset: 0x6CF58, size: 0x8, addend: 0x0, symName: __ZNSt3__16vectorINS_5tupleIJ3WAT8InlineTR11DataEntryEQ5EqlotEEENS_9allocatorIS6_EEE7__allocB7v160006Ev, symObjAddr: 0x1B5A8, symBinAddr: 0x10001D730, symSize: 0x28 }
  - { offsetInCU: 0x6CF7E, offset: 0x6CF7E, size: 0x8, addend: 0x0, symName: __ZNKSt3__16vectorINS_5tupleIJ3WAT8InlineTR11DataEntryEQ5EqlotEEENS_9allocatorIS6_EEE8capacityB7v160006Ev, symObjAddr: 0x1B5D0, symBinAddr: 0x10001D758, symSize: 0x40 }
  - { offsetInCU: 0x6CFA4, offset: 0x6CFA4, size: 0x8, addend: 0x0, symName: __ZNKSt3__16vectorINS_5tupleIJ3WAT8InlineTR11DataEntryEQ5EqlotEEENS_9allocatorIS6_EEE31__annotate_contiguous_containerB7v160006EPKvSB_SB_SB_, symObjAddr: 0x1B610, symBinAddr: 0x10001D798, symSize: 0x20 }
  - { offsetInCU: 0x6CFFA, offset: 0x6CFFA, size: 0x8, addend: 0x0, symName: __ZNKSt3__16vectorINS_5tupleIJ3WAT8InlineTR11DataEntryEQ5EqlotEEENS_9allocatorIS6_EEE4dataB7v160006Ev, symObjAddr: 0x1B630, symBinAddr: 0x10001D7B8, symSize: 0x28 }
  - { offsetInCU: 0x6D020, offset: 0x6D020, size: 0x8, addend: 0x0, symName: __ZNKSt3__16vectorINS_5tupleIJ3WAT8InlineTR11DataEntryEQ5EqlotEEENS_9allocatorIS6_EEE4sizeB7v160006Ev, symObjAddr: 0x1B658, symBinAddr: 0x10001D7E0, symSize: 0x28 }
  - { offsetInCU: 0x6D046, offset: 0x6D046, size: 0x8, addend: 0x0, symName: __ZNSt3__16vectorINS_5tupleIJ3WAT8InlineTR11DataEntryEQ5EqlotEEENS_9allocatorIS6_EEE22__base_destruct_at_endB7v160006EPS6_, symObjAddr: 0x1B694, symBinAddr: 0x10001D81C, symSize: 0x8C }
  - { offsetInCU: 0x6D08A, offset: 0x6D08A, size: 0x8, addend: 0x0, symName: __ZNSt3__116allocator_traitsINS_9allocatorINS_5tupleIJ3WAT8InlineTR11DataEntryEQ5EqlotEEEEEE7destroyB7v160006IS7_vvEEvRS8_PT_, symObjAddr: 0x1B720, symBinAddr: 0x10001D8A8, symSize: 0x28 }
  - { offsetInCU: 0x6D0C5, offset: 0x6D0C5, size: 0x8, addend: 0x0, symName: __ZNSt3__15tupleIJ3WAT8InlineTR11DataEntryEQ5EqlotEED1Ev, symObjAddr: 0x1B790, symBinAddr: 0x10001D918, symSize: 0x2C }
  - { offsetInCU: 0x6D0F2, offset: 0x6D0F2, size: 0x8, addend: 0x0, symName: __ZNSt3__15tupleIJ3WAT8InlineTR11DataEntryEQ5EqlotEED2Ev, symObjAddr: 0x1B7BC, symBinAddr: 0x10001D944, symSize: 0x2C }
  - { offsetInCU: 0x6D11F, offset: 0x6D11F, size: 0x8, addend: 0x0, symName: __ZNSt3__112__tuple_implINS_15__tuple_indicesIJLm0ELm1ELm2ELm3EEEEJ3WAT8InlineTR11DataEntryEQ5EqlotEED1Ev, symObjAddr: 0x1B7E8, symBinAddr: 0x10001D970, symSize: 0x2C }
  - { offsetInCU: 0x6D14C, offset: 0x6D14C, size: 0x8, addend: 0x0, symName: __ZNSt3__112__tuple_implINS_15__tuple_indicesIJLm0ELm1ELm2ELm3EEEEJ3WAT8InlineTR11DataEntryEQ5EqlotEED2Ev, symObjAddr: 0x1B814, symBinAddr: 0x10001D99C, symSize: 0x50 }
  - { offsetInCU: 0x6D179, offset: 0x6D179, size: 0x8, addend: 0x0, symName: __ZNSt3__112__tuple_leafILm3E5EqlotLb0EED2Ev, symObjAddr: 0x1B864, symBinAddr: 0x10001D9EC, symSize: 0x2C }
  - { offsetInCU: 0x6D1A6, offset: 0x6D1A6, size: 0x8, addend: 0x0, symName: __ZNSt3__112__tuple_leafILm2E11DataEntryEQLb0EED2Ev, symObjAddr: 0x1B890, symBinAddr: 0x10001DA18, symSize: 0x2C }
  - { offsetInCU: 0x6D1D3, offset: 0x6D1D3, size: 0x8, addend: 0x0, symName: __ZNSt3__112__tuple_leafILm1E8InlineTRLb0EED2Ev, symObjAddr: 0x1B8BC, symBinAddr: 0x10001DA44, symSize: 0x2C }
  - { offsetInCU: 0x6D200, offset: 0x6D200, size: 0x8, addend: 0x0, symName: __ZNSt3__112__tuple_leafILm0E3WATLb0EED2Ev, symObjAddr: 0x1B8E8, symBinAddr: 0x10001DA70, symSize: 0x2C }
  - { offsetInCU: 0x6D22D, offset: 0x6D22D, size: 0x8, addend: 0x0, symName: __ZNSt3__19allocatorINS_5tupleIJ3WAT8InlineTR11DataEntryEQ5EqlotEEEE10deallocateB7v160006EPS6_m, symObjAddr: 0x1B914, symBinAddr: 0x10001DA9C, symSize: 0x44 }
  - { offsetInCU: 0x6D26F, offset: 0x6D26F, size: 0x8, addend: 0x0, symName: __ZNSt3__117__compressed_pairIPNS_5tupleIJ3WAT8InlineTR11DataEntryEQ5EqlotEEENS_9allocatorIS6_EEE6secondB7v160006Ev, symObjAddr: 0x1B958, symBinAddr: 0x10001DAE0, symSize: 0x24 }
  - { offsetInCU: 0x6D295, offset: 0x6D295, size: 0x8, addend: 0x0, symName: __ZNSt3__122__compressed_pair_elemINS_9allocatorINS_5tupleIJ3WAT8InlineTR11DataEntryEQ5EqlotEEEEELi1ELb1EE5__getB7v160006Ev, symObjAddr: 0x1B97C, symBinAddr: 0x10001DB04, symSize: 0x14 }
  - { offsetInCU: 0x6D2BB, offset: 0x6D2BB, size: 0x8, addend: 0x0, symName: __ZNKSt3__16vectorINS_5tupleIJ3WAT8InlineTR11DataEntryEQ5EqlotEEENS_9allocatorIS6_EEE9__end_capB7v160006Ev, symObjAddr: 0x1B990, symBinAddr: 0x10001DB18, symSize: 0x28 }
  - { offsetInCU: 0x6D2E1, offset: 0x6D2E1, size: 0x8, addend: 0x0, symName: __ZNKSt3__117__compressed_pairIPNS_5tupleIJ3WAT8InlineTR11DataEntryEQ5EqlotEEENS_9allocatorIS6_EEE5firstB7v160006Ev, symObjAddr: 0x1B9B8, symBinAddr: 0x10001DB40, symSize: 0x24 }
  - { offsetInCU: 0x6D307, offset: 0x6D307, size: 0x8, addend: 0x0, symName: __ZNKSt3__122__compressed_pair_elemIPNS_5tupleIJ3WAT8InlineTR11DataEntryEQ5EqlotEEELi0ELb0EE5__getB7v160006Ev, symObjAddr: 0x1B9DC, symBinAddr: 0x10001DB64, symSize: 0x14 }
  - { offsetInCU: 0x6D32D, offset: 0x6D32D, size: 0x8, addend: 0x0, symName: __ZNSt3__16vectorI5EqlotNS_9allocatorIS1_EEED2B7v160006Ev, symObjAddr: 0x1B9F0, symBinAddr: 0x10001DB78, symSize: 0x44 }
  - { offsetInCU: 0x6D357, offset: 0x6D357, size: 0x8, addend: 0x0, symName: __ZNSt3__16vectorI5EqlotNS_9allocatorIS1_EEE16__destroy_vectorC1ERS4_, symObjAddr: 0x1BA34, symBinAddr: 0x10001DBBC, symSize: 0x34 }
  - { offsetInCU: 0x6D390, offset: 0x6D390, size: 0x8, addend: 0x0, symName: __ZNSt3__16vectorI5EqlotNS_9allocatorIS1_EEE16__destroy_vectorclB7v160006Ev, symObjAddr: 0x1BA68, symBinAddr: 0x10001DBF0, symSize: 0x9C }
  - { offsetInCU: 0x6D3B6, offset: 0x6D3B6, size: 0x8, addend: 0x0, symName: __ZNSt3__16vectorI5EqlotNS_9allocatorIS1_EEE16__destroy_vectorC2ERS4_, symObjAddr: 0x1BB04, symBinAddr: 0x10001DC8C, symSize: 0x20 }
  - { offsetInCU: 0x6D3EF, offset: 0x6D3EF, size: 0x8, addend: 0x0, symName: __ZNSt3__16vectorI11DataEntryEQNS_9allocatorIS1_EEED2B7v160006Ev, symObjAddr: 0x1BB34, symBinAddr: 0x10001DCBC, symSize: 0x44 }
  - { offsetInCU: 0x6D419, offset: 0x6D419, size: 0x8, addend: 0x0, symName: __ZNSt3__16vectorI11DataEntryEQNS_9allocatorIS1_EEE16__destroy_vectorC1ERS4_, symObjAddr: 0x1BB78, symBinAddr: 0x10001DD00, symSize: 0x34 }
  - { offsetInCU: 0x6D452, offset: 0x6D452, size: 0x8, addend: 0x0, symName: __ZNSt3__16vectorI11DataEntryEQNS_9allocatorIS1_EEE16__destroy_vectorclB7v160006Ev, symObjAddr: 0x1BBAC, symBinAddr: 0x10001DD34, symSize: 0x9C }
  - { offsetInCU: 0x6D478, offset: 0x6D478, size: 0x8, addend: 0x0, symName: __ZNSt3__16vectorI11DataEntryEQNS_9allocatorIS1_EEE16__destroy_vectorC2ERS4_, symObjAddr: 0x1BC48, symBinAddr: 0x10001DDD0, symSize: 0x20 }
  - { offsetInCU: 0x6D4B1, offset: 0x6D4B1, size: 0x8, addend: 0x0, symName: __ZNSt3__16vectorI8InlineTRNS_9allocatorIS1_EEED2B7v160006Ev, symObjAddr: 0x1BC78, symBinAddr: 0x10001DE00, symSize: 0x44 }
  - { offsetInCU: 0x6D4DB, offset: 0x6D4DB, size: 0x8, addend: 0x0, symName: __ZNSt3__16vectorI8InlineTRNS_9allocatorIS1_EEE16__destroy_vectorC1ERS4_, symObjAddr: 0x1BCBC, symBinAddr: 0x10001DE44, symSize: 0x34 }
  - { offsetInCU: 0x6D514, offset: 0x6D514, size: 0x8, addend: 0x0, symName: __ZNSt3__16vectorI8InlineTRNS_9allocatorIS1_EEE16__destroy_vectorclB7v160006Ev, symObjAddr: 0x1BCF0, symBinAddr: 0x10001DE78, symSize: 0x9C }
  - { offsetInCU: 0x6D53A, offset: 0x6D53A, size: 0x8, addend: 0x0, symName: __ZNSt3__16vectorI8InlineTRNS_9allocatorIS1_EEE16__destroy_vectorC2ERS4_, symObjAddr: 0x1BD8C, symBinAddr: 0x10001DF14, symSize: 0x20 }
  - { offsetInCU: 0x6D573, offset: 0x6D573, size: 0x8, addend: 0x0, symName: __ZNSt3__16vectorI3WATNS_9allocatorIS1_EEED2B7v160006Ev, symObjAddr: 0x1BDBC, symBinAddr: 0x10001DF44, symSize: 0x44 }
  - { offsetInCU: 0x6D59D, offset: 0x6D59D, size: 0x8, addend: 0x0, symName: __ZNSt3__16vectorI3WATNS_9allocatorIS1_EEE16__destroy_vectorC1ERS4_, symObjAddr: 0x1BE00, symBinAddr: 0x10001DF88, symSize: 0x34 }
  - { offsetInCU: 0x6D5D6, offset: 0x6D5D6, size: 0x8, addend: 0x0, symName: __ZNSt3__16vectorI3WATNS_9allocatorIS1_EEE16__destroy_vectorclB7v160006Ev, symObjAddr: 0x1BE34, symBinAddr: 0x10001DFBC, symSize: 0x9C }
  - { offsetInCU: 0x6D5FC, offset: 0x6D5FC, size: 0x8, addend: 0x0, symName: __ZNSt3__16vectorI3WATNS_9allocatorIS1_EEE16__destroy_vectorC2ERS4_, symObjAddr: 0x1BED0, symBinAddr: 0x10001E058, symSize: 0x20 }
  - { offsetInCU: 0x6D635, offset: 0x6D635, size: 0x8, addend: 0x0, symName: __ZNSt3__16vectorINS_5tupleIJ8InlineTR11DataEntryEQ5EqlotEEENS_9allocatorIS5_EEED2B7v160006Ev, symObjAddr: 0x1BF00, symBinAddr: 0x10001E088, symSize: 0x44 }
  - { offsetInCU: 0x6D65F, offset: 0x6D65F, size: 0x8, addend: 0x0, symName: __ZNSt3__16vectorINS_5tupleIJ8InlineTR11DataEntryEQ5EqlotEEENS_9allocatorIS5_EEE16__destroy_vectorC1ERS8_, symObjAddr: 0x1BF44, symBinAddr: 0x10001E0CC, symSize: 0x34 }
  - { offsetInCU: 0x6D698, offset: 0x6D698, size: 0x8, addend: 0x0, symName: __ZNSt3__16vectorINS_5tupleIJ8InlineTR11DataEntryEQ5EqlotEEENS_9allocatorIS5_EEE16__destroy_vectorclB7v160006Ev, symObjAddr: 0x1BF78, symBinAddr: 0x10001E100, symSize: 0x9C }
  - { offsetInCU: 0x6D6BE, offset: 0x6D6BE, size: 0x8, addend: 0x0, symName: __ZNSt3__16vectorINS_5tupleIJ8InlineTR11DataEntryEQ5EqlotEEENS_9allocatorIS5_EEE16__destroy_vectorC2ERS8_, symObjAddr: 0x1C014, symBinAddr: 0x10001E19C, symSize: 0x20 }
  - { offsetInCU: 0x6D6F7, offset: 0x6D6F7, size: 0x8, addend: 0x0, symName: __ZNKSt3__16vectorINS_5tupleIJ8InlineTR11DataEntryEQ5EqlotEEENS_9allocatorIS5_EEE17__annotate_deleteB7v160006Ev, symObjAddr: 0x1C034, symBinAddr: 0x10001E1BC, symSize: 0xD4 }
  - { offsetInCU: 0x6D71D, offset: 0x6D71D, size: 0x8, addend: 0x0, symName: __ZNSt3__16vectorINS_5tupleIJ8InlineTR11DataEntryEQ5EqlotEEENS_9allocatorIS5_EEE7__clearB7v160006Ev, symObjAddr: 0x1C118, symBinAddr: 0x10001E2A0, symSize: 0x28 }
  - { offsetInCU: 0x6D743, offset: 0x6D743, size: 0x8, addend: 0x0, symName: __ZNSt3__116allocator_traitsINS_9allocatorINS_5tupleIJ8InlineTR11DataEntryEQ5EqlotEEEEEE10deallocateB7v160006ERS7_PS6_m, symObjAddr: 0x1C140, symBinAddr: 0x10001E2C8, symSize: 0x34 }
  - { offsetInCU: 0x6D785, offset: 0x6D785, size: 0x8, addend: 0x0, symName: __ZNSt3__16vectorINS_5tupleIJ8InlineTR11DataEntryEQ5EqlotEEENS_9allocatorIS5_EEE7__allocB7v160006Ev, symObjAddr: 0x1C174, symBinAddr: 0x10001E2FC, symSize: 0x28 }
  - { offsetInCU: 0x6D7AB, offset: 0x6D7AB, size: 0x8, addend: 0x0, symName: __ZNKSt3__16vectorINS_5tupleIJ8InlineTR11DataEntryEQ5EqlotEEENS_9allocatorIS5_EEE8capacityB7v160006Ev, symObjAddr: 0x1C19C, symBinAddr: 0x10001E324, symSize: 0x40 }
  - { offsetInCU: 0x6D7D1, offset: 0x6D7D1, size: 0x8, addend: 0x0, symName: __ZNKSt3__16vectorINS_5tupleIJ8InlineTR11DataEntryEQ5EqlotEEENS_9allocatorIS5_EEE31__annotate_contiguous_containerB7v160006EPKvSA_SA_SA_, symObjAddr: 0x1C1DC, symBinAddr: 0x10001E364, symSize: 0x20 }
  - { offsetInCU: 0x6D827, offset: 0x6D827, size: 0x8, addend: 0x0, symName: __ZNKSt3__16vectorINS_5tupleIJ8InlineTR11DataEntryEQ5EqlotEEENS_9allocatorIS5_EEE4dataB7v160006Ev, symObjAddr: 0x1C1FC, symBinAddr: 0x10001E384, symSize: 0x28 }
  - { offsetInCU: 0x6D84D, offset: 0x6D84D, size: 0x8, addend: 0x0, symName: __ZNKSt3__16vectorINS_5tupleIJ8InlineTR11DataEntryEQ5EqlotEEENS_9allocatorIS5_EEE4sizeB7v160006Ev, symObjAddr: 0x1C224, symBinAddr: 0x10001E3AC, symSize: 0x28 }
  - { offsetInCU: 0x6D873, offset: 0x6D873, size: 0x8, addend: 0x0, symName: __ZNSt3__16vectorINS_5tupleIJ8InlineTR11DataEntryEQ5EqlotEEENS_9allocatorIS5_EEE22__base_destruct_at_endB7v160006EPS5_, symObjAddr: 0x1C260, symBinAddr: 0x10001E3E8, symSize: 0x8C }
  - { offsetInCU: 0x6D8B7, offset: 0x6D8B7, size: 0x8, addend: 0x0, symName: __ZNSt3__116allocator_traitsINS_9allocatorINS_5tupleIJ8InlineTR11DataEntryEQ5EqlotEEEEEE7destroyB7v160006IS6_vvEEvRS7_PT_, symObjAddr: 0x1C2EC, symBinAddr: 0x10001E474, symSize: 0x28 }
  - { offsetInCU: 0x6D8F2, offset: 0x6D8F2, size: 0x8, addend: 0x0, symName: __ZNSt3__15tupleIJ8InlineTR11DataEntryEQ5EqlotEED1Ev, symObjAddr: 0x1C35C, symBinAddr: 0x10001E4E4, symSize: 0x2C }
  - { offsetInCU: 0x6D91F, offset: 0x6D91F, size: 0x8, addend: 0x0, symName: __ZNSt3__15tupleIJ8InlineTR11DataEntryEQ5EqlotEED2Ev, symObjAddr: 0x1C388, symBinAddr: 0x10001E510, symSize: 0x2C }
  - { offsetInCU: 0x6D94C, offset: 0x6D94C, size: 0x8, addend: 0x0, symName: __ZNSt3__112__tuple_implINS_15__tuple_indicesIJLm0ELm1ELm2EEEEJ8InlineTR11DataEntryEQ5EqlotEED1Ev, symObjAddr: 0x1C3B4, symBinAddr: 0x10001E53C, symSize: 0x2C }
  - { offsetInCU: 0x6D979, offset: 0x6D979, size: 0x8, addend: 0x0, symName: __ZNSt3__112__tuple_implINS_15__tuple_indicesIJLm0ELm1ELm2EEEEJ8InlineTR11DataEntryEQ5EqlotEED2Ev, symObjAddr: 0x1C3E0, symBinAddr: 0x10001E568, symSize: 0x44 }
  - { offsetInCU: 0x6D9A6, offset: 0x6D9A6, size: 0x8, addend: 0x0, symName: __ZNSt3__112__tuple_leafILm2E5EqlotLb0EED2Ev, symObjAddr: 0x1C424, symBinAddr: 0x10001E5AC, symSize: 0x2C }
  - { offsetInCU: 0x6D9D3, offset: 0x6D9D3, size: 0x8, addend: 0x0, symName: __ZNSt3__112__tuple_leafILm1E11DataEntryEQLb0EED2Ev, symObjAddr: 0x1C450, symBinAddr: 0x10001E5D8, symSize: 0x2C }
  - { offsetInCU: 0x6DA00, offset: 0x6DA00, size: 0x8, addend: 0x0, symName: __ZNSt3__112__tuple_leafILm0E8InlineTRLb0EED2Ev, symObjAddr: 0x1C47C, symBinAddr: 0x10001E604, symSize: 0x2C }
  - { offsetInCU: 0x6DA2D, offset: 0x6DA2D, size: 0x8, addend: 0x0, symName: __ZNSt3__19allocatorINS_5tupleIJ8InlineTR11DataEntryEQ5EqlotEEEE10deallocateB7v160006EPS5_m, symObjAddr: 0x1C4A8, symBinAddr: 0x10001E630, symSize: 0x44 }
  - { offsetInCU: 0x6DA6F, offset: 0x6DA6F, size: 0x8, addend: 0x0, symName: __ZNSt3__117__compressed_pairIPNS_5tupleIJ8InlineTR11DataEntryEQ5EqlotEEENS_9allocatorIS5_EEE6secondB7v160006Ev, symObjAddr: 0x1C4EC, symBinAddr: 0x10001E674, symSize: 0x24 }
  - { offsetInCU: 0x6DA95, offset: 0x6DA95, size: 0x8, addend: 0x0, symName: __ZNSt3__122__compressed_pair_elemINS_9allocatorINS_5tupleIJ8InlineTR11DataEntryEQ5EqlotEEEEELi1ELb1EE5__getB7v160006Ev, symObjAddr: 0x1C510, symBinAddr: 0x10001E698, symSize: 0x14 }
  - { offsetInCU: 0x6DABB, offset: 0x6DABB, size: 0x8, addend: 0x0, symName: __ZNKSt3__16vectorINS_5tupleIJ8InlineTR11DataEntryEQ5EqlotEEENS_9allocatorIS5_EEE9__end_capB7v160006Ev, symObjAddr: 0x1C524, symBinAddr: 0x10001E6AC, symSize: 0x28 }
  - { offsetInCU: 0x6DAE1, offset: 0x6DAE1, size: 0x8, addend: 0x0, symName: __ZNKSt3__117__compressed_pairIPNS_5tupleIJ8InlineTR11DataEntryEQ5EqlotEEENS_9allocatorIS5_EEE5firstB7v160006Ev, symObjAddr: 0x1C54C, symBinAddr: 0x10001E6D4, symSize: 0x24 }
  - { offsetInCU: 0x6DB07, offset: 0x6DB07, size: 0x8, addend: 0x0, symName: __ZNKSt3__122__compressed_pair_elemIPNS_5tupleIJ8InlineTR11DataEntryEQ5EqlotEEELi0ELb0EE5__getB7v160006Ev, symObjAddr: 0x1C570, symBinAddr: 0x10001E6F8, symSize: 0x14 }
  - { offsetInCU: 0x6DB2D, offset: 0x6DB2D, size: 0x8, addend: 0x0, symName: __ZNSt3__16vectorINS_5tupleIJ6Defect11DataEntryEQ5EqlotEEENS_9allocatorIS5_EEED2B7v160006Ev, symObjAddr: 0x1C584, symBinAddr: 0x10001E70C, symSize: 0x44 }
  - { offsetInCU: 0x6DB57, offset: 0x6DB57, size: 0x8, addend: 0x0, symName: __ZNSt3__16vectorINS_5tupleIJ6Defect11DataEntryEQ5EqlotEEENS_9allocatorIS5_EEE16__destroy_vectorC1ERS8_, symObjAddr: 0x1C5C8, symBinAddr: 0x10001E750, symSize: 0x34 }
  - { offsetInCU: 0x6DB90, offset: 0x6DB90, size: 0x8, addend: 0x0, symName: __ZNSt3__16vectorINS_5tupleIJ6Defect11DataEntryEQ5EqlotEEENS_9allocatorIS5_EEE16__destroy_vectorclB7v160006Ev, symObjAddr: 0x1C5FC, symBinAddr: 0x10001E784, symSize: 0x9C }
  - { offsetInCU: 0x6DBB6, offset: 0x6DBB6, size: 0x8, addend: 0x0, symName: __ZNSt3__16vectorINS_5tupleIJ6Defect11DataEntryEQ5EqlotEEENS_9allocatorIS5_EEE16__destroy_vectorC2ERS8_, symObjAddr: 0x1C698, symBinAddr: 0x10001E820, symSize: 0x20 }
  - { offsetInCU: 0x6DBEF, offset: 0x6DBEF, size: 0x8, addend: 0x0, symName: __ZNKSt3__16vectorINS_5tupleIJ6Defect11DataEntryEQ5EqlotEEENS_9allocatorIS5_EEE17__annotate_deleteB7v160006Ev, symObjAddr: 0x1C6B8, symBinAddr: 0x10001E840, symSize: 0xD4 }
  - { offsetInCU: 0x6DC15, offset: 0x6DC15, size: 0x8, addend: 0x0, symName: __ZNSt3__16vectorINS_5tupleIJ6Defect11DataEntryEQ5EqlotEEENS_9allocatorIS5_EEE7__clearB7v160006Ev, symObjAddr: 0x1C79C, symBinAddr: 0x10001E924, symSize: 0x28 }
  - { offsetInCU: 0x6DC3B, offset: 0x6DC3B, size: 0x8, addend: 0x0, symName: __ZNSt3__116allocator_traitsINS_9allocatorINS_5tupleIJ6Defect11DataEntryEQ5EqlotEEEEEE10deallocateB7v160006ERS7_PS6_m, symObjAddr: 0x1C7C4, symBinAddr: 0x10001E94C, symSize: 0x34 }
  - { offsetInCU: 0x6DC7D, offset: 0x6DC7D, size: 0x8, addend: 0x0, symName: __ZNSt3__16vectorINS_5tupleIJ6Defect11DataEntryEQ5EqlotEEENS_9allocatorIS5_EEE7__allocB7v160006Ev, symObjAddr: 0x1C7F8, symBinAddr: 0x10001E980, symSize: 0x28 }
  - { offsetInCU: 0x6DCA3, offset: 0x6DCA3, size: 0x8, addend: 0x0, symName: __ZNKSt3__16vectorINS_5tupleIJ6Defect11DataEntryEQ5EqlotEEENS_9allocatorIS5_EEE8capacityB7v160006Ev, symObjAddr: 0x1C820, symBinAddr: 0x10001E9A8, symSize: 0x40 }
  - { offsetInCU: 0x6DCC9, offset: 0x6DCC9, size: 0x8, addend: 0x0, symName: __ZNKSt3__16vectorINS_5tupleIJ6Defect11DataEntryEQ5EqlotEEENS_9allocatorIS5_EEE31__annotate_contiguous_containerB7v160006EPKvSA_SA_SA_, symObjAddr: 0x1C860, symBinAddr: 0x10001E9E8, symSize: 0x20 }
  - { offsetInCU: 0x6DD1F, offset: 0x6DD1F, size: 0x8, addend: 0x0, symName: __ZNKSt3__16vectorINS_5tupleIJ6Defect11DataEntryEQ5EqlotEEENS_9allocatorIS5_EEE4dataB7v160006Ev, symObjAddr: 0x1C880, symBinAddr: 0x10001EA08, symSize: 0x28 }
  - { offsetInCU: 0x6DD45, offset: 0x6DD45, size: 0x8, addend: 0x0, symName: __ZNKSt3__16vectorINS_5tupleIJ6Defect11DataEntryEQ5EqlotEEENS_9allocatorIS5_EEE4sizeB7v160006Ev, symObjAddr: 0x1C8A8, symBinAddr: 0x10001EA30, symSize: 0x28 }
  - { offsetInCU: 0x6DD6B, offset: 0x6DD6B, size: 0x8, addend: 0x0, symName: __ZNSt3__16vectorINS_5tupleIJ6Defect11DataEntryEQ5EqlotEEENS_9allocatorIS5_EEE22__base_destruct_at_endB7v160006EPS5_, symObjAddr: 0x1C8E4, symBinAddr: 0x10001EA6C, symSize: 0x8C }
  - { offsetInCU: 0x6DDAF, offset: 0x6DDAF, size: 0x8, addend: 0x0, symName: __ZNSt3__116allocator_traitsINS_9allocatorINS_5tupleIJ6Defect11DataEntryEQ5EqlotEEEEEE7destroyB7v160006IS6_vvEEvRS7_PT_, symObjAddr: 0x1C970, symBinAddr: 0x10001EAF8, symSize: 0x28 }
  - { offsetInCU: 0x6DDEA, offset: 0x6DDEA, size: 0x8, addend: 0x0, symName: __ZNSt3__15tupleIJ6Defect11DataEntryEQ5EqlotEED1Ev, symObjAddr: 0x1C9E0, symBinAddr: 0x10001EB68, symSize: 0x2C }
  - { offsetInCU: 0x6DE17, offset: 0x6DE17, size: 0x8, addend: 0x0, symName: __ZNSt3__15tupleIJ6Defect11DataEntryEQ5EqlotEED2Ev, symObjAddr: 0x1CA0C, symBinAddr: 0x10001EB94, symSize: 0x2C }
  - { offsetInCU: 0x6DE44, offset: 0x6DE44, size: 0x8, addend: 0x0, symName: __ZNSt3__112__tuple_implINS_15__tuple_indicesIJLm0ELm1ELm2EEEEJ6Defect11DataEntryEQ5EqlotEED1Ev, symObjAddr: 0x1CA38, symBinAddr: 0x10001EBC0, symSize: 0x2C }
  - { offsetInCU: 0x6DE71, offset: 0x6DE71, size: 0x8, addend: 0x0, symName: __ZNSt3__112__tuple_implINS_15__tuple_indicesIJLm0ELm1ELm2EEEEJ6Defect11DataEntryEQ5EqlotEED2Ev, symObjAddr: 0x1CA64, symBinAddr: 0x10001EBEC, symSize: 0x44 }
  - { offsetInCU: 0x6DE9E, offset: 0x6DE9E, size: 0x8, addend: 0x0, symName: __ZNSt3__112__tuple_leafILm0E6DefectLb0EED2Ev, symObjAddr: 0x1CAA8, symBinAddr: 0x10001EC30, symSize: 0x2C }
  - { offsetInCU: 0x6DECB, offset: 0x6DECB, size: 0x8, addend: 0x0, symName: __ZNSt3__19allocatorINS_5tupleIJ6Defect11DataEntryEQ5EqlotEEEE10deallocateB7v160006EPS5_m, symObjAddr: 0x1CAD4, symBinAddr: 0x10001EC5C, symSize: 0x44 }
  - { offsetInCU: 0x6DF0D, offset: 0x6DF0D, size: 0x8, addend: 0x0, symName: __ZNSt3__117__compressed_pairIPNS_5tupleIJ6Defect11DataEntryEQ5EqlotEEENS_9allocatorIS5_EEE6secondB7v160006Ev, symObjAddr: 0x1CB18, symBinAddr: 0x10001ECA0, symSize: 0x24 }
  - { offsetInCU: 0x6DF33, offset: 0x6DF33, size: 0x8, addend: 0x0, symName: __ZNSt3__122__compressed_pair_elemINS_9allocatorINS_5tupleIJ6Defect11DataEntryEQ5EqlotEEEEELi1ELb1EE5__getB7v160006Ev, symObjAddr: 0x1CB3C, symBinAddr: 0x10001ECC4, symSize: 0x14 }
  - { offsetInCU: 0x6DF59, offset: 0x6DF59, size: 0x8, addend: 0x0, symName: __ZNKSt3__16vectorINS_5tupleIJ6Defect11DataEntryEQ5EqlotEEENS_9allocatorIS5_EEE9__end_capB7v160006Ev, symObjAddr: 0x1CB50, symBinAddr: 0x10001ECD8, symSize: 0x28 }
  - { offsetInCU: 0x6DF7F, offset: 0x6DF7F, size: 0x8, addend: 0x0, symName: __ZNKSt3__117__compressed_pairIPNS_5tupleIJ6Defect11DataEntryEQ5EqlotEEENS_9allocatorIS5_EEE5firstB7v160006Ev, symObjAddr: 0x1CB78, symBinAddr: 0x10001ED00, symSize: 0x24 }
  - { offsetInCU: 0x6DFA5, offset: 0x6DFA5, size: 0x8, addend: 0x0, symName: __ZNKSt3__122__compressed_pair_elemIPNS_5tupleIJ6Defect11DataEntryEQ5EqlotEEELi0ELb0EE5__getB7v160006Ev, symObjAddr: 0x1CB9C, symBinAddr: 0x10001ED24, symSize: 0x14 }
  - { offsetInCU: 0x6DFCB, offset: 0x6DFCB, size: 0x8, addend: 0x0, symName: __ZNSt3__16vectorI6DefectNS_9allocatorIS1_EEED2B7v160006Ev, symObjAddr: 0x1CBB0, symBinAddr: 0x10001ED38, symSize: 0x44 }
  - { offsetInCU: 0x6DFF5, offset: 0x6DFF5, size: 0x8, addend: 0x0, symName: __ZNSt3__16vectorI6DefectNS_9allocatorIS1_EEE16__destroy_vectorC1ERS4_, symObjAddr: 0x1CBF4, symBinAddr: 0x10001ED7C, symSize: 0x34 }
  - { offsetInCU: 0x6E02E, offset: 0x6E02E, size: 0x8, addend: 0x0, symName: __ZNSt3__16vectorI6DefectNS_9allocatorIS1_EEE16__destroy_vectorclB7v160006Ev, symObjAddr: 0x1CC28, symBinAddr: 0x10001EDB0, symSize: 0x9C }
  - { offsetInCU: 0x6E054, offset: 0x6E054, size: 0x8, addend: 0x0, symName: __ZNSt3__16vectorI6DefectNS_9allocatorIS1_EEE16__destroy_vectorC2ERS4_, symObjAddr: 0x1CCC4, symBinAddr: 0x10001EE4C, symSize: 0x20 }
  - { offsetInCU: 0x6E08D, offset: 0x6E08D, size: 0x8, addend: 0x0, symName: __ZNSt3__113unordered_mapINS_12basic_stringIcNS_11char_traitsIcEENS_9allocatorIcEEEEbNS_4hashIS6_EENS_8equal_toIS6_EENS4_INS_4pairIKS6_bEEEEEC2ESt16initializer_listISD_E, symObjAddr: 0x1CCF4, symBinAddr: 0x10001EE7C, symSize: 0x94 }
  - { offsetInCU: 0x6E0C8, offset: 0x6E0C8, size: 0x8, addend: 0x0, symName: __ZNSt3__112__hash_tableINS_17__hash_value_typeINS_12basic_stringIcNS_11char_traitsIcEENS_9allocatorIcEEEEbEENS_22__unordered_map_hasherIS7_S8_NS_4hashIS7_EENS_8equal_toIS7_EELb1EEENS_21__unordered_map_equalIS7_S8_SD_SB_Lb1EEENS5_IS8_EEEC1Ev, symObjAddr: 0x1CD88, symBinAddr: 0x10001EF10, symSize: 0x2C }
  - { offsetInCU: 0x6E0F4, offset: 0x6E0F4, size: 0x8, addend: 0x0, symName: __ZNSt3__113unordered_mapINS_12basic_stringIcNS_11char_traitsIcEENS_9allocatorIcEEEEbNS_4hashIS6_EENS_8equal_toIS6_EENS4_INS_4pairIKS6_bEEEEE6insertIPKSD_EEvT_SJ_, symObjAddr: 0x1CDC4, symBinAddr: 0x10001EF4C, symSize: 0x70 }
  - { offsetInCU: 0x6E143, offset: 0x6E143, size: 0x8, addend: 0x0, symName: __ZNKSt16initializer_listINSt3__14pairIKNS0_12basic_stringIcNS0_11char_traitsIcEENS0_9allocatorIcEEEEbEEE5beginB7v160006Ev, symObjAddr: 0x1CE34, symBinAddr: 0x10001EFBC, symSize: 0x18 }
  - { offsetInCU: 0x6E169, offset: 0x6E169, size: 0x8, addend: 0x0, symName: __ZNKSt16initializer_listINSt3__14pairIKNS0_12basic_stringIcNS0_11char_traitsIcEENS0_9allocatorIcEEEEbEEE3endB7v160006Ev, symObjAddr: 0x1CE4C, symBinAddr: 0x10001EFD4, symSize: 0x20 }
  - { offsetInCU: 0x6E18F, offset: 0x6E18F, size: 0x8, addend: 0x0, symName: __ZNSt3__112__hash_tableINS_17__hash_value_typeINS_12basic_stringIcNS_11char_traitsIcEENS_9allocatorIcEEEEbEENS_22__unordered_map_hasherIS7_S8_NS_4hashIS7_EENS_8equal_toIS7_EELb1EEENS_21__unordered_map_equalIS7_S8_SD_SB_Lb1EEENS5_IS8_EEED1Ev, symObjAddr: 0x1CE6C, symBinAddr: 0x10001EFF4, symSize: 0x2C }
  - { offsetInCU: 0x6E1BB, offset: 0x6E1BB, size: 0x8, addend: 0x0, symName: __ZNSt3__112__hash_tableINS_17__hash_value_typeINS_12basic_stringIcNS_11char_traitsIcEENS_9allocatorIcEEEEbEENS_22__unordered_map_hasherIS7_S8_NS_4hashIS7_EENS_8equal_toIS7_EELb1EEENS_21__unordered_map_equalIS7_S8_SD_SB_Lb1EEENS5_IS8_EEEC2Ev, symObjAddr: 0x1CE98, symBinAddr: 0x10001F020, symSize: 0x7C }
  - { offsetInCU: 0x6E1E7, offset: 0x6E1E7, size: 0x8, addend: 0x0, symName: __ZNSt3__110unique_ptrIA_PNS_16__hash_node_baseIPNS_11__hash_nodeINS_17__hash_value_typeINS_12basic_stringIcNS_11char_traitsIcEENS_9allocatorIcEEEEbEEPvEEEENS_25__bucket_list_deallocatorINS7_ISF_EEEEEC1B7v160006ILb1EvEEv, symObjAddr: 0x1CF14, symBinAddr: 0x10001F09C, symSize: 0x2C }
  - { offsetInCU: 0x6E21C, offset: 0x6E21C, size: 0x8, addend: 0x0, symName: __ZNSt3__117__compressed_pairINS_16__hash_node_baseIPNS_11__hash_nodeINS_17__hash_value_typeINS_12basic_stringIcNS_11char_traitsIcEENS_9allocatorIcEEEEbEEPvEEEENS7_ISC_EEEC1B7v160006ILb1EvEEv, symObjAddr: 0x1CF40, symBinAddr: 0x10001F0C8, symSize: 0x2C }
  - { offsetInCU: 0x6E251, offset: 0x6E251, size: 0x8, addend: 0x0, symName: __ZNSt3__117__compressed_pairImNS_22__unordered_map_hasherINS_12basic_stringIcNS_11char_traitsIcEENS_9allocatorIcEEEENS_17__hash_value_typeIS7_bEENS_4hashIS7_EENS_8equal_toIS7_EELb1EEEEC1B7v160006IiNS_18__default_init_tagEEEOT_OT0_, symObjAddr: 0x1CF6C, symBinAddr: 0x10001F0F4, symSize: 0x3C }
  - { offsetInCU: 0x6E2AF, offset: 0x6E2AF, size: 0x8, addend: 0x0, symName: __ZNSt3__117__compressed_pairIfNS_21__unordered_map_equalINS_12basic_stringIcNS_11char_traitsIcEENS_9allocatorIcEEEENS_17__hash_value_typeIS7_bEENS_8equal_toIS7_EENS_4hashIS7_EELb1EEEEC1B7v160006IfNS_18__default_init_tagEEEOT_OT0_, symObjAddr: 0x1CFA8, symBinAddr: 0x10001F130, symSize: 0x3C }
  - { offsetInCU: 0x6E307, offset: 0x6E307, size: 0x8, addend: 0x0, symName: __ZNSt3__110unique_ptrIA_PNS_16__hash_node_baseIPNS_11__hash_nodeINS_17__hash_value_typeINS_12basic_stringIcNS_11char_traitsIcEENS_9allocatorIcEEEEbEEPvEEEENS_25__bucket_list_deallocatorINS7_ISF_EEEEEC2B7v160006ILb1EvEEv, symObjAddr: 0x1CFE4, symBinAddr: 0x10001F16C, symSize: 0x3C }
  - { offsetInCU: 0x6E342, offset: 0x6E342, size: 0x8, addend: 0x0, symName: __ZNSt3__117__compressed_pairIPPNS_16__hash_node_baseIPNS_11__hash_nodeINS_17__hash_value_typeINS_12basic_stringIcNS_11char_traitsIcEENS_9allocatorIcEEEEbEEPvEEEENS_25__bucket_list_deallocatorINS7_ISF_EEEEEC1B7v160006INS_16__value_init_tagESM_EEOT_OT0_, symObjAddr: 0x1D020, symBinAddr: 0x10001F1A8, symSize: 0x3C }
  - { offsetInCU: 0x6E39A, offset: 0x6E39A, size: 0x8, addend: 0x0, symName: __ZNSt3__117__compressed_pairIPPNS_16__hash_node_baseIPNS_11__hash_nodeINS_17__hash_value_typeINS_12basic_stringIcNS_11char_traitsIcEENS_9allocatorIcEEEEbEEPvEEEENS_25__bucket_list_deallocatorINS7_ISF_EEEEEC2B7v160006INS_16__value_init_tagESM_EEOT_OT0_, symObjAddr: 0x1D05C, symBinAddr: 0x10001F1E4, symSize: 0x40 }
  - { offsetInCU: 0x6E3F2, offset: 0x6E3F2, size: 0x8, addend: 0x0, symName: __ZNSt3__122__compressed_pair_elemIPPNS_16__hash_node_baseIPNS_11__hash_nodeINS_17__hash_value_typeINS_12basic_stringIcNS_11char_traitsIcEENS_9allocatorIcEEEEbEEPvEEEELi0ELb0EEC2B7v160006ENS_16__value_init_tagE, symObjAddr: 0x1D09C, symBinAddr: 0x10001F224, symSize: 0x18 }
  - { offsetInCU: 0x6E427, offset: 0x6E427, size: 0x8, addend: 0x0, symName: __ZNSt3__122__compressed_pair_elemINS_25__bucket_list_deallocatorINS_9allocatorIPNS_16__hash_node_baseIPNS_11__hash_nodeINS_17__hash_value_typeINS_12basic_stringIcNS_11char_traitsIcEENS2_IcEEEEbEEPvEEEEEEEELi1ELb0EEC2B7v160006ENS_16__value_init_tagE, symObjAddr: 0x1D0B4, symBinAddr: 0x10001F23C, symSize: 0x2C }
  - { offsetInCU: 0x6E45C, offset: 0x6E45C, size: 0x8, addend: 0x0, symName: __ZNSt3__125__bucket_list_deallocatorINS_9allocatorIPNS_16__hash_node_baseIPNS_11__hash_nodeINS_17__hash_value_typeINS_12basic_stringIcNS_11char_traitsIcEENS1_IcEEEEbEEPvEEEEEEEC1B7v160006Ev, symObjAddr: 0x1D0E0, symBinAddr: 0x10001F268, symSize: 0x2C }
  - { offsetInCU: 0x6E486, offset: 0x6E486, size: 0x8, addend: 0x0, symName: __ZNSt3__125__bucket_list_deallocatorINS_9allocatorIPNS_16__hash_node_baseIPNS_11__hash_nodeINS_17__hash_value_typeINS_12basic_stringIcNS_11char_traitsIcEENS1_IcEEEEbEEPvEEEEEEEC2B7v160006Ev, symObjAddr: 0x1D10C, symBinAddr: 0x10001F294, symSize: 0x40 }
  - { offsetInCU: 0x6E4B0, offset: 0x6E4B0, size: 0x8, addend: 0x0, symName: __ZNSt3__117__compressed_pairImNS_9allocatorIPNS_16__hash_node_baseIPNS_11__hash_nodeINS_17__hash_value_typeINS_12basic_stringIcNS_11char_traitsIcEENS1_IcEEEEbEEPvEEEEEEEC1B7v160006IiNS_18__default_init_tagEEEOT_OT0_, symObjAddr: 0x1D14C, symBinAddr: 0x10001F2D4, symSize: 0x3C }
  - { offsetInCU: 0x6E508, offset: 0x6E508, size: 0x8, addend: 0x0, symName: __ZNSt3__117__compressed_pairImNS_9allocatorIPNS_16__hash_node_baseIPNS_11__hash_nodeINS_17__hash_value_typeINS_12basic_stringIcNS_11char_traitsIcEENS1_IcEEEEbEEPvEEEEEEEC2B7v160006IiNS_18__default_init_tagEEEOT_OT0_, symObjAddr: 0x1D188, symBinAddr: 0x10001F310, symSize: 0x40 }
  - { offsetInCU: 0x6E560, offset: 0x6E560, size: 0x8, addend: 0x0, symName: __ZNSt3__122__compressed_pair_elemImLi0ELb0EEC2B7v160006IivEEOT_, symObjAddr: 0x1D1C8, symBinAddr: 0x10001F350, symSize: 0x24 }
  - { offsetInCU: 0x6E5A2, offset: 0x6E5A2, size: 0x8, addend: 0x0, symName: __ZNSt3__122__compressed_pair_elemINS_9allocatorIPNS_16__hash_node_baseIPNS_11__hash_nodeINS_17__hash_value_typeINS_12basic_stringIcNS_11char_traitsIcEENS1_IcEEEEbEEPvEEEEEELi1ELb1EEC2B7v160006ENS_18__default_init_tagE, symObjAddr: 0x1D1EC, symBinAddr: 0x10001F374, symSize: 0x2C }
  - { offsetInCU: 0x6E5D7, offset: 0x6E5D7, size: 0x8, addend: 0x0, symName: __ZNSt3__19allocatorIPNS_16__hash_node_baseIPNS_11__hash_nodeINS_17__hash_value_typeINS_12basic_stringIcNS_11char_traitsIcEENS0_IcEEEEbEEPvEEEEEC2B7v160006Ev, symObjAddr: 0x1D218, symBinAddr: 0x10001F3A0, symSize: 0x2C }
  - { offsetInCU: 0x6E601, offset: 0x6E601, size: 0x8, addend: 0x0, symName: __ZNSt3__116__non_trivial_ifILb1ENS_9allocatorIPNS_16__hash_node_baseIPNS_11__hash_nodeINS_17__hash_value_typeINS_12basic_stringIcNS_11char_traitsIcEENS1_IcEEEEbEEPvEEEEEEEC2B7v160006Ev, symObjAddr: 0x1D244, symBinAddr: 0x10001F3CC, symSize: 0x14 }
  - { offsetInCU: 0x6E62B, offset: 0x6E62B, size: 0x8, addend: 0x0, symName: __ZNSt3__117__compressed_pairINS_16__hash_node_baseIPNS_11__hash_nodeINS_17__hash_value_typeINS_12basic_stringIcNS_11char_traitsIcEENS_9allocatorIcEEEEbEEPvEEEENS7_ISC_EEEC2B7v160006ILb1EvEEv, symObjAddr: 0x1D258, symBinAddr: 0x10001F3E0, symSize: 0x34 }
  - { offsetInCU: 0x6E660, offset: 0x6E660, size: 0x8, addend: 0x0, symName: __ZNSt3__122__compressed_pair_elemINS_16__hash_node_baseIPNS_11__hash_nodeINS_17__hash_value_typeINS_12basic_stringIcNS_11char_traitsIcEENS_9allocatorIcEEEEbEEPvEEEELi0ELb0EEC2B7v160006ENS_16__value_init_tagE, symObjAddr: 0x1D28C, symBinAddr: 0x10001F414, symSize: 0x2C }
  - { offsetInCU: 0x6E695, offset: 0x6E695, size: 0x8, addend: 0x0, symName: __ZNSt3__122__compressed_pair_elemINS_9allocatorINS_11__hash_nodeINS_17__hash_value_typeINS_12basic_stringIcNS_11char_traitsIcEENS1_IcEEEEbEEPvEEEELi1ELb1EEC2B7v160006ENS_16__value_init_tagE, symObjAddr: 0x1D2B8, symBinAddr: 0x10001F440, symSize: 0x2C }
  - { offsetInCU: 0x6E6CA, offset: 0x6E6CA, size: 0x8, addend: 0x0, symName: __ZNSt3__116__hash_node_baseIPNS_11__hash_nodeINS_17__hash_value_typeINS_12basic_stringIcNS_11char_traitsIcEENS_9allocatorIcEEEEbEEPvEEEC1B7v160006Ev, symObjAddr: 0x1D2E4, symBinAddr: 0x10001F46C, symSize: 0x2C }
  - { offsetInCU: 0x6E6F4, offset: 0x6E6F4, size: 0x8, addend: 0x0, symName: __ZNSt3__116__hash_node_baseIPNS_11__hash_nodeINS_17__hash_value_typeINS_12basic_stringIcNS_11char_traitsIcEENS_9allocatorIcEEEEbEEPvEEEC2B7v160006Ev, symObjAddr: 0x1D310, symBinAddr: 0x10001F498, symSize: 0x18 }
  - { offsetInCU: 0x6E71E, offset: 0x6E71E, size: 0x8, addend: 0x0, symName: __ZNSt3__19allocatorINS_11__hash_nodeINS_17__hash_value_typeINS_12basic_stringIcNS_11char_traitsIcEENS0_IcEEEEbEEPvEEEC2B7v160006Ev, symObjAddr: 0x1D328, symBinAddr: 0x10001F4B0, symSize: 0x2C }
  - { offsetInCU: 0x6E748, offset: 0x6E748, size: 0x8, addend: 0x0, symName: __ZNSt3__116__non_trivial_ifILb1ENS_9allocatorINS_11__hash_nodeINS_17__hash_value_typeINS_12basic_stringIcNS_11char_traitsIcEENS1_IcEEEEbEEPvEEEEEC2B7v160006Ev, symObjAddr: 0x1D354, symBinAddr: 0x10001F4DC, symSize: 0x14 }
  - { offsetInCU: 0x6E772, offset: 0x6E772, size: 0x8, addend: 0x0, symName: __ZNSt3__117__compressed_pairImNS_22__unordered_map_hasherINS_12basic_stringIcNS_11char_traitsIcEENS_9allocatorIcEEEENS_17__hash_value_typeIS7_bEENS_4hashIS7_EENS_8equal_toIS7_EELb1EEEEC2B7v160006IiNS_18__default_init_tagEEEOT_OT0_, symObjAddr: 0x1D368, symBinAddr: 0x10001F4F0, symSize: 0x40 }
  - { offsetInCU: 0x6E7CA, offset: 0x6E7CA, size: 0x8, addend: 0x0, symName: __ZNSt3__122__compressed_pair_elemINS_22__unordered_map_hasherINS_12basic_stringIcNS_11char_traitsIcEENS_9allocatorIcEEEENS_17__hash_value_typeIS7_bEENS_4hashIS7_EENS_8equal_toIS7_EELb1EEELi1ELb1EEC2B7v160006ENS_18__default_init_tagE, symObjAddr: 0x1D3A8, symBinAddr: 0x10001F530, symSize: 0x2C }
  - { offsetInCU: 0x6E7FF, offset: 0x6E7FF, size: 0x8, addend: 0x0, symName: __ZNSt3__122__unordered_map_hasherINS_12basic_stringIcNS_11char_traitsIcEENS_9allocatorIcEEEENS_17__hash_value_typeIS6_bEENS_4hashIS6_EENS_8equal_toIS6_EELb1EEC2B7v160006Ev, symObjAddr: 0x1D3D4, symBinAddr: 0x10001F55C, symSize: 0x14 }
  - { offsetInCU: 0x6E829, offset: 0x6E829, size: 0x8, addend: 0x0, symName: __ZNSt3__117__compressed_pairIfNS_21__unordered_map_equalINS_12basic_stringIcNS_11char_traitsIcEENS_9allocatorIcEEEENS_17__hash_value_typeIS7_bEENS_8equal_toIS7_EENS_4hashIS7_EELb1EEEEC2B7v160006IfNS_18__default_init_tagEEEOT_OT0_, symObjAddr: 0x1D3E8, symBinAddr: 0x10001F570, symSize: 0x40 }
  - { offsetInCU: 0x6E881, offset: 0x6E881, size: 0x8, addend: 0x0, symName: __ZNSt3__122__compressed_pair_elemIfLi0ELb0EEC2B7v160006IfvEEOT_, symObjAddr: 0x1D428, symBinAddr: 0x10001F5B0, symSize: 0x24 }
  - { offsetInCU: 0x6E8C3, offset: 0x6E8C3, size: 0x8, addend: 0x0, symName: __ZNSt3__122__compressed_pair_elemINS_21__unordered_map_equalINS_12basic_stringIcNS_11char_traitsIcEENS_9allocatorIcEEEENS_17__hash_value_typeIS7_bEENS_8equal_toIS7_EENS_4hashIS7_EELb1EEELi1ELb1EEC2B7v160006ENS_18__default_init_tagE, symObjAddr: 0x1D44C, symBinAddr: 0x10001F5D4, symSize: 0x2C }
  - { offsetInCU: 0x6E8F8, offset: 0x6E8F8, size: 0x8, addend: 0x0, symName: __ZNSt3__121__unordered_map_equalINS_12basic_stringIcNS_11char_traitsIcEENS_9allocatorIcEEEENS_17__hash_value_typeIS6_bEENS_8equal_toIS6_EENS_4hashIS6_EELb1EEC2B7v160006Ev, symObjAddr: 0x1D478, symBinAddr: 0x10001F600, symSize: 0x14 }
  - { offsetInCU: 0x6E922, offset: 0x6E922, size: 0x8, addend: 0x0, symName: __ZNSt3__112__hash_tableINS_17__hash_value_typeINS_12basic_stringIcNS_11char_traitsIcEENS_9allocatorIcEEEEbEENS_22__unordered_map_hasherIS7_S8_NS_4hashIS7_EENS_8equal_toIS7_EELb1EEENS_21__unordered_map_equalIS7_S8_SD_SB_Lb1EEENS5_IS8_EEE15__insert_uniqueB7v160006ERKNS_4pairIKS7_bEE, symObjAddr: 0x1D48C, symBinAddr: 0x10001F614, symSize: 0x50 }
  - { offsetInCU: 0x6E957, offset: 0x6E957, size: 0x8, addend: 0x0, symName: __ZNSt3__112__hash_tableINS_17__hash_value_typeINS_12basic_stringIcNS_11char_traitsIcEENS_9allocatorIcEEEEbEENS_22__unordered_map_hasherIS7_S8_NS_4hashIS7_EENS_8equal_toIS7_EELb1EEENS_21__unordered_map_equalIS7_S8_SD_SB_Lb1EEENS5_IS8_EEE25__emplace_unique_key_argsIS7_JRKNS_4pairIKS7_bEEEEENSK_INS_15__hash_iteratorIPNS_11__hash_nodeIS8_PvEEEEbEERKT_DpOT0_, symObjAddr: 0x1D4DC, symBinAddr: 0x10001F664, symSize: 0x4C0 }
  - { offsetInCU: 0x6EA36, offset: 0x6EA36, size: 0x8, addend: 0x0, symName: __ZNSt3__122__hash_key_value_typesINS_17__hash_value_typeINS_12basic_stringIcNS_11char_traitsIcEENS_9allocatorIcEEEEbEEE9__get_keyB7v160006ERKNS_4pairIKS7_bEE, symObjAddr: 0x1D99C, symBinAddr: 0x10001FB24, symSize: 0x14 }
  - { offsetInCU: 0x6EA59, offset: 0x6EA59, size: 0x8, addend: 0x0, symName: __ZNSt3__112__hash_tableINS_17__hash_value_typeINS_12basic_stringIcNS_11char_traitsIcEENS_9allocatorIcEEEEbEENS_22__unordered_map_hasherIS7_S8_NS_4hashIS7_EENS_8equal_toIS7_EELb1EEENS_21__unordered_map_equalIS7_S8_SD_SB_Lb1EEENS5_IS8_EEE13hash_functionB7v160006Ev, symObjAddr: 0x1D9B0, symBinAddr: 0x10001FB38, symSize: 0x28 }
  - { offsetInCU: 0x6EA7F, offset: 0x6EA7F, size: 0x8, addend: 0x0, symName: __ZNKSt3__122__unordered_map_hasherINS_12basic_stringIcNS_11char_traitsIcEENS_9allocatorIcEEEENS_17__hash_value_typeIS6_bEENS_4hashIS6_EENS_8equal_toIS6_EELb1EEclB7v160006ERKS6_, symObjAddr: 0x1D9D8, symBinAddr: 0x10001FB60, symSize: 0x2C }
  - { offsetInCU: 0x6EAB4, offset: 0x6EAB4, size: 0x8, addend: 0x0, symName: __ZNKSt3__112__hash_tableINS_17__hash_value_typeINS_12basic_stringIcNS_11char_traitsIcEENS_9allocatorIcEEEEbEENS_22__unordered_map_hasherIS7_S8_NS_4hashIS7_EENS_8equal_toIS7_EELb1EEENS_21__unordered_map_equalIS7_S8_SD_SB_Lb1EEENS5_IS8_EEE12bucket_countB7v160006Ev, symObjAddr: 0x1DA04, symBinAddr: 0x10001FB8C, symSize: 0x28 }
  - { offsetInCU: 0x6EADA, offset: 0x6EADA, size: 0x8, addend: 0x0, symName: __ZNKSt3__110unique_ptrIA_PNS_16__hash_node_baseIPNS_11__hash_nodeINS_17__hash_value_typeINS_12basic_stringIcNS_11char_traitsIcEENS_9allocatorIcEEEEbEEPvEEEENS_25__bucket_list_deallocatorINS7_ISF_EEEEEixB7v160006Em, symObjAddr: 0x1DAC4, symBinAddr: 0x10001FC4C, symSize: 0x34 }
  - { offsetInCU: 0x6EB0F, offset: 0x6EB0F, size: 0x8, addend: 0x0, symName: __ZNKSt3__116__hash_node_baseIPNS_11__hash_nodeINS_17__hash_value_typeINS_12basic_stringIcNS_11char_traitsIcEENS_9allocatorIcEEEEbEEPvEEE6__hashB7v160006Ev, symObjAddr: 0x1DAF8, symBinAddr: 0x10001FC80, symSize: 0x18 }
  - { offsetInCU: 0x6EB35, offset: 0x6EB35, size: 0x8, addend: 0x0, symName: __ZNSt3__112__hash_tableINS_17__hash_value_typeINS_12basic_stringIcNS_11char_traitsIcEENS_9allocatorIcEEEEbEENS_22__unordered_map_hasherIS7_S8_NS_4hashIS7_EENS_8equal_toIS7_EELb1EEENS_21__unordered_map_equalIS7_S8_SD_SB_Lb1EEENS5_IS8_EEE6key_eqB7v160006Ev, symObjAddr: 0x1DB10, symBinAddr: 0x10001FC98, symSize: 0x28 }
  - { offsetInCU: 0x6EB5B, offset: 0x6EB5B, size: 0x8, addend: 0x0, symName: __ZNKSt3__121__unordered_map_equalINS_12basic_stringIcNS_11char_traitsIcEENS_9allocatorIcEEEENS_17__hash_value_typeIS6_bEENS_8equal_toIS6_EENS_4hashIS6_EELb1EEclB7v160006ERKS8_RKS6_, symObjAddr: 0x1DB38, symBinAddr: 0x10001FCC0, symSize: 0x48 }
  - { offsetInCU: 0x6EB9F, offset: 0x6EB9F, size: 0x8, addend: 0x0, symName: __ZNSt3__116__hash_node_baseIPNS_11__hash_nodeINS_17__hash_value_typeINS_12basic_stringIcNS_11char_traitsIcEENS_9allocatorIcEEEEbEEPvEEE8__upcastB7v160006Ev, symObjAddr: 0x1DB80, symBinAddr: 0x10001FD08, symSize: 0x24 }
  - { offsetInCU: 0x6EBC5, offset: 0x6EBC5, size: 0x8, addend: 0x0, symName: __ZNSt3__112__hash_tableINS_17__hash_value_typeINS_12basic_stringIcNS_11char_traitsIcEENS_9allocatorIcEEEEbEENS_22__unordered_map_hasherIS7_S8_NS_4hashIS7_EENS_8equal_toIS7_EELb1EEENS_21__unordered_map_equalIS7_S8_SD_SB_Lb1EEENS5_IS8_EEE21__construct_node_hashIRKNS_4pairIKS7_bEEJEEENS_10unique_ptrINS_11__hash_nodeIS8_PvEENS_22__hash_node_destructorINS5_ISS_EEEEEEmOT_DpOT0_, symObjAddr: 0x1DBA4, symBinAddr: 0x10001FD2C, symSize: 0x140 }
  - { offsetInCU: 0x6EC38, offset: 0x6EC38, size: 0x8, addend: 0x0, symName: __ZNSt3__112__hash_tableINS_17__hash_value_typeINS_12basic_stringIcNS_11char_traitsIcEENS_9allocatorIcEEEEbEENS_22__unordered_map_hasherIS7_S8_NS_4hashIS7_EENS_8equal_toIS7_EELb1EEENS_21__unordered_map_equalIS7_S8_SD_SB_Lb1EEENS5_IS8_EEE4sizeB7v160006Ev, symObjAddr: 0x1DCE4, symBinAddr: 0x10001FE6C, symSize: 0x28 }
  - { offsetInCU: 0x6EC5E, offset: 0x6EC5E, size: 0x8, addend: 0x0, symName: __ZNSt3__112__hash_tableINS_17__hash_value_typeINS_12basic_stringIcNS_11char_traitsIcEENS_9allocatorIcEEEEbEENS_22__unordered_map_hasherIS7_S8_NS_4hashIS7_EENS_8equal_toIS7_EELb1EEENS_21__unordered_map_equalIS7_S8_SD_SB_Lb1EEENS5_IS8_EEE15max_load_factorB7v160006Ev, symObjAddr: 0x1DD0C, symBinAddr: 0x10001FE94, symSize: 0x28 }
  - { offsetInCU: 0x6EC84, offset: 0x6EC84, size: 0x8, addend: 0x0, symName: __ZNSt3__112__hash_tableINS_17__hash_value_typeINS_12basic_stringIcNS_11char_traitsIcEENS_9allocatorIcEEEEbEENS_22__unordered_map_hasherIS7_S8_NS_4hashIS7_EENS_8equal_toIS7_EELb1EEENS_21__unordered_map_equalIS7_S8_SD_SB_Lb1EEENS5_IS8_EEE15__rehash_uniqueB7v160006Em, symObjAddr: 0x1DD34, symBinAddr: 0x10001FEBC, symSize: 0x2C }
  - { offsetInCU: 0x6ECB9, offset: 0x6ECB9, size: 0x8, addend: 0x0, symName: __Z4ceilB7v160006f, symObjAddr: 0x1DDB0, symBinAddr: 0x10001FF38, symSize: 0x18 }
  - { offsetInCU: 0x6ECE7, offset: 0x6ECE7, size: 0x8, addend: 0x0, symName: __ZNSt3__117__compressed_pairINS_16__hash_node_baseIPNS_11__hash_nodeINS_17__hash_value_typeINS_12basic_stringIcNS_11char_traitsIcEENS_9allocatorIcEEEEbEEPvEEEENS7_ISC_EEE5firstB7v160006Ev, symObjAddr: 0x1DDC8, symBinAddr: 0x10001FF50, symSize: 0x24 }
  - { offsetInCU: 0x6ED0D, offset: 0x6ED0D, size: 0x8, addend: 0x0, symName: __ZNSt3__116__hash_node_baseIPNS_11__hash_nodeINS_17__hash_value_typeINS_12basic_stringIcNS_11char_traitsIcEENS_9allocatorIcEEEEbEEPvEEE5__ptrB7v160006Ev, symObjAddr: 0x1DDEC, symBinAddr: 0x10001FF74, symSize: 0x24 }
  - { offsetInCU: 0x6ED33, offset: 0x6ED33, size: 0x8, addend: 0x0, symName: __ZNKSt3__110unique_ptrINS_11__hash_nodeINS_17__hash_value_typeINS_12basic_stringIcNS_11char_traitsIcEENS_9allocatorIcEEEEbEEPvEENS_22__hash_node_destructorINS6_ISB_EEEEEptB7v160006Ev, symObjAddr: 0x1DE10, symBinAddr: 0x10001FF98, symSize: 0x28 }
  - { offsetInCU: 0x6ED59, offset: 0x6ED59, size: 0x8, addend: 0x0, symName: __ZNKSt3__110unique_ptrINS_11__hash_nodeINS_17__hash_value_typeINS_12basic_stringIcNS_11char_traitsIcEENS_9allocatorIcEEEEbEEPvEENS_22__hash_node_destructorINS6_ISB_EEEEE3getB7v160006Ev, symObjAddr: 0x1DE38, symBinAddr: 0x10001FFC0, symSize: 0x28 }
  - { offsetInCU: 0x6ED7F, offset: 0x6ED7F, size: 0x8, addend: 0x0, symName: __ZNSt3__110unique_ptrINS_11__hash_nodeINS_17__hash_value_typeINS_12basic_stringIcNS_11char_traitsIcEENS_9allocatorIcEEEEbEEPvEENS_22__hash_node_destructorINS6_ISB_EEEEE7releaseB7v160006Ev, symObjAddr: 0x1DE60, symBinAddr: 0x10001FFE8, symSize: 0x44 }
  - { offsetInCU: 0x6EDB4, offset: 0x6EDB4, size: 0x8, addend: 0x0, symName: __ZNSt3__110unique_ptrINS_11__hash_nodeINS_17__hash_value_typeINS_12basic_stringIcNS_11char_traitsIcEENS_9allocatorIcEEEEbEEPvEENS_22__hash_node_destructorINS6_ISB_EEEEED1B7v160006Ev, symObjAddr: 0x1DEA4, symBinAddr: 0x10002002C, symSize: 0x2C }
  - { offsetInCU: 0x6EDDE, offset: 0x6EDDE, size: 0x8, addend: 0x0, symName: __ZNSt3__115__hash_iteratorIPNS_11__hash_nodeINS_17__hash_value_typeINS_12basic_stringIcNS_11char_traitsIcEENS_9allocatorIcEEEEbEEPvEEEC1B7v160006EPNS_16__hash_node_baseISC_EEPKv, symObjAddr: 0x1DED0, symBinAddr: 0x100020058, symSize: 0x3C }
  - { offsetInCU: 0x6EE32, offset: 0x6EE32, size: 0x8, addend: 0x0, symName: __ZNSt3__14pairINS_15__hash_iteratorIPNS_11__hash_nodeINS_17__hash_value_typeINS_12basic_stringIcNS_11char_traitsIcEENS_9allocatorIcEEEEbEEPvEEEEbEC1B7v160006ISE_RbLSB_0EEEOT_OT0_, symObjAddr: 0x1DF0C, symBinAddr: 0x100020094, symSize: 0x3C }
  - { offsetInCU: 0x6EE90, offset: 0x6EE90, size: 0x8, addend: 0x0, symName: __ZNSt3__117__compressed_pairImNS_22__unordered_map_hasherINS_12basic_stringIcNS_11char_traitsIcEENS_9allocatorIcEEEENS_17__hash_value_typeIS7_bEENS_4hashIS7_EENS_8equal_toIS7_EELb1EEEE6secondB7v160006Ev, symObjAddr: 0x1DF48, symBinAddr: 0x1000200D0, symSize: 0x24 }
  - { offsetInCU: 0x6EEB6, offset: 0x6EEB6, size: 0x8, addend: 0x0, symName: __ZNSt3__122__compressed_pair_elemINS_22__unordered_map_hasherINS_12basic_stringIcNS_11char_traitsIcEENS_9allocatorIcEEEENS_17__hash_value_typeIS7_bEENS_4hashIS7_EENS_8equal_toIS7_EELb1EEELi1ELb1EE5__getB7v160006Ev, symObjAddr: 0x1DF6C, symBinAddr: 0x1000200F4, symSize: 0x14 }
  - { offsetInCU: 0x6EEDC, offset: 0x6EEDC, size: 0x8, addend: 0x0, symName: __ZNKSt3__113__string_hashIcNS_9allocatorIcEEEclERKNS_12basic_stringIcNS_11char_traitsIcEES2_EE, symObjAddr: 0x1DF80, symBinAddr: 0x100020108, symSize: 0x64 }
  - { offsetInCU: 0x6EF11, offset: 0x6EF11, size: 0x8, addend: 0x0, symName: __ZNSt3__121__murmur2_or_cityhashImLm64EEclEPKvm, symObjAddr: 0x1E020, symBinAddr: 0x1000201A8, symSize: 0x410 }
  - { offsetInCU: 0x6EFAC, offset: 0x6EFAC, size: 0x8, addend: 0x0, symName: __ZNSt3__121__murmur2_or_cityhashImLm64EE18__hash_len_0_to_16EPKcm, symObjAddr: 0x1E430, symBinAddr: 0x1000205B8, symSize: 0x1C0 }
  - { offsetInCU: 0x6F085, offset: 0x6F085, size: 0x8, addend: 0x0, symName: __ZNSt3__121__murmur2_or_cityhashImLm64EE19__hash_len_17_to_32EPKcm, symObjAddr: 0x1E5F0, symBinAddr: 0x100020778, symSize: 0x130 }
  - { offsetInCU: 0x6F0EE, offset: 0x6F0EE, size: 0x8, addend: 0x0, symName: __ZNSt3__121__murmur2_or_cityhashImLm64EE19__hash_len_33_to_64EPKcm, symObjAddr: 0x1E720, symBinAddr: 0x1000208A8, symSize: 0x2B8 }
  - { offsetInCU: 0x6F1A0, offset: 0x6F1A0, size: 0x8, addend: 0x0, symName: __ZNSt3__121__murmur2_or_cityhashImLm64EE13__hash_len_16Emm, symObjAddr: 0x1E9F8, symBinAddr: 0x100020B80, symSize: 0x80 }
  - { offsetInCU: 0x6F1FB, offset: 0x6F1FB, size: 0x8, addend: 0x0, symName: __ZNSt3__121__murmur2_or_cityhashImLm64EE29__weak_hash_len_32_with_seedsEPKcmm, symObjAddr: 0x1EA78, symBinAddr: 0x100020C00, symSize: 0x88 }
  - { offsetInCU: 0x6F23A, offset: 0x6F23A, size: 0x8, addend: 0x0, symName: __ZNSt3__121__murmur2_or_cityhashImLm64EE8__rotateEmi, symObjAddr: 0x1EB00, symBinAddr: 0x100020C88, symSize: 0x64 }
  - { offsetInCU: 0x6F26B, offset: 0x6F26B, size: 0x8, addend: 0x0, symName: __ZNSt3__14pairImmEaSB7v160006EOS1_, symObjAddr: 0x1EB64, symBinAddr: 0x100020CEC, symSize: 0x30 }
  - { offsetInCU: 0x6F2A0, offset: 0x6F2A0, size: 0x8, addend: 0x0, symName: __ZNSt3__121__murmur2_or_cityhashImLm64EE11__shift_mixEm, symObjAddr: 0x1EBD0, symBinAddr: 0x100020D58, symSize: 0x1C }
  - { offsetInCU: 0x6F2C3, offset: 0x6F2C3, size: 0x8, addend: 0x0, symName: __ZNSt3__121__murmur2_or_cityhashImLm64EE22__rotate_by_at_least_1Emi, symObjAddr: 0x1EBEC, symBinAddr: 0x100020D74, symSize: 0x38 }
  - { offsetInCU: 0x6F2F4, offset: 0x6F2F4, size: 0x8, addend: 0x0, symName: __ZNSt3__121__murmur2_or_cityhashImLm64EE29__weak_hash_len_32_with_seedsEmmmmmm, symObjAddr: 0x1EC44, symBinAddr: 0x100020DCC, symSize: 0xD8 }
  - { offsetInCU: 0x6F371, offset: 0x6F371, size: 0x8, addend: 0x0, symName: __ZNSt3__14pairImmEC1B7v160006ImmLPv0EEEOT_OT0_, symObjAddr: 0x1ED1C, symBinAddr: 0x100020EA4, symSize: 0x3C }
  - { offsetInCU: 0x6F3CF, offset: 0x6F3CF, size: 0x8, addend: 0x0, symName: __ZNSt3__14pairImmEC2B7v160006ImmLPv0EEEOT_OT0_, symObjAddr: 0x1ED58, symBinAddr: 0x100020EE0, symSize: 0x34 }
  - { offsetInCU: 0x6F42D, offset: 0x6F42D, size: 0x8, addend: 0x0, symName: __ZNKSt3__110unique_ptrIA_PNS_16__hash_node_baseIPNS_11__hash_nodeINS_17__hash_value_typeINS_12basic_stringIcNS_11char_traitsIcEENS_9allocatorIcEEEEbEEPvEEEENS_25__bucket_list_deallocatorINS7_ISF_EEEEE11get_deleterB7v160006Ev, symObjAddr: 0x1ED8C, symBinAddr: 0x100020F14, symSize: 0x24 }
  - { offsetInCU: 0x6F453, offset: 0x6F453, size: 0x8, addend: 0x0, symName: __ZNKSt3__125__bucket_list_deallocatorINS_9allocatorIPNS_16__hash_node_baseIPNS_11__hash_nodeINS_17__hash_value_typeINS_12basic_stringIcNS_11char_traitsIcEENS1_IcEEEEbEEPvEEEEEEE4sizeB7v160006Ev, symObjAddr: 0x1EDB0, symBinAddr: 0x100020F38, symSize: 0x28 }
  - { offsetInCU: 0x6F479, offset: 0x6F479, size: 0x8, addend: 0x0, symName: __ZNKSt3__117__compressed_pairIPPNS_16__hash_node_baseIPNS_11__hash_nodeINS_17__hash_value_typeINS_12basic_stringIcNS_11char_traitsIcEENS_9allocatorIcEEEEbEEPvEEEENS_25__bucket_list_deallocatorINS7_ISF_EEEEE6secondB7v160006Ev, symObjAddr: 0x1EDD8, symBinAddr: 0x100020F60, symSize: 0x28 }
  - { offsetInCU: 0x6F49F, offset: 0x6F49F, size: 0x8, addend: 0x0, symName: __ZNKSt3__122__compressed_pair_elemINS_25__bucket_list_deallocatorINS_9allocatorIPNS_16__hash_node_baseIPNS_11__hash_nodeINS_17__hash_value_typeINS_12basic_stringIcNS_11char_traitsIcEENS2_IcEEEEbEEPvEEEEEEEELi1ELb0EE5__getB7v160006Ev, symObjAddr: 0x1EE00, symBinAddr: 0x100020F88, symSize: 0x14 }
  - { offsetInCU: 0x6F4C5, offset: 0x6F4C5, size: 0x8, addend: 0x0, symName: __ZNKSt3__117__compressed_pairImNS_9allocatorIPNS_16__hash_node_baseIPNS_11__hash_nodeINS_17__hash_value_typeINS_12basic_stringIcNS_11char_traitsIcEENS1_IcEEEEbEEPvEEEEEEE5firstB7v160006Ev, symObjAddr: 0x1EE14, symBinAddr: 0x100020F9C, symSize: 0x24 }
  - { offsetInCU: 0x6F4EB, offset: 0x6F4EB, size: 0x8, addend: 0x0, symName: __ZNKSt3__122__compressed_pair_elemImLi0ELb0EE5__getB7v160006Ev, symObjAddr: 0x1EE38, symBinAddr: 0x100020FC0, symSize: 0x14 }
  - { offsetInCU: 0x6F511, offset: 0x6F511, size: 0x8, addend: 0x0, symName: __ZNKSt3__117__compressed_pairIPPNS_16__hash_node_baseIPNS_11__hash_nodeINS_17__hash_value_typeINS_12basic_stringIcNS_11char_traitsIcEENS_9allocatorIcEEEEbEEPvEEEENS_25__bucket_list_deallocatorINS7_ISF_EEEEE5firstB7v160006Ev, symObjAddr: 0x1EE4C, symBinAddr: 0x100020FD4, symSize: 0x24 }
  - { offsetInCU: 0x6F537, offset: 0x6F537, size: 0x8, addend: 0x0, symName: __ZNKSt3__122__compressed_pair_elemIPPNS_16__hash_node_baseIPNS_11__hash_nodeINS_17__hash_value_typeINS_12basic_stringIcNS_11char_traitsIcEENS_9allocatorIcEEEEbEEPvEEEELi0ELb0EE5__getB7v160006Ev, symObjAddr: 0x1EE70, symBinAddr: 0x100020FF8, symSize: 0x14 }
  - { offsetInCU: 0x6F55D, offset: 0x6F55D, size: 0x8, addend: 0x0, symName: __ZNSt3__117__compressed_pairIfNS_21__unordered_map_equalINS_12basic_stringIcNS_11char_traitsIcEENS_9allocatorIcEEEENS_17__hash_value_typeIS7_bEENS_8equal_toIS7_EENS_4hashIS7_EELb1EEEE6secondB7v160006Ev, symObjAddr: 0x1EE84, symBinAddr: 0x10002100C, symSize: 0x24 }
  - { offsetInCU: 0x6F583, offset: 0x6F583, size: 0x8, addend: 0x0, symName: __ZNSt3__122__compressed_pair_elemINS_21__unordered_map_equalINS_12basic_stringIcNS_11char_traitsIcEENS_9allocatorIcEEEENS_17__hash_value_typeIS7_bEENS_8equal_toIS7_EENS_4hashIS7_EELb1EEELi1ELb1EE5__getB7v160006Ev, symObjAddr: 0x1EEA8, symBinAddr: 0x100021030, symSize: 0x14 }
  - { offsetInCU: 0x6F5A9, offset: 0x6F5A9, size: 0x8, addend: 0x0, symName: __ZNKSt3__18equal_toINS_12basic_stringIcNS_11char_traitsIcEENS_9allocatorIcEEEEEclB7v160006ERKS6_S9_, symObjAddr: 0x1EEBC, symBinAddr: 0x100021044, symSize: 0x34 }
  - { offsetInCU: 0x6F5ED, offset: 0x6F5ED, size: 0x8, addend: 0x0, symName: __ZNKSt3__117__hash_value_typeINS_12basic_stringIcNS_11char_traitsIcEENS_9allocatorIcEEEEbE11__get_valueB7v160006Ev, symObjAddr: 0x1EEF0, symBinAddr: 0x100021078, symSize: 0x24 }
  - { offsetInCU: 0x6F613, offset: 0x6F613, size: 0x8, addend: 0x0, symName: __ZNSt3__114pointer_traitsIPNS_16__hash_node_baseIPNS_11__hash_nodeINS_17__hash_value_typeINS_12basic_stringIcNS_11char_traitsIcEENS_9allocatorIcEEEEbEEPvEEEEE10pointer_toB7v160006ERSE_, symObjAddr: 0x1EF4C, symBinAddr: 0x1000210D4, symSize: 0x14 }
  - { offsetInCU: 0x6F636, offset: 0x6F636, size: 0x8, addend: 0x0, symName: __ZNSt3__112__hash_tableINS_17__hash_value_typeINS_12basic_stringIcNS_11char_traitsIcEENS_9allocatorIcEEEEbEENS_22__unordered_map_hasherIS7_S8_NS_4hashIS7_EENS_8equal_toIS7_EELb1EEENS_21__unordered_map_equalIS7_S8_SD_SB_Lb1EEENS5_IS8_EEE12__node_allocB7v160006Ev, symObjAddr: 0x1EF60, symBinAddr: 0x1000210E8, symSize: 0x28 }
  - { offsetInCU: 0x6F65C, offset: 0x6F65C, size: 0x8, addend: 0x0, symName: __ZNSt3__116allocator_traitsINS_9allocatorINS_11__hash_nodeINS_17__hash_value_typeINS_12basic_stringIcNS_11char_traitsIcEENS1_IcEEEEbEEPvEEEEE8allocateB7v160006ERSC_m, symObjAddr: 0x1EF88, symBinAddr: 0x100021110, symSize: 0x2C }
  - { offsetInCU: 0x6F68F, offset: 0x6F68F, size: 0x8, addend: 0x0, symName: __ZNSt3__122__hash_node_destructorINS_9allocatorINS_11__hash_nodeINS_17__hash_value_typeINS_12basic_stringIcNS_11char_traitsIcEENS1_IcEEEEbEEPvEEEEEC1B7v160006ERSC_b, symObjAddr: 0x1EFB4, symBinAddr: 0x10002113C, symSize: 0x48 }
  - { offsetInCU: 0x6F6DD, offset: 0x6F6DD, size: 0x8, addend: 0x0, symName: __ZNSt3__110unique_ptrINS_11__hash_nodeINS_17__hash_value_typeINS_12basic_stringIcNS_11char_traitsIcEENS_9allocatorIcEEEEbEEPvEENS_22__hash_node_destructorINS6_ISB_EEEEEC1B7v160006ILb1EvEEPSB_NS_16__dependent_typeINS_27__unique_ptr_deleter_sfinaeISE_EEXT_EE20__good_rval_ref_typeE, symObjAddr: 0x1EFFC, symBinAddr: 0x100021184, symSize: 0x3C }
  - { offsetInCU: 0x6F72E, offset: 0x6F72E, size: 0x8, addend: 0x0, symName: __ZNSt3__116allocator_traitsINS_9allocatorINS_11__hash_nodeINS_17__hash_value_typeINS_12basic_stringIcNS_11char_traitsIcEENS1_IcEEEEbEEPvEEEEE9constructB7v160006INS_4pairIKS8_bEEJRKSH_EvvEEvRSC_PT_DpOT0_, symObjAddr: 0x1F038, symBinAddr: 0x1000211C0, symSize: 0x30 }
  - { offsetInCU: 0x6F783, offset: 0x6F783, size: 0x8, addend: 0x0, symName: __ZNSt3__122__hash_key_value_typesINS_17__hash_value_typeINS_12basic_stringIcNS_11char_traitsIcEENS_9allocatorIcEEEEbEEE9__get_ptrB7v160006ERS8_, symObjAddr: 0x1F068, symBinAddr: 0x1000211F0, symSize: 0x24 }
  - { offsetInCU: 0x6F7A6, offset: 0x6F7A6, size: 0x8, addend: 0x0, symName: __ZNSt3__110unique_ptrINS_11__hash_nodeINS_17__hash_value_typeINS_12basic_stringIcNS_11char_traitsIcEENS_9allocatorIcEEEEbEEPvEENS_22__hash_node_destructorINS6_ISB_EEEEE11get_deleterB7v160006Ev, symObjAddr: 0x1F08C, symBinAddr: 0x100021214, symSize: 0x24 }
  - { offsetInCU: 0x6F7CC, offset: 0x6F7CC, size: 0x8, addend: 0x0, symName: __ZNSt3__117__compressed_pairINS_16__hash_node_baseIPNS_11__hash_nodeINS_17__hash_value_typeINS_12basic_stringIcNS_11char_traitsIcEENS_9allocatorIcEEEEbEEPvEEEENS7_ISC_EEE6secondB7v160006Ev, symObjAddr: 0x1F0B0, symBinAddr: 0x100021238, symSize: 0x24 }
  - { offsetInCU: 0x6F7F2, offset: 0x6F7F2, size: 0x8, addend: 0x0, symName: __ZNSt3__122__compressed_pair_elemINS_9allocatorINS_11__hash_nodeINS_17__hash_value_typeINS_12basic_stringIcNS_11char_traitsIcEENS1_IcEEEEbEEPvEEEELi1ELb1EE5__getB7v160006Ev, symObjAddr: 0x1F0D4, symBinAddr: 0x10002125C, symSize: 0x14 }
  - { offsetInCU: 0x6F818, offset: 0x6F818, size: 0x8, addend: 0x0, symName: __ZNSt3__19allocatorINS_11__hash_nodeINS_17__hash_value_typeINS_12basic_stringIcNS_11char_traitsIcEENS0_IcEEEEbEEPvEEE8allocateB7v160006Em, symObjAddr: 0x1F0E8, symBinAddr: 0x100021270, symSize: 0x5C }
  - { offsetInCU: 0x6F857, offset: 0x6F857, size: 0x8, addend: 0x0, symName: __ZNSt3__116allocator_traitsINS_9allocatorINS_11__hash_nodeINS_17__hash_value_typeINS_12basic_stringIcNS_11char_traitsIcEENS1_IcEEEEbEEPvEEEEE8max_sizeB7v160006ISC_vvEEmRKSC_, symObjAddr: 0x1F144, symBinAddr: 0x1000212CC, symSize: 0x28 }
  - { offsetInCU: 0x6F883, offset: 0x6F883, size: 0x8, addend: 0x0, symName: __ZNSt3__122__hash_node_destructorINS_9allocatorINS_11__hash_nodeINS_17__hash_value_typeINS_12basic_stringIcNS_11char_traitsIcEENS1_IcEEEEbEEPvEEEEEC2B7v160006ERSC_b, symObjAddr: 0x1F16C, symBinAddr: 0x1000212F4, symSize: 0x38 }
  - { offsetInCU: 0x6F8CB, offset: 0x6F8CB, size: 0x8, addend: 0x0, symName: __ZNSt3__110unique_ptrINS_11__hash_nodeINS_17__hash_value_typeINS_12basic_stringIcNS_11char_traitsIcEENS_9allocatorIcEEEEbEEPvEENS_22__hash_node_destructorINS6_ISB_EEEEEC2B7v160006ILb1EvEEPSB_NS_16__dependent_typeINS_27__unique_ptr_deleter_sfinaeISE_EEXT_EE20__good_rval_ref_typeE, symObjAddr: 0x1F1A4, symBinAddr: 0x10002132C, symSize: 0x48 }
  - { offsetInCU: 0x6F91C, offset: 0x6F91C, size: 0x8, addend: 0x0, symName: __ZNSt3__117__compressed_pairIPNS_11__hash_nodeINS_17__hash_value_typeINS_12basic_stringIcNS_11char_traitsIcEENS_9allocatorIcEEEEbEEPvEENS_22__hash_node_destructorINS6_ISB_EEEEEC1B7v160006IRSC_SF_EEOT_OT0_, symObjAddr: 0x1F1EC, symBinAddr: 0x100021374, symSize: 0x3C }
  - { offsetInCU: 0x6F974, offset: 0x6F974, size: 0x8, addend: 0x0, symName: __ZNSt3__117__compressed_pairIPNS_11__hash_nodeINS_17__hash_value_typeINS_12basic_stringIcNS_11char_traitsIcEENS_9allocatorIcEEEEbEEPvEENS_22__hash_node_destructorINS6_ISB_EEEEEC2B7v160006IRSC_SF_EEOT_OT0_, symObjAddr: 0x1F228, symBinAddr: 0x1000213B0, symSize: 0x48 }
  - { offsetInCU: 0x6F9CC, offset: 0x6F9CC, size: 0x8, addend: 0x0, symName: __ZNSt3__122__compressed_pair_elemIPNS_11__hash_nodeINS_17__hash_value_typeINS_12basic_stringIcNS_11char_traitsIcEENS_9allocatorIcEEEEbEEPvEELi0ELb0EEC2B7v160006IRSC_vEEOT_, symObjAddr: 0x1F270, symBinAddr: 0x1000213F8, symSize: 0x24 }
  - { offsetInCU: 0x6FA0E, offset: 0x6FA0E, size: 0x8, addend: 0x0, symName: __ZNSt3__122__compressed_pair_elemINS_22__hash_node_destructorINS_9allocatorINS_11__hash_nodeINS_17__hash_value_typeINS_12basic_stringIcNS_11char_traitsIcEENS2_IcEEEEbEEPvEEEEEELi1ELb0EEC2B7v160006ISE_vEEOT_, symObjAddr: 0x1F294, symBinAddr: 0x10002141C, symSize: 0x24 }
  - { offsetInCU: 0x6FA50, offset: 0x6FA50, size: 0x8, addend: 0x0, symName: __ZNSt3__14pairIKNS_12basic_stringIcNS_11char_traitsIcEENS_9allocatorIcEEEEbEC1ERKS8_, symObjAddr: 0x1F2F4, symBinAddr: 0x10002147C, symSize: 0x34 }
  - { offsetInCU: 0x6FA85, offset: 0x6FA85, size: 0x8, addend: 0x0, symName: __ZNSt3__14pairIKNS_12basic_stringIcNS_11char_traitsIcEENS_9allocatorIcEEEEbEC2ERKS8_, symObjAddr: 0x1F328, symBinAddr: 0x1000214B0, symSize: 0x44 }
  - { offsetInCU: 0x6FABA, offset: 0x6FABA, size: 0x8, addend: 0x0, symName: __ZNSt3__117__hash_value_typeINS_12basic_stringIcNS_11char_traitsIcEENS_9allocatorIcEEEEbE11__get_valueB7v160006Ev, symObjAddr: 0x1F36C, symBinAddr: 0x1000214F4, symSize: 0x24 }
  - { offsetInCU: 0x6FAE0, offset: 0x6FAE0, size: 0x8, addend: 0x0, symName: __ZNSt3__117__compressed_pairIPNS_11__hash_nodeINS_17__hash_value_typeINS_12basic_stringIcNS_11char_traitsIcEENS_9allocatorIcEEEEbEEPvEENS_22__hash_node_destructorINS6_ISB_EEEEE6secondB7v160006Ev, symObjAddr: 0x1F3C8, symBinAddr: 0x100021550, symSize: 0x28 }
  - { offsetInCU: 0x6FB06, offset: 0x6FB06, size: 0x8, addend: 0x0, symName: __ZNSt3__122__compressed_pair_elemINS_22__hash_node_destructorINS_9allocatorINS_11__hash_nodeINS_17__hash_value_typeINS_12basic_stringIcNS_11char_traitsIcEENS2_IcEEEEbEEPvEEEEEELi1ELb0EE5__getB7v160006Ev, symObjAddr: 0x1F3F0, symBinAddr: 0x100021578, symSize: 0x14 }
  - { offsetInCU: 0x6FB2C, offset: 0x6FB2C, size: 0x8, addend: 0x0, symName: __ZNSt3__117__compressed_pairImNS_22__unordered_map_hasherINS_12basic_stringIcNS_11char_traitsIcEENS_9allocatorIcEEEENS_17__hash_value_typeIS7_bEENS_4hashIS7_EENS_8equal_toIS7_EELb1EEEE5firstB7v160006Ev, symObjAddr: 0x1F404, symBinAddr: 0x10002158C, symSize: 0x24 }
  - { offsetInCU: 0x6FB52, offset: 0x6FB52, size: 0x8, addend: 0x0, symName: __ZNSt3__122__compressed_pair_elemImLi0ELb0EE5__getB7v160006Ev, symObjAddr: 0x1F428, symBinAddr: 0x1000215B0, symSize: 0x14 }
  - { offsetInCU: 0x6FB78, offset: 0x6FB78, size: 0x8, addend: 0x0, symName: __ZNSt3__117__compressed_pairIfNS_21__unordered_map_equalINS_12basic_stringIcNS_11char_traitsIcEENS_9allocatorIcEEEENS_17__hash_value_typeIS7_bEENS_8equal_toIS7_EENS_4hashIS7_EELb1EEEE5firstB7v160006Ev, symObjAddr: 0x1F43C, symBinAddr: 0x1000215C4, symSize: 0x24 }
  - { offsetInCU: 0x6FB9E, offset: 0x6FB9E, size: 0x8, addend: 0x0, symName: __ZNSt3__122__compressed_pair_elemIfLi0ELb0EE5__getB7v160006Ev, symObjAddr: 0x1F460, symBinAddr: 0x1000215E8, symSize: 0x14 }
  - { offsetInCU: 0x6FBC4, offset: 0x6FBC4, size: 0x8, addend: 0x0, symName: __ZNSt3__112__hash_tableINS_17__hash_value_typeINS_12basic_stringIcNS_11char_traitsIcEENS_9allocatorIcEEEEbEENS_22__unordered_map_hasherIS7_S8_NS_4hashIS7_EENS_8equal_toIS7_EELb1EEENS_21__unordered_map_equalIS7_S8_SD_SB_Lb1EEENS5_IS8_EEE8__rehashILb1EEEvm, symObjAddr: 0x1F474, symBinAddr: 0x1000215FC, symSize: 0x1A8 }
  - { offsetInCU: 0x6FC14, offset: 0x6FC14, size: 0x8, addend: 0x0, symName: __ZNSt3__112__hash_tableINS_17__hash_value_typeINS_12basic_stringIcNS_11char_traitsIcEENS_9allocatorIcEEEEbEENS_22__unordered_map_hasherIS7_S8_NS_4hashIS7_EENS_8equal_toIS7_EELb1EEENS_21__unordered_map_equalIS7_S8_SD_SB_Lb1EEENS5_IS8_EEE11__do_rehashILb1EEEvm, symObjAddr: 0x1F61C, symBinAddr: 0x1000217A4, symSize: 0x290 }
  - { offsetInCU: 0x6FCF7, offset: 0x6FCF7, size: 0x8, addend: 0x0, symName: __ZNSt3__110unique_ptrIA_PNS_16__hash_node_baseIPNS_11__hash_nodeINS_17__hash_value_typeINS_12basic_stringIcNS_11char_traitsIcEENS_9allocatorIcEEEEbEEPvEEEENS_25__bucket_list_deallocatorINS7_ISF_EEEEE11get_deleterB7v160006Ev, symObjAddr: 0x1F928, symBinAddr: 0x100021AB0, symSize: 0x24 }
  - { offsetInCU: 0x6FD1D, offset: 0x6FD1D, size: 0x8, addend: 0x0, symName: __ZNSt3__125__bucket_list_deallocatorINS_9allocatorIPNS_16__hash_node_baseIPNS_11__hash_nodeINS_17__hash_value_typeINS_12basic_stringIcNS_11char_traitsIcEENS1_IcEEEEbEEPvEEEEEEE7__allocB7v160006Ev, symObjAddr: 0x1F94C, symBinAddr: 0x100021AD4, symSize: 0x24 }
  - { offsetInCU: 0x6FD43, offset: 0x6FD43, size: 0x8, addend: 0x0, symName: __ZNSt3__110unique_ptrIA_PNS_16__hash_node_baseIPNS_11__hash_nodeINS_17__hash_value_typeINS_12basic_stringIcNS_11char_traitsIcEENS_9allocatorIcEEEEbEEPvEEEENS_25__bucket_list_deallocatorINS7_ISF_EEEEE5resetB7v160006IPSF_EENS_9enable_ifIXsr28_CheckArrayPointerConversionIT_EE5valueEvE4typeESO_, symObjAddr: 0x1F970, symBinAddr: 0x100021AF8, symSize: 0x78 }
  - { offsetInCU: 0x6FD90, offset: 0x6FD90, size: 0x8, addend: 0x0, symName: __ZNSt3__116allocator_traitsINS_9allocatorIPNS_16__hash_node_baseIPNS_11__hash_nodeINS_17__hash_value_typeINS_12basic_stringIcNS_11char_traitsIcEENS1_IcEEEEbEEPvEEEEEEE8allocateB7v160006ERSG_m, symObjAddr: 0x1F9E8, symBinAddr: 0x100021B70, symSize: 0x2C }
  - { offsetInCU: 0x6FDC3, offset: 0x6FDC3, size: 0x8, addend: 0x0, symName: __ZNSt3__125__bucket_list_deallocatorINS_9allocatorIPNS_16__hash_node_baseIPNS_11__hash_nodeINS_17__hash_value_typeINS_12basic_stringIcNS_11char_traitsIcEENS1_IcEEEEbEEPvEEEEEEE4sizeB7v160006Ev, symObjAddr: 0x1FA14, symBinAddr: 0x100021B9C, symSize: 0x24 }
  - { offsetInCU: 0x6FDE9, offset: 0x6FDE9, size: 0x8, addend: 0x0, symName: __ZNSt3__117__compressed_pairIPPNS_16__hash_node_baseIPNS_11__hash_nodeINS_17__hash_value_typeINS_12basic_stringIcNS_11char_traitsIcEENS_9allocatorIcEEEEbEEPvEEEENS_25__bucket_list_deallocatorINS7_ISF_EEEEE6secondB7v160006Ev, symObjAddr: 0x1FA38, symBinAddr: 0x100021BC0, symSize: 0x28 }
  - { offsetInCU: 0x6FE0F, offset: 0x6FE0F, size: 0x8, addend: 0x0, symName: __ZNSt3__122__compressed_pair_elemINS_25__bucket_list_deallocatorINS_9allocatorIPNS_16__hash_node_baseIPNS_11__hash_nodeINS_17__hash_value_typeINS_12basic_stringIcNS_11char_traitsIcEENS2_IcEEEEbEEPvEEEEEEEELi1ELb0EE5__getB7v160006Ev, symObjAddr: 0x1FA60, symBinAddr: 0x100021BE8, symSize: 0x14 }
  - { offsetInCU: 0x6FE35, offset: 0x6FE35, size: 0x8, addend: 0x0, symName: __ZNSt3__117__compressed_pairImNS_9allocatorIPNS_16__hash_node_baseIPNS_11__hash_nodeINS_17__hash_value_typeINS_12basic_stringIcNS_11char_traitsIcEENS1_IcEEEEbEEPvEEEEEEE6secondB7v160006Ev, symObjAddr: 0x1FA74, symBinAddr: 0x100021BFC, symSize: 0x24 }
  - { offsetInCU: 0x6FE5B, offset: 0x6FE5B, size: 0x8, addend: 0x0, symName: __ZNSt3__122__compressed_pair_elemINS_9allocatorIPNS_16__hash_node_baseIPNS_11__hash_nodeINS_17__hash_value_typeINS_12basic_stringIcNS_11char_traitsIcEENS1_IcEEEEbEEPvEEEEEELi1ELb1EE5__getB7v160006Ev, symObjAddr: 0x1FA98, symBinAddr: 0x100021C20, symSize: 0x14 }
  - { offsetInCU: 0x6FE81, offset: 0x6FE81, size: 0x8, addend: 0x0, symName: __ZNSt3__117__compressed_pairIPPNS_16__hash_node_baseIPNS_11__hash_nodeINS_17__hash_value_typeINS_12basic_stringIcNS_11char_traitsIcEENS_9allocatorIcEEEEbEEPvEEEENS_25__bucket_list_deallocatorINS7_ISF_EEEEE5firstB7v160006Ev, symObjAddr: 0x1FAAC, symBinAddr: 0x100021C34, symSize: 0x24 }
  - { offsetInCU: 0x6FEA7, offset: 0x6FEA7, size: 0x8, addend: 0x0, symName: __ZNSt3__125__bucket_list_deallocatorINS_9allocatorIPNS_16__hash_node_baseIPNS_11__hash_nodeINS_17__hash_value_typeINS_12basic_stringIcNS_11char_traitsIcEENS1_IcEEEEbEEPvEEEEEEEclB7v160006EPSF_, symObjAddr: 0x1FAD0, symBinAddr: 0x100021C58, symSize: 0x58 }
  - { offsetInCU: 0x6FEDC, offset: 0x6FEDC, size: 0x8, addend: 0x0, symName: __ZNSt3__122__compressed_pair_elemIPPNS_16__hash_node_baseIPNS_11__hash_nodeINS_17__hash_value_typeINS_12basic_stringIcNS_11char_traitsIcEENS_9allocatorIcEEEEbEEPvEEEELi0ELb0EE5__getB7v160006Ev, symObjAddr: 0x1FB28, symBinAddr: 0x100021CB0, symSize: 0x14 }
  - { offsetInCU: 0x6FF02, offset: 0x6FF02, size: 0x8, addend: 0x0, symName: __ZNSt3__116allocator_traitsINS_9allocatorIPNS_16__hash_node_baseIPNS_11__hash_nodeINS_17__hash_value_typeINS_12basic_stringIcNS_11char_traitsIcEENS1_IcEEEEbEEPvEEEEEEE10deallocateB7v160006ERSG_PSF_m, symObjAddr: 0x1FB3C, symBinAddr: 0x100021CC4, symSize: 0x34 }
  - { offsetInCU: 0x6FF44, offset: 0x6FF44, size: 0x8, addend: 0x0, symName: __ZNSt3__19allocatorIPNS_16__hash_node_baseIPNS_11__hash_nodeINS_17__hash_value_typeINS_12basic_stringIcNS_11char_traitsIcEENS0_IcEEEEbEEPvEEEEE10deallocateB7v160006EPSE_m, symObjAddr: 0x1FB70, symBinAddr: 0x100021CF8, symSize: 0x40 }
  - { offsetInCU: 0x6FF86, offset: 0x6FF86, size: 0x8, addend: 0x0, symName: __ZNSt3__19allocatorIPNS_16__hash_node_baseIPNS_11__hash_nodeINS_17__hash_value_typeINS_12basic_stringIcNS_11char_traitsIcEENS0_IcEEEEbEEPvEEEEE8allocateB7v160006Em, symObjAddr: 0x1FBB0, symBinAddr: 0x100021D38, symSize: 0x58 }
  - { offsetInCU: 0x6FFC5, offset: 0x6FFC5, size: 0x8, addend: 0x0, symName: __ZNSt3__116allocator_traitsINS_9allocatorIPNS_16__hash_node_baseIPNS_11__hash_nodeINS_17__hash_value_typeINS_12basic_stringIcNS_11char_traitsIcEENS1_IcEEEEbEEPvEEEEEEE8max_sizeB7v160006ISG_vvEEmRKSG_, symObjAddr: 0x1FC08, symBinAddr: 0x100021D90, symSize: 0x28 }
  - { offsetInCU: 0x6FFF1, offset: 0x6FFF1, size: 0x8, addend: 0x0, symName: __ZNSt3__117__compressed_pairImNS_9allocatorIPNS_16__hash_node_baseIPNS_11__hash_nodeINS_17__hash_value_typeINS_12basic_stringIcNS_11char_traitsIcEENS1_IcEEEEbEEPvEEEEEEE5firstB7v160006Ev, symObjAddr: 0x1FC30, symBinAddr: 0x100021DB8, symSize: 0x24 }
  - { offsetInCU: 0x70017, offset: 0x70017, size: 0x8, addend: 0x0, symName: __ZNSt3__122__compressed_pair_elemINS_16__hash_node_baseIPNS_11__hash_nodeINS_17__hash_value_typeINS_12basic_stringIcNS_11char_traitsIcEENS_9allocatorIcEEEEbEEPvEEEELi0ELb0EE5__getB7v160006Ev, symObjAddr: 0x1FC54, symBinAddr: 0x100021DDC, symSize: 0x14 }
  - { offsetInCU: 0x7003D, offset: 0x7003D, size: 0x8, addend: 0x0, symName: __ZNKSt3__117__compressed_pairIPNS_11__hash_nodeINS_17__hash_value_typeINS_12basic_stringIcNS_11char_traitsIcEENS_9allocatorIcEEEEbEEPvEENS_22__hash_node_destructorINS6_ISB_EEEEE5firstB7v160006Ev, symObjAddr: 0x1FC68, symBinAddr: 0x100021DF0, symSize: 0x24 }
  - { offsetInCU: 0x70063, offset: 0x70063, size: 0x8, addend: 0x0, symName: __ZNKSt3__122__compressed_pair_elemIPNS_11__hash_nodeINS_17__hash_value_typeINS_12basic_stringIcNS_11char_traitsIcEENS_9allocatorIcEEEEbEEPvEELi0ELb0EE5__getB7v160006Ev, symObjAddr: 0x1FC8C, symBinAddr: 0x100021E14, symSize: 0x14 }
  - { offsetInCU: 0x70089, offset: 0x70089, size: 0x8, addend: 0x0, symName: __ZNSt3__117__compressed_pairIPNS_11__hash_nodeINS_17__hash_value_typeINS_12basic_stringIcNS_11char_traitsIcEENS_9allocatorIcEEEEbEEPvEENS_22__hash_node_destructorINS6_ISB_EEEEE5firstB7v160006Ev, symObjAddr: 0x1FCA0, symBinAddr: 0x100021E28, symSize: 0x24 }
  - { offsetInCU: 0x700AF, offset: 0x700AF, size: 0x8, addend: 0x0, symName: __ZNSt3__122__compressed_pair_elemIPNS_11__hash_nodeINS_17__hash_value_typeINS_12basic_stringIcNS_11char_traitsIcEENS_9allocatorIcEEEEbEEPvEELi0ELb0EE5__getB7v160006Ev, symObjAddr: 0x1FCC4, symBinAddr: 0x100021E4C, symSize: 0x14 }
  - { offsetInCU: 0x700D5, offset: 0x700D5, size: 0x8, addend: 0x0, symName: __ZNSt3__110unique_ptrINS_11__hash_nodeINS_17__hash_value_typeINS_12basic_stringIcNS_11char_traitsIcEENS_9allocatorIcEEEEbEEPvEENS_22__hash_node_destructorINS6_ISB_EEEEED2B7v160006Ev, symObjAddr: 0x1FCD8, symBinAddr: 0x100021E60, symSize: 0x30 }
  - { offsetInCU: 0x700FF, offset: 0x700FF, size: 0x8, addend: 0x0, symName: __ZNSt3__110unique_ptrINS_11__hash_nodeINS_17__hash_value_typeINS_12basic_stringIcNS_11char_traitsIcEENS_9allocatorIcEEEEbEEPvEENS_22__hash_node_destructorINS6_ISB_EEEEE5resetB7v160006EPSB_, symObjAddr: 0x1FD08, symBinAddr: 0x100021E90, symSize: 0x78 }
  - { offsetInCU: 0x70143, offset: 0x70143, size: 0x8, addend: 0x0, symName: __ZNSt3__122__hash_node_destructorINS_9allocatorINS_11__hash_nodeINS_17__hash_value_typeINS_12basic_stringIcNS_11char_traitsIcEENS1_IcEEEEbEEPvEEEEEclB7v160006EPSB_, symObjAddr: 0x1FD80, symBinAddr: 0x100021F08, symSize: 0x98 }
  - { offsetInCU: 0x70178, offset: 0x70178, size: 0x8, addend: 0x0, symName: __ZNSt3__116allocator_traitsINS_9allocatorINS_11__hash_nodeINS_17__hash_value_typeINS_12basic_stringIcNS_11char_traitsIcEENS1_IcEEEEbEEPvEEEEE7destroyB7v160006INS_4pairIKS8_bEEvvEEvRSC_PT_, symObjAddr: 0x1FE18, symBinAddr: 0x100021FA0, symSize: 0x28 }
  - { offsetInCU: 0x701B3, offset: 0x701B3, size: 0x8, addend: 0x0, symName: __ZNSt3__116allocator_traitsINS_9allocatorINS_11__hash_nodeINS_17__hash_value_typeINS_12basic_stringIcNS_11char_traitsIcEENS1_IcEEEEbEEPvEEEEE10deallocateB7v160006ERSC_PSB_m, symObjAddr: 0x1FE40, symBinAddr: 0x100021FC8, symSize: 0x34 }
  - { offsetInCU: 0x701F5, offset: 0x701F5, size: 0x8, addend: 0x0, symName: __ZNSt3__19allocatorINS_11__hash_nodeINS_17__hash_value_typeINS_12basic_stringIcNS_11char_traitsIcEENS0_IcEEEEbEEPvEEE10deallocateB7v160006EPSA_m, symObjAddr: 0x1FEBC, symBinAddr: 0x100022044, symSize: 0x44 }
  - { offsetInCU: 0x70237, offset: 0x70237, size: 0x8, addend: 0x0, symName: __ZNSt3__115__hash_iteratorIPNS_11__hash_nodeINS_17__hash_value_typeINS_12basic_stringIcNS_11char_traitsIcEENS_9allocatorIcEEEEbEEPvEEEC2B7v160006EPNS_16__hash_node_baseISC_EEPKv, symObjAddr: 0x1FF00, symBinAddr: 0x100022088, symSize: 0x24 }
  - { offsetInCU: 0x7027F, offset: 0x7027F, size: 0x8, addend: 0x0, symName: __ZNSt3__14pairINS_15__hash_iteratorIPNS_11__hash_nodeINS_17__hash_value_typeINS_12basic_stringIcNS_11char_traitsIcEENS_9allocatorIcEEEEbEEPvEEEEbEC2B7v160006ISE_RbLSB_0EEEOT_OT0_, symObjAddr: 0x1FF24, symBinAddr: 0x1000220AC, symSize: 0x38 }
  - { offsetInCU: 0x702DD, offset: 0x702DD, size: 0x8, addend: 0x0, symName: __ZNSt3__112__hash_tableINS_17__hash_value_typeINS_12basic_stringIcNS_11char_traitsIcEENS_9allocatorIcEEEEbEENS_22__unordered_map_hasherIS7_S8_NS_4hashIS7_EENS_8equal_toIS7_EELb1EEENS_21__unordered_map_equalIS7_S8_SD_SB_Lb1EEENS5_IS8_EEED2Ev, symObjAddr: 0x1FF5C, symBinAddr: 0x1000220E4, symSize: 0x58 }
  - { offsetInCU: 0x70309, offset: 0x70309, size: 0x8, addend: 0x0, symName: __ZNSt3__112__hash_tableINS_17__hash_value_typeINS_12basic_stringIcNS_11char_traitsIcEENS_9allocatorIcEEEEbEENS_22__unordered_map_hasherIS7_S8_NS_4hashIS7_EENS_8equal_toIS7_EELb1EEENS_21__unordered_map_equalIS7_S8_SD_SB_Lb1EEENS5_IS8_EEE17__deallocate_nodeEPNS_16__hash_node_baseIPNS_11__hash_nodeIS8_PvEEEE, symObjAddr: 0x1FFB4, symBinAddr: 0x10002213C, symSize: 0xA8 }
  - { offsetInCU: 0x70373, offset: 0x70373, size: 0x8, addend: 0x0, symName: __ZNSt3__110unique_ptrIA_PNS_16__hash_node_baseIPNS_11__hash_nodeINS_17__hash_value_typeINS_12basic_stringIcNS_11char_traitsIcEENS_9allocatorIcEEEEbEEPvEEEENS_25__bucket_list_deallocatorINS7_ISF_EEEEED1B7v160006Ev, symObjAddr: 0x2006C, symBinAddr: 0x1000221F4, symSize: 0x2C }
  - { offsetInCU: 0x7039D, offset: 0x7039D, size: 0x8, addend: 0x0, symName: __ZNSt3__110unique_ptrIA_PNS_16__hash_node_baseIPNS_11__hash_nodeINS_17__hash_value_typeINS_12basic_stringIcNS_11char_traitsIcEENS_9allocatorIcEEEEbEEPvEEEENS_25__bucket_list_deallocatorINS7_ISF_EEEEED2B7v160006Ev, symObjAddr: 0x20098, symBinAddr: 0x100022220, symSize: 0x30 }
  - { offsetInCU: 0x703C7, offset: 0x703C7, size: 0x8, addend: 0x0, symName: __ZNSt3__110unique_ptrIA_PNS_16__hash_node_baseIPNS_11__hash_nodeINS_17__hash_value_typeINS_12basic_stringIcNS_11char_traitsIcEENS_9allocatorIcEEEEbEEPvEEEENS_25__bucket_list_deallocatorINS7_ISF_EEEEE5resetB7v160006EDn, symObjAddr: 0x200C8, symBinAddr: 0x100022250, symSize: 0x6C }
  - { offsetInCU: 0x70408, offset: 0x70408, size: 0x8, addend: 0x0, symName: __ZNSt3__113unordered_mapINS_12basic_stringIcNS_11char_traitsIcEENS_9allocatorIcEEEEbNS_4hashIS6_EENS_8equal_toIS6_EENS4_INS_4pairIKS6_bEEEEED2B7v160006Ev, symObjAddr: 0x20134, symBinAddr: 0x1000222BC, symSize: 0x2C }
  - { offsetInCU: 0x70432, offset: 0x70432, size: 0x8, addend: 0x0, symName: __ZNSt3__113unordered_mapINS_12basic_stringIcNS_11char_traitsIcEENS_9allocatorIcEEEES6_NS_4hashIS6_EENS_8equal_toIS6_EENS4_INS_4pairIKS6_S6_EEEEEC2ESt16initializer_listISD_E, symObjAddr: 0x20160, symBinAddr: 0x1000222E8, symSize: 0x94 }
  - { offsetInCU: 0x7046D, offset: 0x7046D, size: 0x8, addend: 0x0, symName: __ZNSt3__112__hash_tableINS_17__hash_value_typeINS_12basic_stringIcNS_11char_traitsIcEENS_9allocatorIcEEEES7_EENS_22__unordered_map_hasherIS7_S8_NS_4hashIS7_EENS_8equal_toIS7_EELb1EEENS_21__unordered_map_equalIS7_S8_SD_SB_Lb1EEENS5_IS8_EEEC1Ev, symObjAddr: 0x201F4, symBinAddr: 0x10002237C, symSize: 0x2C }
  - { offsetInCU: 0x70499, offset: 0x70499, size: 0x8, addend: 0x0, symName: __ZNSt3__113unordered_mapINS_12basic_stringIcNS_11char_traitsIcEENS_9allocatorIcEEEES6_NS_4hashIS6_EENS_8equal_toIS6_EENS4_INS_4pairIKS6_S6_EEEEE6insertIPKSD_EEvT_SJ_, symObjAddr: 0x20230, symBinAddr: 0x1000223B8, symSize: 0x70 }
  - { offsetInCU: 0x704E8, offset: 0x704E8, size: 0x8, addend: 0x0, symName: __ZNKSt16initializer_listINSt3__14pairIKNS0_12basic_stringIcNS0_11char_traitsIcEENS0_9allocatorIcEEEES7_EEE5beginB7v160006Ev, symObjAddr: 0x202A0, symBinAddr: 0x100022428, symSize: 0x18 }
  - { offsetInCU: 0x7050E, offset: 0x7050E, size: 0x8, addend: 0x0, symName: __ZNKSt16initializer_listINSt3__14pairIKNS0_12basic_stringIcNS0_11char_traitsIcEENS0_9allocatorIcEEEES7_EEE3endB7v160006Ev, symObjAddr: 0x202B8, symBinAddr: 0x100022440, symSize: 0x28 }
  - { offsetInCU: 0x70534, offset: 0x70534, size: 0x8, addend: 0x0, symName: __ZNSt3__112__hash_tableINS_17__hash_value_typeINS_12basic_stringIcNS_11char_traitsIcEENS_9allocatorIcEEEES7_EENS_22__unordered_map_hasherIS7_S8_NS_4hashIS7_EENS_8equal_toIS7_EELb1EEENS_21__unordered_map_equalIS7_S8_SD_SB_Lb1EEENS5_IS8_EEED1Ev, symObjAddr: 0x202E0, symBinAddr: 0x100022468, symSize: 0x2C }
  - { offsetInCU: 0x70560, offset: 0x70560, size: 0x8, addend: 0x0, symName: __ZNSt3__112__hash_tableINS_17__hash_value_typeINS_12basic_stringIcNS_11char_traitsIcEENS_9allocatorIcEEEES7_EENS_22__unordered_map_hasherIS7_S8_NS_4hashIS7_EENS_8equal_toIS7_EELb1EEENS_21__unordered_map_equalIS7_S8_SD_SB_Lb1EEENS5_IS8_EEEC2Ev, symObjAddr: 0x2030C, symBinAddr: 0x100022494, symSize: 0x7C }
  - { offsetInCU: 0x7058C, offset: 0x7058C, size: 0x8, addend: 0x0, symName: __ZNSt3__110unique_ptrIA_PNS_16__hash_node_baseIPNS_11__hash_nodeINS_17__hash_value_typeINS_12basic_stringIcNS_11char_traitsIcEENS_9allocatorIcEEEES9_EEPvEEEENS_25__bucket_list_deallocatorINS7_ISF_EEEEEC1B7v160006ILb1EvEEv, symObjAddr: 0x20388, symBinAddr: 0x100022510, symSize: 0x2C }
  - { offsetInCU: 0x705C1, offset: 0x705C1, size: 0x8, addend: 0x0, symName: __ZNSt3__117__compressed_pairINS_16__hash_node_baseIPNS_11__hash_nodeINS_17__hash_value_typeINS_12basic_stringIcNS_11char_traitsIcEENS_9allocatorIcEEEES9_EEPvEEEENS7_ISC_EEEC1B7v160006ILb1EvEEv, symObjAddr: 0x203B4, symBinAddr: 0x10002253C, symSize: 0x2C }
  - { offsetInCU: 0x705F6, offset: 0x705F6, size: 0x8, addend: 0x0, symName: __ZNSt3__117__compressed_pairImNS_22__unordered_map_hasherINS_12basic_stringIcNS_11char_traitsIcEENS_9allocatorIcEEEENS_17__hash_value_typeIS7_S7_EENS_4hashIS7_EENS_8equal_toIS7_EELb1EEEEC1B7v160006IiNS_18__default_init_tagEEEOT_OT0_, symObjAddr: 0x203E0, symBinAddr: 0x100022568, symSize: 0x3C }
  - { offsetInCU: 0x7064E, offset: 0x7064E, size: 0x8, addend: 0x0, symName: __ZNSt3__117__compressed_pairIfNS_21__unordered_map_equalINS_12basic_stringIcNS_11char_traitsIcEENS_9allocatorIcEEEENS_17__hash_value_typeIS7_S7_EENS_8equal_toIS7_EENS_4hashIS7_EELb1EEEEC1B7v160006IfNS_18__default_init_tagEEEOT_OT0_, symObjAddr: 0x2041C, symBinAddr: 0x1000225A4, symSize: 0x3C }
  - { offsetInCU: 0x706A6, offset: 0x706A6, size: 0x8, addend: 0x0, symName: __ZNSt3__110unique_ptrIA_PNS_16__hash_node_baseIPNS_11__hash_nodeINS_17__hash_value_typeINS_12basic_stringIcNS_11char_traitsIcEENS_9allocatorIcEEEES9_EEPvEEEENS_25__bucket_list_deallocatorINS7_ISF_EEEEEC2B7v160006ILb1EvEEv, symObjAddr: 0x20458, symBinAddr: 0x1000225E0, symSize: 0x3C }
  - { offsetInCU: 0x706DB, offset: 0x706DB, size: 0x8, addend: 0x0, symName: __ZNSt3__117__compressed_pairIPPNS_16__hash_node_baseIPNS_11__hash_nodeINS_17__hash_value_typeINS_12basic_stringIcNS_11char_traitsIcEENS_9allocatorIcEEEES9_EEPvEEEENS_25__bucket_list_deallocatorINS7_ISF_EEEEEC1B7v160006INS_16__value_init_tagESM_EEOT_OT0_, symObjAddr: 0x20494, symBinAddr: 0x10002261C, symSize: 0x3C }
  - { offsetInCU: 0x70733, offset: 0x70733, size: 0x8, addend: 0x0, symName: __ZNSt3__117__compressed_pairIPPNS_16__hash_node_baseIPNS_11__hash_nodeINS_17__hash_value_typeINS_12basic_stringIcNS_11char_traitsIcEENS_9allocatorIcEEEES9_EEPvEEEENS_25__bucket_list_deallocatorINS7_ISF_EEEEEC2B7v160006INS_16__value_init_tagESM_EEOT_OT0_, symObjAddr: 0x204D0, symBinAddr: 0x100022658, symSize: 0x40 }
  - { offsetInCU: 0x7078B, offset: 0x7078B, size: 0x8, addend: 0x0, symName: __ZNSt3__122__compressed_pair_elemIPPNS_16__hash_node_baseIPNS_11__hash_nodeINS_17__hash_value_typeINS_12basic_stringIcNS_11char_traitsIcEENS_9allocatorIcEEEES9_EEPvEEEELi0ELb0EEC2B7v160006ENS_16__value_init_tagE, symObjAddr: 0x20510, symBinAddr: 0x100022698, symSize: 0x18 }
  - { offsetInCU: 0x707C0, offset: 0x707C0, size: 0x8, addend: 0x0, symName: __ZNSt3__122__compressed_pair_elemINS_25__bucket_list_deallocatorINS_9allocatorIPNS_16__hash_node_baseIPNS_11__hash_nodeINS_17__hash_value_typeINS_12basic_stringIcNS_11char_traitsIcEENS2_IcEEEESA_EEPvEEEEEEEELi1ELb0EEC2B7v160006ENS_16__value_init_tagE, symObjAddr: 0x20528, symBinAddr: 0x1000226B0, symSize: 0x2C }
  - { offsetInCU: 0x707F5, offset: 0x707F5, size: 0x8, addend: 0x0, symName: __ZNSt3__125__bucket_list_deallocatorINS_9allocatorIPNS_16__hash_node_baseIPNS_11__hash_nodeINS_17__hash_value_typeINS_12basic_stringIcNS_11char_traitsIcEENS1_IcEEEES9_EEPvEEEEEEEC1B7v160006Ev, symObjAddr: 0x20554, symBinAddr: 0x1000226DC, symSize: 0x2C }
  - { offsetInCU: 0x7081F, offset: 0x7081F, size: 0x8, addend: 0x0, symName: __ZNSt3__125__bucket_list_deallocatorINS_9allocatorIPNS_16__hash_node_baseIPNS_11__hash_nodeINS_17__hash_value_typeINS_12basic_stringIcNS_11char_traitsIcEENS1_IcEEEES9_EEPvEEEEEEEC2B7v160006Ev, symObjAddr: 0x20580, symBinAddr: 0x100022708, symSize: 0x40 }
  - { offsetInCU: 0x70849, offset: 0x70849, size: 0x8, addend: 0x0, symName: __ZNSt3__117__compressed_pairImNS_9allocatorIPNS_16__hash_node_baseIPNS_11__hash_nodeINS_17__hash_value_typeINS_12basic_stringIcNS_11char_traitsIcEENS1_IcEEEES9_EEPvEEEEEEEC1B7v160006IiNS_18__default_init_tagEEEOT_OT0_, symObjAddr: 0x205C0, symBinAddr: 0x100022748, symSize: 0x3C }
  - { offsetInCU: 0x708A1, offset: 0x708A1, size: 0x8, addend: 0x0, symName: __ZNSt3__117__compressed_pairImNS_9allocatorIPNS_16__hash_node_baseIPNS_11__hash_nodeINS_17__hash_value_typeINS_12basic_stringIcNS_11char_traitsIcEENS1_IcEEEES9_EEPvEEEEEEEC2B7v160006IiNS_18__default_init_tagEEEOT_OT0_, symObjAddr: 0x205FC, symBinAddr: 0x100022784, symSize: 0x40 }
  - { offsetInCU: 0x708F9, offset: 0x708F9, size: 0x8, addend: 0x0, symName: __ZNSt3__122__compressed_pair_elemINS_9allocatorIPNS_16__hash_node_baseIPNS_11__hash_nodeINS_17__hash_value_typeINS_12basic_stringIcNS_11char_traitsIcEENS1_IcEEEES9_EEPvEEEEEELi1ELb1EEC2B7v160006ENS_18__default_init_tagE, symObjAddr: 0x2063C, symBinAddr: 0x1000227C4, symSize: 0x2C }
  - { offsetInCU: 0x7092E, offset: 0x7092E, size: 0x8, addend: 0x0, symName: __ZNSt3__19allocatorIPNS_16__hash_node_baseIPNS_11__hash_nodeINS_17__hash_value_typeINS_12basic_stringIcNS_11char_traitsIcEENS0_IcEEEES8_EEPvEEEEEC2B7v160006Ev, symObjAddr: 0x20668, symBinAddr: 0x1000227F0, symSize: 0x2C }
  - { offsetInCU: 0x70958, offset: 0x70958, size: 0x8, addend: 0x0, symName: __ZNSt3__116__non_trivial_ifILb1ENS_9allocatorIPNS_16__hash_node_baseIPNS_11__hash_nodeINS_17__hash_value_typeINS_12basic_stringIcNS_11char_traitsIcEENS1_IcEEEES9_EEPvEEEEEEEC2B7v160006Ev, symObjAddr: 0x20694, symBinAddr: 0x10002281C, symSize: 0x14 }
  - { offsetInCU: 0x70982, offset: 0x70982, size: 0x8, addend: 0x0, symName: __ZNSt3__117__compressed_pairINS_16__hash_node_baseIPNS_11__hash_nodeINS_17__hash_value_typeINS_12basic_stringIcNS_11char_traitsIcEENS_9allocatorIcEEEES9_EEPvEEEENS7_ISC_EEEC2B7v160006ILb1EvEEv, symObjAddr: 0x206A8, symBinAddr: 0x100022830, symSize: 0x34 }
  - { offsetInCU: 0x709B7, offset: 0x709B7, size: 0x8, addend: 0x0, symName: __ZNSt3__122__compressed_pair_elemINS_16__hash_node_baseIPNS_11__hash_nodeINS_17__hash_value_typeINS_12basic_stringIcNS_11char_traitsIcEENS_9allocatorIcEEEES9_EEPvEEEELi0ELb0EEC2B7v160006ENS_16__value_init_tagE, symObjAddr: 0x206DC, symBinAddr: 0x100022864, symSize: 0x2C }
  - { offsetInCU: 0x709EC, offset: 0x709EC, size: 0x8, addend: 0x0, symName: __ZNSt3__122__compressed_pair_elemINS_9allocatorINS_11__hash_nodeINS_17__hash_value_typeINS_12basic_stringIcNS_11char_traitsIcEENS1_IcEEEES8_EEPvEEEELi1ELb1EEC2B7v160006ENS_16__value_init_tagE, symObjAddr: 0x20708, symBinAddr: 0x100022890, symSize: 0x2C }
  - { offsetInCU: 0x70A21, offset: 0x70A21, size: 0x8, addend: 0x0, symName: __ZNSt3__116__hash_node_baseIPNS_11__hash_nodeINS_17__hash_value_typeINS_12basic_stringIcNS_11char_traitsIcEENS_9allocatorIcEEEES8_EEPvEEEC1B7v160006Ev, symObjAddr: 0x20734, symBinAddr: 0x1000228BC, symSize: 0x2C }
  - { offsetInCU: 0x70A4B, offset: 0x70A4B, size: 0x8, addend: 0x0, symName: __ZNSt3__116__hash_node_baseIPNS_11__hash_nodeINS_17__hash_value_typeINS_12basic_stringIcNS_11char_traitsIcEENS_9allocatorIcEEEES8_EEPvEEEC2B7v160006Ev, symObjAddr: 0x20760, symBinAddr: 0x1000228E8, symSize: 0x18 }
  - { offsetInCU: 0x70A75, offset: 0x70A75, size: 0x8, addend: 0x0, symName: __ZNSt3__19allocatorINS_11__hash_nodeINS_17__hash_value_typeINS_12basic_stringIcNS_11char_traitsIcEENS0_IcEEEES7_EEPvEEEC2B7v160006Ev, symObjAddr: 0x20778, symBinAddr: 0x100022900, symSize: 0x2C }
  - { offsetInCU: 0x70A9F, offset: 0x70A9F, size: 0x8, addend: 0x0, symName: __ZNSt3__116__non_trivial_ifILb1ENS_9allocatorINS_11__hash_nodeINS_17__hash_value_typeINS_12basic_stringIcNS_11char_traitsIcEENS1_IcEEEES8_EEPvEEEEEC2B7v160006Ev, symObjAddr: 0x207A4, symBinAddr: 0x10002292C, symSize: 0x14 }
  - { offsetInCU: 0x70AC9, offset: 0x70AC9, size: 0x8, addend: 0x0, symName: __ZNSt3__117__compressed_pairImNS_22__unordered_map_hasherINS_12basic_stringIcNS_11char_traitsIcEENS_9allocatorIcEEEENS_17__hash_value_typeIS7_S7_EENS_4hashIS7_EENS_8equal_toIS7_EELb1EEEEC2B7v160006IiNS_18__default_init_tagEEEOT_OT0_, symObjAddr: 0x207B8, symBinAddr: 0x100022940, symSize: 0x40 }
  - { offsetInCU: 0x70B21, offset: 0x70B21, size: 0x8, addend: 0x0, symName: __ZNSt3__122__compressed_pair_elemINS_22__unordered_map_hasherINS_12basic_stringIcNS_11char_traitsIcEENS_9allocatorIcEEEENS_17__hash_value_typeIS7_S7_EENS_4hashIS7_EENS_8equal_toIS7_EELb1EEELi1ELb1EEC2B7v160006ENS_18__default_init_tagE, symObjAddr: 0x207F8, symBinAddr: 0x100022980, symSize: 0x2C }
  - { offsetInCU: 0x70B56, offset: 0x70B56, size: 0x8, addend: 0x0, symName: __ZNSt3__122__unordered_map_hasherINS_12basic_stringIcNS_11char_traitsIcEENS_9allocatorIcEEEENS_17__hash_value_typeIS6_S6_EENS_4hashIS6_EENS_8equal_toIS6_EELb1EEC2B7v160006Ev, symObjAddr: 0x20824, symBinAddr: 0x1000229AC, symSize: 0x14 }
  - { offsetInCU: 0x70B80, offset: 0x70B80, size: 0x8, addend: 0x0, symName: __ZNSt3__117__compressed_pairIfNS_21__unordered_map_equalINS_12basic_stringIcNS_11char_traitsIcEENS_9allocatorIcEEEENS_17__hash_value_typeIS7_S7_EENS_8equal_toIS7_EENS_4hashIS7_EELb1EEEEC2B7v160006IfNS_18__default_init_tagEEEOT_OT0_, symObjAddr: 0x20838, symBinAddr: 0x1000229C0, symSize: 0x40 }
  - { offsetInCU: 0x70BD8, offset: 0x70BD8, size: 0x8, addend: 0x0, symName: __ZNSt3__122__compressed_pair_elemINS_21__unordered_map_equalINS_12basic_stringIcNS_11char_traitsIcEENS_9allocatorIcEEEENS_17__hash_value_typeIS7_S7_EENS_8equal_toIS7_EENS_4hashIS7_EELb1EEELi1ELb1EEC2B7v160006ENS_18__default_init_tagE, symObjAddr: 0x20878, symBinAddr: 0x100022A00, symSize: 0x2C }
  - { offsetInCU: 0x70C0D, offset: 0x70C0D, size: 0x8, addend: 0x0, symName: __ZNSt3__121__unordered_map_equalINS_12basic_stringIcNS_11char_traitsIcEENS_9allocatorIcEEEENS_17__hash_value_typeIS6_S6_EENS_8equal_toIS6_EENS_4hashIS6_EELb1EEC2B7v160006Ev, symObjAddr: 0x208A4, symBinAddr: 0x100022A2C, symSize: 0x14 }
  - { offsetInCU: 0x70C37, offset: 0x70C37, size: 0x8, addend: 0x0, symName: __ZNSt3__112__hash_tableINS_17__hash_value_typeINS_12basic_stringIcNS_11char_traitsIcEENS_9allocatorIcEEEES7_EENS_22__unordered_map_hasherIS7_S8_NS_4hashIS7_EENS_8equal_toIS7_EELb1EEENS_21__unordered_map_equalIS7_S8_SD_SB_Lb1EEENS5_IS8_EEE15__insert_uniqueB7v160006ERKNS_4pairIKS7_S7_EE, symObjAddr: 0x208B8, symBinAddr: 0x100022A40, symSize: 0x50 }
  - { offsetInCU: 0x70C6C, offset: 0x70C6C, size: 0x8, addend: 0x0, symName: __ZNSt3__112__hash_tableINS_17__hash_value_typeINS_12basic_stringIcNS_11char_traitsIcEENS_9allocatorIcEEEES7_EENS_22__unordered_map_hasherIS7_S8_NS_4hashIS7_EENS_8equal_toIS7_EELb1EEENS_21__unordered_map_equalIS7_S8_SD_SB_Lb1EEENS5_IS8_EEE25__emplace_unique_key_argsIS7_JRKNS_4pairIKS7_S7_EEEEENSK_INS_15__hash_iteratorIPNS_11__hash_nodeIS8_PvEEEEbEERKT_DpOT0_, symObjAddr: 0x20908, symBinAddr: 0x100022A90, symSize: 0x4A4 }
  - { offsetInCU: 0x70D4B, offset: 0x70D4B, size: 0x8, addend: 0x0, symName: __ZNSt3__122__hash_key_value_typesINS_17__hash_value_typeINS_12basic_stringIcNS_11char_traitsIcEENS_9allocatorIcEEEES7_EEE9__get_keyB7v160006ERKNS_4pairIKS7_S7_EE, symObjAddr: 0x20DAC, symBinAddr: 0x100022F34, symSize: 0x14 }
  - { offsetInCU: 0x70D6E, offset: 0x70D6E, size: 0x8, addend: 0x0, symName: __ZNSt3__112__hash_tableINS_17__hash_value_typeINS_12basic_stringIcNS_11char_traitsIcEENS_9allocatorIcEEEES7_EENS_22__unordered_map_hasherIS7_S8_NS_4hashIS7_EENS_8equal_toIS7_EELb1EEENS_21__unordered_map_equalIS7_S8_SD_SB_Lb1EEENS5_IS8_EEE13hash_functionB7v160006Ev, symObjAddr: 0x20DC0, symBinAddr: 0x100022F48, symSize: 0x28 }
  - { offsetInCU: 0x70D94, offset: 0x70D94, size: 0x8, addend: 0x0, symName: __ZNKSt3__122__unordered_map_hasherINS_12basic_stringIcNS_11char_traitsIcEENS_9allocatorIcEEEENS_17__hash_value_typeIS6_S6_EENS_4hashIS6_EENS_8equal_toIS6_EELb1EEclB7v160006ERKS6_, symObjAddr: 0x20DE8, symBinAddr: 0x100022F70, symSize: 0x2C }
  - { offsetInCU: 0x70DC9, offset: 0x70DC9, size: 0x8, addend: 0x0, symName: __ZNKSt3__112__hash_tableINS_17__hash_value_typeINS_12basic_stringIcNS_11char_traitsIcEENS_9allocatorIcEEEES7_EENS_22__unordered_map_hasherIS7_S8_NS_4hashIS7_EENS_8equal_toIS7_EELb1EEENS_21__unordered_map_equalIS7_S8_SD_SB_Lb1EEENS5_IS8_EEE12bucket_countB7v160006Ev, symObjAddr: 0x20E14, symBinAddr: 0x100022F9C, symSize: 0x28 }
  - { offsetInCU: 0x70DEF, offset: 0x70DEF, size: 0x8, addend: 0x0, symName: __ZNKSt3__110unique_ptrIA_PNS_16__hash_node_baseIPNS_11__hash_nodeINS_17__hash_value_typeINS_12basic_stringIcNS_11char_traitsIcEENS_9allocatorIcEEEES9_EEPvEEEENS_25__bucket_list_deallocatorINS7_ISF_EEEEEixB7v160006Em, symObjAddr: 0x20E3C, symBinAddr: 0x100022FC4, symSize: 0x34 }
  - { offsetInCU: 0x70E24, offset: 0x70E24, size: 0x8, addend: 0x0, symName: __ZNKSt3__116__hash_node_baseIPNS_11__hash_nodeINS_17__hash_value_typeINS_12basic_stringIcNS_11char_traitsIcEENS_9allocatorIcEEEES8_EEPvEEE6__hashB7v160006Ev, symObjAddr: 0x20E70, symBinAddr: 0x100022FF8, symSize: 0x18 }
  - { offsetInCU: 0x70E4A, offset: 0x70E4A, size: 0x8, addend: 0x0, symName: __ZNSt3__112__hash_tableINS_17__hash_value_typeINS_12basic_stringIcNS_11char_traitsIcEENS_9allocatorIcEEEES7_EENS_22__unordered_map_hasherIS7_S8_NS_4hashIS7_EENS_8equal_toIS7_EELb1EEENS_21__unordered_map_equalIS7_S8_SD_SB_Lb1EEENS5_IS8_EEE6key_eqB7v160006Ev, symObjAddr: 0x20E88, symBinAddr: 0x100023010, symSize: 0x28 }
  - { offsetInCU: 0x70E70, offset: 0x70E70, size: 0x8, addend: 0x0, symName: __ZNKSt3__121__unordered_map_equalINS_12basic_stringIcNS_11char_traitsIcEENS_9allocatorIcEEEENS_17__hash_value_typeIS6_S6_EENS_8equal_toIS6_EENS_4hashIS6_EELb1EEclB7v160006ERKS8_RKS6_, symObjAddr: 0x20EB0, symBinAddr: 0x100023038, symSize: 0x48 }
  - { offsetInCU: 0x70EB4, offset: 0x70EB4, size: 0x8, addend: 0x0, symName: __ZNSt3__116__hash_node_baseIPNS_11__hash_nodeINS_17__hash_value_typeINS_12basic_stringIcNS_11char_traitsIcEENS_9allocatorIcEEEES8_EEPvEEE8__upcastB7v160006Ev, symObjAddr: 0x20EF8, symBinAddr: 0x100023080, symSize: 0x24 }
  - { offsetInCU: 0x70EDA, offset: 0x70EDA, size: 0x8, addend: 0x0, symName: __ZNSt3__112__hash_tableINS_17__hash_value_typeINS_12basic_stringIcNS_11char_traitsIcEENS_9allocatorIcEEEES7_EENS_22__unordered_map_hasherIS7_S8_NS_4hashIS7_EENS_8equal_toIS7_EELb1EEENS_21__unordered_map_equalIS7_S8_SD_SB_Lb1EEENS5_IS8_EEE21__construct_node_hashIRKNS_4pairIKS7_S7_EEJEEENS_10unique_ptrINS_11__hash_nodeIS8_PvEENS_22__hash_node_destructorINS5_ISS_EEEEEEmOT_DpOT0_, symObjAddr: 0x20F1C, symBinAddr: 0x1000230A4, symSize: 0x140 }
  - { offsetInCU: 0x70F4D, offset: 0x70F4D, size: 0x8, addend: 0x0, symName: __ZNSt3__112__hash_tableINS_17__hash_value_typeINS_12basic_stringIcNS_11char_traitsIcEENS_9allocatorIcEEEES7_EENS_22__unordered_map_hasherIS7_S8_NS_4hashIS7_EENS_8equal_toIS7_EELb1EEENS_21__unordered_map_equalIS7_S8_SD_SB_Lb1EEENS5_IS8_EEE4sizeB7v160006Ev, symObjAddr: 0x2105C, symBinAddr: 0x1000231E4, symSize: 0x28 }
  - { offsetInCU: 0x70F73, offset: 0x70F73, size: 0x8, addend: 0x0, symName: __ZNSt3__112__hash_tableINS_17__hash_value_typeINS_12basic_stringIcNS_11char_traitsIcEENS_9allocatorIcEEEES7_EENS_22__unordered_map_hasherIS7_S8_NS_4hashIS7_EENS_8equal_toIS7_EELb1EEENS_21__unordered_map_equalIS7_S8_SD_SB_Lb1EEENS5_IS8_EEE15max_load_factorB7v160006Ev, symObjAddr: 0x21084, symBinAddr: 0x10002320C, symSize: 0x28 }
  - { offsetInCU: 0x70F99, offset: 0x70F99, size: 0x8, addend: 0x0, symName: __ZNSt3__112__hash_tableINS_17__hash_value_typeINS_12basic_stringIcNS_11char_traitsIcEENS_9allocatorIcEEEES7_EENS_22__unordered_map_hasherIS7_S8_NS_4hashIS7_EENS_8equal_toIS7_EELb1EEENS_21__unordered_map_equalIS7_S8_SD_SB_Lb1EEENS5_IS8_EEE15__rehash_uniqueB7v160006Em, symObjAddr: 0x210AC, symBinAddr: 0x100023234, symSize: 0x2C }
  - { offsetInCU: 0x70FCE, offset: 0x70FCE, size: 0x8, addend: 0x0, symName: __ZNSt3__117__compressed_pairINS_16__hash_node_baseIPNS_11__hash_nodeINS_17__hash_value_typeINS_12basic_stringIcNS_11char_traitsIcEENS_9allocatorIcEEEES9_EEPvEEEENS7_ISC_EEE5firstB7v160006Ev, symObjAddr: 0x210D8, symBinAddr: 0x100023260, symSize: 0x24 }
  - { offsetInCU: 0x70FF4, offset: 0x70FF4, size: 0x8, addend: 0x0, symName: __ZNSt3__116__hash_node_baseIPNS_11__hash_nodeINS_17__hash_value_typeINS_12basic_stringIcNS_11char_traitsIcEENS_9allocatorIcEEEES8_EEPvEEE5__ptrB7v160006Ev, symObjAddr: 0x210FC, symBinAddr: 0x100023284, symSize: 0x24 }
  - { offsetInCU: 0x7101A, offset: 0x7101A, size: 0x8, addend: 0x0, symName: __ZNKSt3__110unique_ptrINS_11__hash_nodeINS_17__hash_value_typeINS_12basic_stringIcNS_11char_traitsIcEENS_9allocatorIcEEEES8_EEPvEENS_22__hash_node_destructorINS6_ISB_EEEEEptB7v160006Ev, symObjAddr: 0x21120, symBinAddr: 0x1000232A8, symSize: 0x28 }
  - { offsetInCU: 0x71040, offset: 0x71040, size: 0x8, addend: 0x0, symName: __ZNKSt3__110unique_ptrINS_11__hash_nodeINS_17__hash_value_typeINS_12basic_stringIcNS_11char_traitsIcEENS_9allocatorIcEEEES8_EEPvEENS_22__hash_node_destructorINS6_ISB_EEEEE3getB7v160006Ev, symObjAddr: 0x21148, symBinAddr: 0x1000232D0, symSize: 0x28 }
  - { offsetInCU: 0x71066, offset: 0x71066, size: 0x8, addend: 0x0, symName: __ZNSt3__110unique_ptrINS_11__hash_nodeINS_17__hash_value_typeINS_12basic_stringIcNS_11char_traitsIcEENS_9allocatorIcEEEES8_EEPvEENS_22__hash_node_destructorINS6_ISB_EEEEE7releaseB7v160006Ev, symObjAddr: 0x21170, symBinAddr: 0x1000232F8, symSize: 0x44 }
  - { offsetInCU: 0x7109B, offset: 0x7109B, size: 0x8, addend: 0x0, symName: __ZNSt3__110unique_ptrINS_11__hash_nodeINS_17__hash_value_typeINS_12basic_stringIcNS_11char_traitsIcEENS_9allocatorIcEEEES8_EEPvEENS_22__hash_node_destructorINS6_ISB_EEEEED1B7v160006Ev, symObjAddr: 0x211B4, symBinAddr: 0x10002333C, symSize: 0x2C }
  - { offsetInCU: 0x710C5, offset: 0x710C5, size: 0x8, addend: 0x0, symName: __ZNSt3__115__hash_iteratorIPNS_11__hash_nodeINS_17__hash_value_typeINS_12basic_stringIcNS_11char_traitsIcEENS_9allocatorIcEEEES8_EEPvEEEC1B7v160006EPNS_16__hash_node_baseISC_EEPKv, symObjAddr: 0x211E0, symBinAddr: 0x100023368, symSize: 0x3C }
  - { offsetInCU: 0x71113, offset: 0x71113, size: 0x8, addend: 0x0, symName: __ZNSt3__14pairINS_15__hash_iteratorIPNS_11__hash_nodeINS_17__hash_value_typeINS_12basic_stringIcNS_11char_traitsIcEENS_9allocatorIcEEEES9_EEPvEEEEbEC1B7v160006ISE_RbLSB_0EEEOT_OT0_, symObjAddr: 0x2121C, symBinAddr: 0x1000233A4, symSize: 0x3C }
